ARM GAS  /tmp/ccJMlkfl.s 			page 1


   1              		.cpu cortex-m3
   2              		.eabi_attribute 20, 1
   3              		.eabi_attribute 21, 1
   4              		.eabi_attribute 23, 3
   5              		.eabi_attribute 24, 1
   6              		.eabi_attribute 25, 1
   7              		.eabi_attribute 26, 1
   8              		.eabi_attribute 30, 1
   9              		.eabi_attribute 34, 1
  10              		.eabi_attribute 18, 4
  11              		.file	"app_menu.c"
  12              		.text
  13              	.Ltext0:
  14              		.cfi_sections	.debug_frame
  15              		.section	.text.Menu_KeyToDigit,"ax",%progbits
  16              		.align	1
  17              		.arch armv7-m
  18              		.syntax unified
  19              		.thumb
  20              		.thumb_func
  21              		.fpu softvfp
  23              	Menu_KeyToDigit:
  24              	.LVL0:
  25              	.LFB3:
  26              		.file 1 "Core/Src/app_menu.c"
   1:Core/Src/app_menu.c **** #include "app_menu.h"
   2:Core/Src/app_menu.c **** #include "app_param_dict.h"
   3:Core/Src/app_menu.c **** #include "app_param_update.h"
   4:Core/Src/app_menu.c **** #include "bsp.h"
   5:Core/Src/app_menu.c **** #include <stdbool.h>
   6:Core/Src/app_menu.c **** #include <stdio.h>
   7:Core/Src/app_menu.c **** 
   8:Core/Src/app_menu.c **** /* -------------------- 静态菜单节点定义（示例） -------------------- */
   9:Core/Src/app_menu.c **** 
  10:Core/Src/app_menu.c **** /* 预声明节点，以便互相引用 */
  11:Core/Src/app_menu.c **** static const MenuNode_t s_root;
  12:Core/Src/app_menu.c **** static const MenuNode_t s_operation;
  13:Core/Src/app_menu.c **** static const MenuNode_t s_function;
  14:Core/Src/app_menu.c **** static const MenuNode_t s_setting;
  15:Core/Src/app_menu.c **** static const MenuNode_t s_operation_mode;
  16:Core/Src/app_menu.c **** static const MenuNode_t s_operation_param;
  17:Core/Src/app_menu.c **** static const MenuNode_t s_setting_net;
  18:Core/Src/app_menu.c **** static const MenuNode_t s_setting_uart;
  19:Core/Src/app_menu.c **** static const MenuNode_t s_setting_uart_baud;
  20:Core/Src/app_menu.c **** 
  21:Core/Src/app_menu.c **** /* 前置声明：串口波特率编辑按键处理回调 */
  22:Core/Src/app_menu.c **** static int MenuKeyHandler_WorkMode(MenuKey_t key);
  23:Core/Src/app_menu.c **** static int MenuKeyHandler_UartBaud(MenuKey_t key);
  24:Core/Src/app_menu.c **** static int MenuKeyHandler_OperationParam(MenuKey_t key);
  25:Core/Src/app_menu.c **** static void Menu_RenderParamValue(ParamId_t id, int32_t value, char *out, size_t outSize);
  26:Core/Src/app_menu.c **** static const char *Menu_AckStateText(int32_t state);
  27:Core/Src/app_menu.c **** 
  28:Core/Src/app_menu.c **** typedef struct
  29:Core/Src/app_menu.c **** {
  30:Core/Src/app_menu.c ****   ParamId_t id;
  31:Core/Src/app_menu.c ****   const char *name;
  32:Core/Src/app_menu.c **** } EditableParamItem_t;
ARM GAS  /tmp/ccJMlkfl.s 			page 2


  33:Core/Src/app_menu.c **** 
  34:Core/Src/app_menu.c **** static int32_t s_paramInputValue = 0;
  35:Core/Src/app_menu.c **** static uint8_t s_paramInputDigits = 0;
  36:Core/Src/app_menu.c **** static uint8_t s_paramEditIndex = 0;
  37:Core/Src/app_menu.c **** 
  38:Core/Src/app_menu.c **** static const EditableParamItem_t s_editableParams[] =
  39:Core/Src/app_menu.c **** {
  40:Core/Src/app_menu.c ****   { PARAM_ID_FREQ_HOP_MODE,    "HOP_MODE" },
  41:Core/Src/app_menu.c ****   { PARAM_ID_SIGNAL_BANDWIDTH, "BANDWIDTH" },
  42:Core/Src/app_menu.c ****   { PARAM_ID_FIXED_FREQ,       "FIX_FREQ" },
  43:Core/Src/app_menu.c ****   { PARAM_ID_ADAPT_FREQ1,      "ADAPT_F1" },
  44:Core/Src/app_menu.c ****   { PARAM_ID_ADAPT_FREQ2,      "ADAPT_F2" },
  45:Core/Src/app_menu.c ****   { PARAM_ID_ADAPT_FREQ3,      "ADAPT_F3" },
  46:Core/Src/app_menu.c ****   { PARAM_ID_ADAPT_FREQ4,      "ADAPT_F4" },
  47:Core/Src/app_menu.c ****   { PARAM_ID_WAVEFORM_GEAR,    "WAVEFORM" }
  48:Core/Src/app_menu.c **** };
  49:Core/Src/app_menu.c **** 
  50:Core/Src/app_menu.c **** static int Menu_KeyToDigit(MenuKey_t key)
  51:Core/Src/app_menu.c **** {
  27              		.loc 1 51 1 view -0
  28              		.cfi_startproc
  29              		@ args = 0, pretend = 0, frame = 0
  30              		@ frame_needed = 0, uses_anonymous_args = 0
  31              		@ link register save eliminated.
  52:Core/Src/app_menu.c ****   switch (key)
  32              		.loc 1 52 3 view .LVU1
  33 0000 0538     		subs	r0, r0, #5
  34              	.LVL1:
  35              		.loc 1 52 3 is_stmt 0 view .LVU2
  36 0002 0928     		cmp	r0, #9
  37 0004 18D8     		bhi	.L2
  38 0006 DFE800F0 		tbb	[pc, r0]
  39              	.L4:
  40 000a 05       		.byte	(.L13-.L4)/2
  41 000b 1A       		.byte	(.L14-.L4)/2
  42 000c 07       		.byte	(.L11-.L4)/2
  43 000d 09       		.byte	(.L10-.L4)/2
  44 000e 0B       		.byte	(.L9-.L4)/2
  45 000f 0D       		.byte	(.L8-.L4)/2
  46 0010 0F       		.byte	(.L7-.L4)/2
  47 0011 11       		.byte	(.L6-.L4)/2
  48 0012 13       		.byte	(.L5-.L4)/2
  49 0013 15       		.byte	(.L3-.L4)/2
  50              		.p2align 1
  51              	.L13:
  52 0014 0020     		movs	r0, #0
  53 0016 7047     		bx	lr
  54              	.L11:
  53:Core/Src/app_menu.c ****   {
  54:Core/Src/app_menu.c ****     case MENU_KEY_NUM_0: return 0;
  55:Core/Src/app_menu.c ****     case MENU_KEY_NUM_1: return 1;
  56:Core/Src/app_menu.c ****     case MENU_KEY_NUM_2: return 2;
  55              		.loc 1 56 26 is_stmt 1 view .LVU3
  56              		.loc 1 56 33 is_stmt 0 view .LVU4
  57 0018 0220     		movs	r0, #2
  58 001a 7047     		bx	lr
  59              	.L10:
ARM GAS  /tmp/ccJMlkfl.s 			page 3


  57:Core/Src/app_menu.c ****     case MENU_KEY_NUM_3: return 3;
  60              		.loc 1 57 26 is_stmt 1 view .LVU5
  61              		.loc 1 57 33 is_stmt 0 view .LVU6
  62 001c 0320     		movs	r0, #3
  63 001e 7047     		bx	lr
  64              	.L9:
  58:Core/Src/app_menu.c ****     case MENU_KEY_NUM_4: return 4;
  65              		.loc 1 58 26 is_stmt 1 view .LVU7
  66              		.loc 1 58 33 is_stmt 0 view .LVU8
  67 0020 0420     		movs	r0, #4
  68 0022 7047     		bx	lr
  69              	.L8:
  59:Core/Src/app_menu.c ****     case MENU_KEY_NUM_5: return 5;
  70              		.loc 1 59 26 is_stmt 1 view .LVU9
  71              		.loc 1 59 33 is_stmt 0 view .LVU10
  72 0024 0520     		movs	r0, #5
  73 0026 7047     		bx	lr
  74              	.L7:
  60:Core/Src/app_menu.c ****     case MENU_KEY_NUM_6: return 6;
  75              		.loc 1 60 26 is_stmt 1 view .LVU11
  76              		.loc 1 60 33 is_stmt 0 view .LVU12
  77 0028 0620     		movs	r0, #6
  78 002a 7047     		bx	lr
  79              	.L6:
  61:Core/Src/app_menu.c ****     case MENU_KEY_NUM_7: return 7;
  80              		.loc 1 61 26 is_stmt 1 view .LVU13
  81              		.loc 1 61 33 is_stmt 0 view .LVU14
  82 002c 0720     		movs	r0, #7
  83 002e 7047     		bx	lr
  84              	.L5:
  62:Core/Src/app_menu.c ****     case MENU_KEY_NUM_8: return 8;
  85              		.loc 1 62 26 is_stmt 1 view .LVU15
  86              		.loc 1 62 33 is_stmt 0 view .LVU16
  87 0030 0820     		movs	r0, #8
  88 0032 7047     		bx	lr
  89              	.L3:
  63:Core/Src/app_menu.c ****     case MENU_KEY_NUM_9: return 9;
  90              		.loc 1 63 26 is_stmt 1 view .LVU17
  91              		.loc 1 63 33 is_stmt 0 view .LVU18
  92 0034 0920     		movs	r0, #9
  93 0036 7047     		bx	lr
  94              	.L2:
  64:Core/Src/app_menu.c ****     default:             return -1;
  95              		.loc 1 64 26 is_stmt 1 view .LVU19
  96              		.loc 1 64 33 is_stmt 0 view .LVU20
  97 0038 4FF0FF30 		mov	r0, #-1
  98 003c 7047     		bx	lr
  99              	.L14:
  55:Core/Src/app_menu.c ****     case MENU_KEY_NUM_2: return 2;
 100              		.loc 1 55 33 view .LVU21
 101 003e 0120     		movs	r0, #1
  65:Core/Src/app_menu.c ****   }
  66:Core/Src/app_menu.c **** }
 102              		.loc 1 66 1 view .LVU22
 103 0040 7047     		bx	lr
 104              		.cfi_endproc
 105              	.LFE3:
ARM GAS  /tmp/ccJMlkfl.s 			page 4


 107              		.section	.rodata.Menu_AckStateText.str1.4,"aMS",%progbits,1
 108              		.align	2
 109              	.LC0:
 110 0000 50454E44 		.ascii	"PEND\000"
 110      00
 111 0005 000000   		.align	2
 112              	.LC1:
 113 0008 49444C45 		.ascii	"IDLE\000"
 113      00
 114 000d 000000   		.align	2
 115              	.LC2:
 116 0010 4641494C 		.ascii	"FAIL\000"
 116      00
 117 0015 000000   		.align	2
 118              	.LC3:
 119 0018 4F4B00   		.ascii	"OK\000"
 120              		.section	.text.Menu_AckStateText,"ax",%progbits
 121              		.align	1
 122              		.syntax unified
 123              		.thumb
 124              		.thumb_func
 125              		.fpu softvfp
 127              	Menu_AckStateText:
 128              	.LVL2:
 129              	.LFB7:
  67:Core/Src/app_menu.c **** 
  68:Core/Src/app_menu.c **** static void Menu_FormatMilli(char *out, size_t outSize, int32_t value)
  69:Core/Src/app_menu.c **** {
  70:Core/Src/app_menu.c ****   long integerPart = (long)(value / 1000);
  71:Core/Src/app_menu.c ****   long fracPart = (long)(value % 1000);
  72:Core/Src/app_menu.c **** 
  73:Core/Src/app_menu.c ****   if (fracPart < 0)
  74:Core/Src/app_menu.c ****   {
  75:Core/Src/app_menu.c ****     fracPart = -fracPart;
  76:Core/Src/app_menu.c ****   }
  77:Core/Src/app_menu.c **** 
  78:Core/Src/app_menu.c ****   (void)snprintf(out, outSize, "%ld.%03ld", integerPart, fracPart);
  79:Core/Src/app_menu.c **** }
  80:Core/Src/app_menu.c **** 
  81:Core/Src/app_menu.c **** static void Menu_RenderBlankRows(uint8_t startRow, uint8_t endRow)
  82:Core/Src/app_menu.c **** {
  83:Core/Src/app_menu.c ****   for (uint8_t row = startRow; row <= endRow; ++row)
  84:Core/Src/app_menu.c ****   {
  85:Core/Src/app_menu.c ****     BSP_Lcd_PrintLine(row, "");
  86:Core/Src/app_menu.c ****   }
  87:Core/Src/app_menu.c **** }
  88:Core/Src/app_menu.c **** 
  89:Core/Src/app_menu.c **** static void Menu_RenderParamValue(ParamId_t id, int32_t value, char *out, size_t outSize)
  90:Core/Src/app_menu.c **** {
  91:Core/Src/app_menu.c ****   if ((out == NULL) || (outSize == 0u))
  92:Core/Src/app_menu.c ****   {
  93:Core/Src/app_menu.c ****     return;
  94:Core/Src/app_menu.c ****   }
  95:Core/Src/app_menu.c **** 
  96:Core/Src/app_menu.c ****   if ((id == PARAM_ID_FIXED_FREQ) ||
  97:Core/Src/app_menu.c ****       (id == PARAM_ID_ADAPT_FREQ1) ||
  98:Core/Src/app_menu.c ****       (id == PARAM_ID_ADAPT_FREQ2) ||
ARM GAS  /tmp/ccJMlkfl.s 			page 5


  99:Core/Src/app_menu.c ****       (id == PARAM_ID_ADAPT_FREQ3) ||
 100:Core/Src/app_menu.c ****       (id == PARAM_ID_ADAPT_FREQ4))
 101:Core/Src/app_menu.c ****   {
 102:Core/Src/app_menu.c ****     Menu_FormatMilli(out, outSize, value);
 103:Core/Src/app_menu.c ****     return;
 104:Core/Src/app_menu.c ****   }
 105:Core/Src/app_menu.c **** 
 106:Core/Src/app_menu.c ****   (void)snprintf(out, outSize, "%ld", (long)value);
 107:Core/Src/app_menu.c **** }
 108:Core/Src/app_menu.c **** 
 109:Core/Src/app_menu.c **** static const char *Menu_AckStateText(int32_t state)
 110:Core/Src/app_menu.c **** {
 130              		.loc 1 110 1 is_stmt 1 view -0
 131              		.cfi_startproc
 132              		@ args = 0, pretend = 0, frame = 0
 133              		@ frame_needed = 0, uses_anonymous_args = 0
 134              		@ link register save eliminated.
 111:Core/Src/app_menu.c ****   switch (state)
 135              		.loc 1 111 3 view .LVU24
 136 0000 0228     		cmp	r0, #2
 137 0002 07D0     		beq	.L17
 138 0004 0328     		cmp	r0, #3
 139 0006 07D0     		beq	.L18
 140 0008 0128     		cmp	r0, #1
 141 000a 01D0     		beq	.L20
 112:Core/Src/app_menu.c ****   {
 113:Core/Src/app_menu.c ****     case 1: return "OK";
 114:Core/Src/app_menu.c ****     case 2: return "FAIL";
 115:Core/Src/app_menu.c ****     case 3: return "PEND";
 116:Core/Src/app_menu.c ****     default: return "IDLE";
 142              		.loc 1 116 21 is_stmt 0 view .LVU25
 143 000c 0348     		ldr	r0, .L21
 144              	.LVL3:
 117:Core/Src/app_menu.c ****   }
 118:Core/Src/app_menu.c **** }
 145              		.loc 1 118 1 view .LVU26
 146 000e 7047     		bx	lr
 147              	.LVL4:
 148              	.L20:
 111:Core/Src/app_menu.c ****   {
 149              		.loc 1 111 3 view .LVU27
 150 0010 0348     		ldr	r0, .L21+4
 151              	.LVL5:
 111:Core/Src/app_menu.c ****   {
 152              		.loc 1 111 3 view .LVU28
 153 0012 7047     		bx	lr
 154              	.LVL6:
 155              	.L17:
 114:Core/Src/app_menu.c ****     case 3: return "PEND";
 156              		.loc 1 114 20 view .LVU29
 157 0014 0348     		ldr	r0, .L21+8
 158              	.LVL7:
 114:Core/Src/app_menu.c ****     case 3: return "PEND";
 159              		.loc 1 114 20 view .LVU30
 160 0016 7047     		bx	lr
 161              	.LVL8:
 162              	.L18:
ARM GAS  /tmp/ccJMlkfl.s 			page 6


 115:Core/Src/app_menu.c ****     default: return "IDLE";
 163              		.loc 1 115 20 view .LVU31
 164 0018 0348     		ldr	r0, .L21+12
 165              	.LVL9:
 115:Core/Src/app_menu.c ****     default: return "IDLE";
 166              		.loc 1 115 20 view .LVU32
 167 001a 7047     		bx	lr
 168              	.L22:
 169              		.align	2
 170              	.L21:
 171 001c 08000000 		.word	.LC1
 172 0020 18000000 		.word	.LC3
 173 0024 10000000 		.word	.LC2
 174 0028 00000000 		.word	.LC0
 175              		.cfi_endproc
 176              	.LFE7:
 178              		.section	.text.menu_default_navigate,"ax",%progbits
 179              		.align	1
 180              		.syntax unified
 181              		.thumb
 182              		.thumb_func
 183              		.fpu softvfp
 185              	menu_default_navigate:
 186              	.LVL10:
 187              	.LFB11:
 119:Core/Src/app_menu.c **** 
 120:Core/Src/app_menu.c **** /* 叶子节点暂不指定 key_cb，后续在参数编辑时挂载 */
 121:Core/Src/app_menu.c **** 
 122:Core/Src/app_menu.c **** static const MenuNode_t s_operation_mode =
 123:Core/Src/app_menu.c **** {
 124:Core/Src/app_menu.c ****   .id       = MENU_ID_OPERATION_MODE,
 125:Core/Src/app_menu.c ****   .title    = "OP MODE",
 126:Core/Src/app_menu.c ****   .parent   = &s_operation,
 127:Core/Src/app_menu.c ****   .child    = 0,
 128:Core/Src/app_menu.c ****   .sibling  = &s_operation_param,
 129:Core/Src/app_menu.c ****   .render_cb = APP_Menu_DefaultRender,
 130:Core/Src/app_menu.c ****   .key_cb    = MenuKeyHandler_WorkMode
 131:Core/Src/app_menu.c **** };
 132:Core/Src/app_menu.c **** 
 133:Core/Src/app_menu.c **** static const MenuNode_t s_operation_param =
 134:Core/Src/app_menu.c **** {
 135:Core/Src/app_menu.c ****   .id       = MENU_ID_OPERATION_PARAM,
 136:Core/Src/app_menu.c ****   .title    = "PARAM",
 137:Core/Src/app_menu.c ****   .parent   = &s_operation,
 138:Core/Src/app_menu.c ****   .child    = 0,
 139:Core/Src/app_menu.c ****   .sibling  = 0,
 140:Core/Src/app_menu.c ****   .render_cb = APP_Menu_DefaultRender,
 141:Core/Src/app_menu.c ****   .key_cb    = MenuKeyHandler_OperationParam
 142:Core/Src/app_menu.c **** };
 143:Core/Src/app_menu.c **** 
 144:Core/Src/app_menu.c **** static const MenuNode_t s_operation =
 145:Core/Src/app_menu.c **** {
 146:Core/Src/app_menu.c ****   .id       = MENU_ID_OPERATION,
 147:Core/Src/app_menu.c ****   .title    = "OPERATION",
 148:Core/Src/app_menu.c ****   .parent   = &s_root,
 149:Core/Src/app_menu.c ****   .child    = &s_operation_mode,
 150:Core/Src/app_menu.c ****   .sibling  = &s_function,
ARM GAS  /tmp/ccJMlkfl.s 			page 7


 151:Core/Src/app_menu.c ****   .render_cb = APP_Menu_DefaultRender,
 152:Core/Src/app_menu.c ****   .key_cb    = 0
 153:Core/Src/app_menu.c **** };
 154:Core/Src/app_menu.c **** 
 155:Core/Src/app_menu.c **** static const MenuNode_t s_setting_net =
 156:Core/Src/app_menu.c **** {
 157:Core/Src/app_menu.c ****   .id       = MENU_ID_SETTING_NET,
 158:Core/Src/app_menu.c ****   .title    = "NET",
 159:Core/Src/app_menu.c ****   .parent   = &s_setting,
 160:Core/Src/app_menu.c ****   .child    = 0,
 161:Core/Src/app_menu.c ****   .sibling  = &s_setting_uart,
 162:Core/Src/app_menu.c ****   .render_cb = APP_Menu_DefaultRender,
 163:Core/Src/app_menu.c ****   .key_cb    = 0
 164:Core/Src/app_menu.c **** };
 165:Core/Src/app_menu.c **** 
 166:Core/Src/app_menu.c **** static const MenuNode_t s_setting_uart =
 167:Core/Src/app_menu.c **** {
 168:Core/Src/app_menu.c ****   .id       = MENU_ID_SETTING_UART,
 169:Core/Src/app_menu.c ****   .title    = "UART",
 170:Core/Src/app_menu.c ****   .parent   = &s_setting,
 171:Core/Src/app_menu.c ****   .child    = &s_setting_uart_baud,
 172:Core/Src/app_menu.c ****   .sibling  = 0,
 173:Core/Src/app_menu.c ****   .render_cb = APP_Menu_DefaultRender,
 174:Core/Src/app_menu.c ****   .key_cb    = 0
 175:Core/Src/app_menu.c **** };
 176:Core/Src/app_menu.c **** 
 177:Core/Src/app_menu.c **** static const MenuNode_t s_setting_uart_baud =
 178:Core/Src/app_menu.c **** {
 179:Core/Src/app_menu.c ****   .id       = MENU_ID_SETTING_UART_BAUD,
 180:Core/Src/app_menu.c ****   .title    = "BAUD",
 181:Core/Src/app_menu.c ****   .parent   = &s_setting_uart,
 182:Core/Src/app_menu.c ****   .child    = 0,
 183:Core/Src/app_menu.c ****   .sibling  = 0,
 184:Core/Src/app_menu.c ****   .render_cb = APP_Menu_DefaultRender,
 185:Core/Src/app_menu.c ****   .key_cb    = MenuKeyHandler_UartBaud
 186:Core/Src/app_menu.c **** };
 187:Core/Src/app_menu.c **** 
 188:Core/Src/app_menu.c **** static const MenuNode_t s_setting =
 189:Core/Src/app_menu.c **** {
 190:Core/Src/app_menu.c ****   .id       = MENU_ID_SETTING,
 191:Core/Src/app_menu.c ****   .title    = "SETTING",
 192:Core/Src/app_menu.c ****   .parent   = &s_root,
 193:Core/Src/app_menu.c ****   .child    = &s_setting_net,
 194:Core/Src/app_menu.c ****   .sibling  = 0,
 195:Core/Src/app_menu.c ****   .render_cb = APP_Menu_DefaultRender,
 196:Core/Src/app_menu.c ****   .key_cb    = 0
 197:Core/Src/app_menu.c **** };
 198:Core/Src/app_menu.c **** 
 199:Core/Src/app_menu.c **** static const MenuNode_t s_function =
 200:Core/Src/app_menu.c **** {
 201:Core/Src/app_menu.c ****   .id       = MENU_ID_FUNCTION,
 202:Core/Src/app_menu.c ****   .title    = "FUNCTION",
 203:Core/Src/app_menu.c ****   .parent   = &s_root,
 204:Core/Src/app_menu.c ****   .child    = 0,            /* 示例中暂不展开子菜单 */
 205:Core/Src/app_menu.c ****   .sibling  = &s_setting,
 206:Core/Src/app_menu.c ****   .render_cb = APP_Menu_DefaultRender,
 207:Core/Src/app_menu.c ****   .key_cb    = 0
ARM GAS  /tmp/ccJMlkfl.s 			page 8


 208:Core/Src/app_menu.c **** };
 209:Core/Src/app_menu.c **** 
 210:Core/Src/app_menu.c **** static const MenuNode_t s_root =
 211:Core/Src/app_menu.c **** {
 212:Core/Src/app_menu.c ****   .id       = MENU_ID_ROOT,
 213:Core/Src/app_menu.c ****   .title    = "MAIN",
 214:Core/Src/app_menu.c ****   .parent   = 0,
 215:Core/Src/app_menu.c ****   .child    = &s_operation, /* 第一級：操作 / 功能 / 設置 */
 216:Core/Src/app_menu.c ****   .sibling  = 0,
 217:Core/Src/app_menu.c ****   .render_cb = APP_Menu_DefaultRender,
 218:Core/Src/app_menu.c ****   .key_cb    = 0
 219:Core/Src/app_menu.c **** };
 220:Core/Src/app_menu.c **** 
 221:Core/Src/app_menu.c **** /* -------------------- 狀態機內部變量 -------------------- */
 222:Core/Src/app_menu.c **** 
 223:Core/Src/app_menu.c **** static const MenuNode_t *s_current = &s_root;
 224:Core/Src/app_menu.c **** 
 225:Core/Src/app_menu.c **** /* -------------------- 對外接口實現 -------------------- */
 226:Core/Src/app_menu.c **** 
 227:Core/Src/app_menu.c **** const MenuNode_t *APP_Menu_Init(void)
 228:Core/Src/app_menu.c **** {
 229:Core/Src/app_menu.c ****   /* 上电即显示 0x08 开机显示参数页。 */
 230:Core/Src/app_menu.c ****   s_current = &s_function;
 231:Core/Src/app_menu.c ****   if (s_current->render_cb != 0)
 232:Core/Src/app_menu.c ****   {
 233:Core/Src/app_menu.c ****     s_current->render_cb(s_current);
 234:Core/Src/app_menu.c ****   }
 235:Core/Src/app_menu.c ****   return s_current;
 236:Core/Src/app_menu.c **** }
 237:Core/Src/app_menu.c **** 
 238:Core/Src/app_menu.c **** const MenuNode_t *APP_Menu_GetCurrent(void)
 239:Core/Src/app_menu.c **** {
 240:Core/Src/app_menu.c ****   return s_current;
 241:Core/Src/app_menu.c **** }
 242:Core/Src/app_menu.c **** 
 243:Core/Src/app_menu.c **** void APP_Menu_RefreshCurrent(void)
 244:Core/Src/app_menu.c **** {
 245:Core/Src/app_menu.c ****   if ((s_current != 0) && (s_current->render_cb != 0))
 246:Core/Src/app_menu.c ****   {
 247:Core/Src/app_menu.c ****     s_current->render_cb(s_current);
 248:Core/Src/app_menu.c ****   }
 249:Core/Src/app_menu.c **** }
 250:Core/Src/app_menu.c **** 
 251:Core/Src/app_menu.c **** static void menu_default_navigate(MenuKey_t key)
 252:Core/Src/app_menu.c **** {
 188              		.loc 1 252 1 is_stmt 1 view -0
 189              		.cfi_startproc
 190              		@ args = 0, pretend = 0, frame = 0
 191              		@ frame_needed = 0, uses_anonymous_args = 0
 192              		.loc 1 252 1 is_stmt 0 view .LVU34
 193 0000 08B5     		push	{r3, lr}
 194              	.LCFI0:
 195              		.cfi_def_cfa_offset 8
 196              		.cfi_offset 3, -8
 197              		.cfi_offset 14, -4
 253:Core/Src/app_menu.c ****   if (s_current == 0)
 198              		.loc 1 253 3 is_stmt 1 view .LVU35
ARM GAS  /tmp/ccJMlkfl.s 			page 9


 199              		.loc 1 253 17 is_stmt 0 view .LVU36
 200 0002 184B     		ldr	r3, .L36
 201 0004 1A68     		ldr	r2, [r3]
 202              		.loc 1 253 6 view .LVU37
 203 0006 FAB1     		cbz	r2, .L23
 254:Core/Src/app_menu.c ****   {
 255:Core/Src/app_menu.c ****     return;
 256:Core/Src/app_menu.c ****   }
 257:Core/Src/app_menu.c **** 
 258:Core/Src/app_menu.c ****   switch (key)
 204              		.loc 1 258 3 is_stmt 1 view .LVU38
 205 0008 0138     		subs	r0, r0, #1
 206              	.LVL11:
 207              		.loc 1 258 3 is_stmt 0 view .LVU39
 208 000a 0328     		cmp	r0, #3
 209 000c 16D8     		bhi	.L25
 210 000e DFE800F0 		tbb	[pc, r0]
 211              	.L27:
 212 0012 02       		.byte	(.L30-.L27)/2
 213 0013 11       		.byte	(.L29-.L27)/2
 214 0014 1C       		.byte	(.L28-.L27)/2
 215 0015 22       		.byte	(.L26-.L27)/2
 216              		.p2align 1
 217              	.L30:
 259:Core/Src/app_menu.c ****   {
 260:Core/Src/app_menu.c ****     case MENU_KEY_UP:
 261:Core/Src/app_menu.c ****       /* 查找上一個兄弟節點（需要從父節點開始遍歷） */
 262:Core/Src/app_menu.c ****       if ((s_current->parent != 0) && (s_current->parent->child != 0))
 218              		.loc 1 262 7 is_stmt 1 view .LVU40
 219              		.loc 1 262 21 is_stmt 0 view .LVU41
 220 0016 9368     		ldr	r3, [r2, #8]
 221              		.loc 1 262 10 view .LVU42
 222 0018 83B1     		cbz	r3, .L25
 223              		.loc 1 262 57 discriminator 1 view .LVU43
 224 001a DB68     		ldr	r3, [r3, #12]
 225              		.loc 1 262 36 discriminator 1 view .LVU44
 226 001c 73B1     		cbz	r3, .L25
 227              	.LBB2:
 263:Core/Src/app_menu.c ****       {
 264:Core/Src/app_menu.c ****         const MenuNode_t *node = s_current->parent->child;
 265:Core/Src/app_menu.c ****         const MenuNode_t *prev = 0;
 228              		.loc 1 265 27 view .LVU45
 229 001e 0021     		movs	r1, #0
 230 0020 01E0     		b	.L31
 231              	.LVL12:
 232              	.L33:
 266:Core/Src/app_menu.c ****         while ((node != 0) && (node != s_current))
 267:Core/Src/app_menu.c ****         {
 268:Core/Src/app_menu.c ****           prev = node;
 233              		.loc 1 268 11 is_stmt 1 view .LVU46
 269:Core/Src/app_menu.c ****           node = node->sibling;
 234              		.loc 1 269 11 view .LVU47
 268:Core/Src/app_menu.c ****           node = node->sibling;
 235              		.loc 1 268 16 is_stmt 0 view .LVU48
 236 0022 1946     		mov	r1, r3
 237              		.loc 1 269 16 view .LVU49
 238 0024 1B69     		ldr	r3, [r3, #16]
ARM GAS  /tmp/ccJMlkfl.s 			page 10


 239              	.LVL13:
 240              	.L31:
 266:Core/Src/app_menu.c ****         while ((node != 0) && (node != s_current))
 241              		.loc 1 266 15 is_stmt 1 view .LVU50
 242 0026 0BB1     		cbz	r3, .L32
 266:Core/Src/app_menu.c ****         while ((node != 0) && (node != s_current))
 243              		.loc 1 266 28 is_stmt 0 discriminator 1 view .LVU51
 244 0028 9A42     		cmp	r2, r3
 245 002a FAD1     		bne	.L33
 246              	.L32:
 270:Core/Src/app_menu.c ****         }
 271:Core/Src/app_menu.c ****         if (prev != 0)
 247              		.loc 1 271 9 is_stmt 1 view .LVU52
 248              		.loc 1 271 12 is_stmt 0 view .LVU53
 249 002c 31B1     		cbz	r1, .L25
 272:Core/Src/app_menu.c ****         {
 273:Core/Src/app_menu.c ****           s_current = prev;
 250              		.loc 1 273 11 is_stmt 1 view .LVU54
 251              		.loc 1 273 21 is_stmt 0 view .LVU55
 252 002e 0D4B     		ldr	r3, .L36
 253              	.LVL14:
 254              		.loc 1 273 21 view .LVU56
 255 0030 1960     		str	r1, [r3]
 256 0032 03E0     		b	.L25
 257              	.LVL15:
 258              	.L29:
 259              		.loc 1 273 21 view .LVU57
 260              	.LBE2:
 274:Core/Src/app_menu.c ****         }
 275:Core/Src/app_menu.c ****       }
 276:Core/Src/app_menu.c ****       break;
 277:Core/Src/app_menu.c **** 
 278:Core/Src/app_menu.c ****     case MENU_KEY_DOWN:
 279:Core/Src/app_menu.c ****       if (s_current->sibling != 0)
 261              		.loc 1 279 7 is_stmt 1 view .LVU58
 262              		.loc 1 279 20 is_stmt 0 view .LVU59
 263 0034 1369     		ldr	r3, [r2, #16]
 264              		.loc 1 279 10 view .LVU60
 265 0036 0BB1     		cbz	r3, .L25
 280:Core/Src/app_menu.c ****       {
 281:Core/Src/app_menu.c ****         s_current = s_current->sibling;
 266              		.loc 1 281 9 is_stmt 1 view .LVU61
 267              		.loc 1 281 19 is_stmt 0 view .LVU62
 268 0038 0A4A     		ldr	r2, .L36
 269 003a 1360     		str	r3, [r2]
 270              	.L25:
 282:Core/Src/app_menu.c ****       }
 283:Core/Src/app_menu.c ****       break;
 284:Core/Src/app_menu.c **** 
 285:Core/Src/app_menu.c ****     case MENU_KEY_OK:
 286:Core/Src/app_menu.c ****       if (s_current->child != 0)
 287:Core/Src/app_menu.c ****       {
 288:Core/Src/app_menu.c ****         s_current = s_current->child;
 289:Core/Src/app_menu.c ****       }
 290:Core/Src/app_menu.c ****       break;
 291:Core/Src/app_menu.c **** 
 292:Core/Src/app_menu.c ****     case MENU_KEY_BACK:
ARM GAS  /tmp/ccJMlkfl.s 			page 11


 293:Core/Src/app_menu.c ****       if (s_current->parent != 0)
 294:Core/Src/app_menu.c ****       {
 295:Core/Src/app_menu.c ****         s_current = s_current->parent;
 296:Core/Src/app_menu.c ****       }
 297:Core/Src/app_menu.c ****       break;
 298:Core/Src/app_menu.c **** 
 299:Core/Src/app_menu.c ****     default:
 300:Core/Src/app_menu.c ****       /* do nothing */
 301:Core/Src/app_menu.c ****       break;
 302:Core/Src/app_menu.c ****   }
 303:Core/Src/app_menu.c **** 
 304:Core/Src/app_menu.c ****   if ((s_current != 0) && (s_current->render_cb != 0))
 271              		.loc 1 304 3 is_stmt 1 view .LVU63
 272              		.loc 1 304 18 is_stmt 0 view .LVU64
 273 003c 094B     		ldr	r3, .L36
 274 003e 1868     		ldr	r0, [r3]
 275              		.loc 1 304 6 view .LVU65
 276 0040 10B1     		cbz	r0, .L23
 277              		.loc 1 304 37 discriminator 1 view .LVU66
 278 0042 4369     		ldr	r3, [r0, #20]
 279              		.loc 1 304 24 discriminator 1 view .LVU67
 280 0044 03B1     		cbz	r3, .L23
 305:Core/Src/app_menu.c ****   {
 306:Core/Src/app_menu.c ****     s_current->render_cb(s_current);
 281              		.loc 1 306 5 is_stmt 1 view .LVU68
 282 0046 9847     		blx	r3
 283              	.LVL16:
 284              	.L23:
 307:Core/Src/app_menu.c ****   }
 308:Core/Src/app_menu.c **** }
 285              		.loc 1 308 1 is_stmt 0 view .LVU69
 286 0048 08BD     		pop	{r3, pc}
 287              	.L28:
 286:Core/Src/app_menu.c ****       {
 288              		.loc 1 286 7 is_stmt 1 view .LVU70
 286:Core/Src/app_menu.c ****       {
 289              		.loc 1 286 20 is_stmt 0 view .LVU71
 290 004a D368     		ldr	r3, [r2, #12]
 286:Core/Src/app_menu.c ****       {
 291              		.loc 1 286 10 view .LVU72
 292 004c 002B     		cmp	r3, #0
 293 004e F5D0     		beq	.L25
 288:Core/Src/app_menu.c ****       }
 294              		.loc 1 288 9 is_stmt 1 view .LVU73
 288:Core/Src/app_menu.c ****       }
 295              		.loc 1 288 19 is_stmt 0 view .LVU74
 296 0050 044A     		ldr	r2, .L36
 297 0052 1360     		str	r3, [r2]
 298 0054 F2E7     		b	.L25
 299              	.L26:
 293:Core/Src/app_menu.c ****       {
 300              		.loc 1 293 7 is_stmt 1 view .LVU75
 293:Core/Src/app_menu.c ****       {
 301              		.loc 1 293 20 is_stmt 0 view .LVU76
 302 0056 9368     		ldr	r3, [r2, #8]
 293:Core/Src/app_menu.c ****       {
 303              		.loc 1 293 10 view .LVU77
ARM GAS  /tmp/ccJMlkfl.s 			page 12


 304 0058 002B     		cmp	r3, #0
 305 005a EFD0     		beq	.L25
 295:Core/Src/app_menu.c ****       }
 306              		.loc 1 295 9 is_stmt 1 view .LVU78
 295:Core/Src/app_menu.c ****       }
 307              		.loc 1 295 19 is_stmt 0 view .LVU79
 308 005c 014A     		ldr	r2, .L36
 309 005e 1360     		str	r3, [r2]
 310 0060 ECE7     		b	.L25
 311              	.L37:
 312 0062 00BF     		.align	2
 313              	.L36:
 314 0064 00000000 		.word	.LANCHOR0
 315              		.cfi_endproc
 316              	.LFE11:
 318              		.section	.text.MenuKeyHandler_UartBaud,"ax",%progbits
 319              		.align	1
 320              		.syntax unified
 321              		.thumb
 322              		.thumb_func
 323              		.fpu softvfp
 325              	MenuKeyHandler_UartBaud:
 326              	.LVL17:
 327              	.LFB15:
 309:Core/Src/app_menu.c **** 
 310:Core/Src/app_menu.c **** const MenuNode_t *APP_Menu_HandleKey(MenuKey_t key)
 311:Core/Src/app_menu.c **** {
 312:Core/Src/app_menu.c ****   if (key == MENU_KEY_NONE)
 313:Core/Src/app_menu.c ****   {
 314:Core/Src/app_menu.c ****     return s_current;
 315:Core/Src/app_menu.c ****   }
 316:Core/Src/app_menu.c **** 
 317:Core/Src/app_menu.c ****   /* 先讓當前節點有機會“攔截”按鍵（例如在參數編輯模式） */
 318:Core/Src/app_menu.c ****   if ((s_current != 0) && (s_current->key_cb != 0))
 319:Core/Src/app_menu.c ****   {
 320:Core/Src/app_menu.c ****     int handled = s_current->key_cb(key);
 321:Core/Src/app_menu.c ****     if (handled != 0)
 322:Core/Src/app_menu.c ****     {
 323:Core/Src/app_menu.c ****       if (s_current->render_cb != 0)
 324:Core/Src/app_menu.c ****       {
 325:Core/Src/app_menu.c ****         s_current->render_cb(s_current);
 326:Core/Src/app_menu.c ****       }
 327:Core/Src/app_menu.c ****       return s_current;
 328:Core/Src/app_menu.c ****     }
 329:Core/Src/app_menu.c ****   }
 330:Core/Src/app_menu.c **** 
 331:Core/Src/app_menu.c ****   /* 未被攔截則執行默認導航行為 */
 332:Core/Src/app_menu.c ****   menu_default_navigate(key);
 333:Core/Src/app_menu.c ****   return s_current;
 334:Core/Src/app_menu.c **** }
 335:Core/Src/app_menu.c **** 
 336:Core/Src/app_menu.c **** void APP_Menu_DefaultRender(const MenuNode_t *node)
 337:Core/Src/app_menu.c **** {
 338:Core/Src/app_menu.c ****   if (node == 0)
 339:Core/Src/app_menu.c ****   {
 340:Core/Src/app_menu.c ****     return;
 341:Core/Src/app_menu.c ****   }
ARM GAS  /tmp/ccJMlkfl.s 			page 13


 342:Core/Src/app_menu.c **** 
 343:Core/Src/app_menu.c ****   /* 行 0 显示当前菜单标题 */
 344:Core/Src/app_menu.c ****   BSP_Lcd_PrintLine(0, node->title);
 345:Core/Src/app_menu.c **** 
 346:Core/Src/app_menu.c ****   /* 默认先清理子行，防止页面切换残留 */
 347:Core/Src/app_menu.c ****   Menu_RenderBlankRows(1, 7);
 348:Core/Src/app_menu.c **** 
 349:Core/Src/app_menu.c ****   /* 如果是“串口设置 -> 波特率”节点，顺便在第 1 行显示当前波特率数值
 350:Core/Src/app_menu.c ****   if (node->id == MENU_ID_SETTING_UART_BAUD)
 351:Core/Src/app_menu.c ****   {
 352:Core/Src/app_menu.c ****     int32_t baud = 0;
 353:Core/Src/app_menu.c ****     if (APP_ParamDict_GetValue(PARAM_ID_UART_BAUDRATE, &baud))
 354:Core/Src/app_menu.c ****     {
 355:Core/Src/app_menu.c ****       char buf[32];
 356:Core/Src/app_menu.c ****       (void)snprintf(buf, sizeof(buf), "BAUD:%ld", (long)baud);
 357:Core/Src/app_menu.c ****       BSP_Lcd_PrintLine(1, buf);
 358:Core/Src/app_menu.c ****     }
 359:Core/Src/app_menu.c ****     return;
 360:Core/Src/app_menu.c ****   }
 361:Core/Src/app_menu.c **** 
 362:Core/Src/app_menu.c ****   if (node->id == MENU_ID_OPERATION_MODE)
 363:Core/Src/app_menu.c ****   {
 364:Core/Src/app_menu.c ****     int32_t mode = 0;
 365:Core/Src/app_menu.c ****     if (APP_ParamDict_GetValue(PARAM_ID_WORK_MODE, &mode))
 366:Core/Src/app_menu.c ****     {
 367:Core/Src/app_menu.c ****       char buf[32];
 368:Core/Src/app_menu.c ****       (void)snprintf(buf, sizeof(buf), "MODE:%ld", (long)mode);
 369:Core/Src/app_menu.c ****       BSP_Lcd_PrintLine(1, buf);
 370:Core/Src/app_menu.c ****     }
 371:Core/Src/app_menu.c ****     return;
 372:Core/Src/app_menu.c ****   }
 373:Core/Src/app_menu.c **** 
 374:Core/Src/app_menu.c ****   if ((node->id == MENU_ID_ROOT) || (node->id == MENU_ID_FUNCTION))
 375:Core/Src/app_menu.c ****   {
 376:Core/Src/app_menu.c ****     int32_t hour = 0, minute = 0, second = 0;
 377:Core/Src/app_menu.c ****     int32_t netJoin = 0;
 378:Core/Src/app_menu.c ****     int32_t waveform = 0, bandwidth = 0, hopMode = 0;
 379:Core/Src/app_menu.c ****     int32_t fixedFreq = 0, f1 = 0, f2 = 0, f3 = 0, f4 = 0;
 380:Core/Src/app_menu.c ****     int32_t spatialFilter = 0, syncMode = 0;
 381:Core/Src/app_menu.c ****     int32_t txPower = 0, txAtten = 0;
 382:Core/Src/app_menu.c ****     int32_t ackState = 0, ackCmd = 0;
 383:Core/Src/app_menu.c **** 
 384:Core/Src/app_menu.c ****     (void)APP_ParamDict_GetValue(PARAM_ID_TIME_HOUR, &hour);
 385:Core/Src/app_menu.c ****     (void)APP_ParamDict_GetValue(PARAM_ID_TIME_MINUTE, &minute);
 386:Core/Src/app_menu.c ****     (void)APP_ParamDict_GetValue(PARAM_ID_TIME_SECOND, &second);
 387:Core/Src/app_menu.c ****     (void)APP_ParamDict_GetValue(PARAM_ID_NET_JOIN_STATE, &netJoin);
 388:Core/Src/app_menu.c ****     (void)APP_ParamDict_GetValue(PARAM_ID_WAVEFORM_GEAR, &waveform);
 389:Core/Src/app_menu.c ****     (void)APP_ParamDict_GetValue(PARAM_ID_SIGNAL_BANDWIDTH, &bandwidth);
 390:Core/Src/app_menu.c ****     (void)APP_ParamDict_GetValue(PARAM_ID_FREQ_HOP_MODE, &hopMode);
 391:Core/Src/app_menu.c ****     (void)APP_ParamDict_GetValue(PARAM_ID_FIXED_FREQ, &fixedFreq);
 392:Core/Src/app_menu.c ****     (void)APP_ParamDict_GetValue(PARAM_ID_ADAPT_FREQ1, &f1);
 393:Core/Src/app_menu.c ****     (void)APP_ParamDict_GetValue(PARAM_ID_ADAPT_FREQ2, &f2);
 394:Core/Src/app_menu.c ****     (void)APP_ParamDict_GetValue(PARAM_ID_ADAPT_FREQ3, &f3);
 395:Core/Src/app_menu.c ****     (void)APP_ParamDict_GetValue(PARAM_ID_ADAPT_FREQ4, &f4);
 396:Core/Src/app_menu.c ****     (void)APP_ParamDict_GetValue(PARAM_ID_SPATIAL_FILTER, &spatialFilter);
 397:Core/Src/app_menu.c ****     (void)APP_ParamDict_GetValue(PARAM_ID_SYNC_MODE, &syncMode);
 398:Core/Src/app_menu.c ****     (void)APP_ParamDict_GetValue(PARAM_ID_TX_POWER, &txPower);
ARM GAS  /tmp/ccJMlkfl.s 			page 14


 399:Core/Src/app_menu.c ****     (void)APP_ParamDict_GetValue(PARAM_ID_TX_POWER_ATTEN, &txAtten);
 400:Core/Src/app_menu.c ****     (void)APP_ParamDict_GetValue(PARAM_ID_UART_ACK_STATE, &ackState);
 401:Core/Src/app_menu.c ****     (void)APP_ParamDict_GetValue(PARAM_ID_UART_ACK_CMD, &ackCmd);
 402:Core/Src/app_menu.c **** 
 403:Core/Src/app_menu.c ****     {
 404:Core/Src/app_menu.c ****       char buf[32];
 405:Core/Src/app_menu.c ****       (void)snprintf(buf, sizeof(buf), "T:%02ld:%02ld:%02ld N:%ld",
 406:Core/Src/app_menu.c ****                      (long)hour, (long)minute, (long)second, (long)netJoin);
 407:Core/Src/app_menu.c ****       BSP_Lcd_PrintLine(1, buf);
 408:Core/Src/app_menu.c ****     }
 409:Core/Src/app_menu.c **** 
 410:Core/Src/app_menu.c ****     {
 411:Core/Src/app_menu.c ****       char buf[32];
 412:Core/Src/app_menu.c ****       (void)snprintf(buf, sizeof(buf), "W:%ld B:%ld H:%ld",
 413:Core/Src/app_menu.c ****                      (long)waveform, (long)bandwidth, (long)hopMode);
 414:Core/Src/app_menu.c ****       BSP_Lcd_PrintLine(2, buf);
 415:Core/Src/app_menu.c ****     }
 416:Core/Src/app_menu.c **** 
 417:Core/Src/app_menu.c ****     {
 418:Core/Src/app_menu.c ****       char fbuf[16];
 419:Core/Src/app_menu.c ****       char buf[32];
 420:Core/Src/app_menu.c ****       Menu_FormatMilli(fbuf, sizeof(fbuf), fixedFreq);
 421:Core/Src/app_menu.c ****       (void)snprintf(buf, sizeof(buf), "FIX:%s", fbuf);
 422:Core/Src/app_menu.c ****       BSP_Lcd_PrintLine(3, buf);
 423:Core/Src/app_menu.c ****     }
 424:Core/Src/app_menu.c **** 
 425:Core/Src/app_menu.c ****     {
 426:Core/Src/app_menu.c ****       char fbuf1[16];
 427:Core/Src/app_menu.c ****       char fbuf2[16];
 428:Core/Src/app_menu.c ****       char buf[32];
 429:Core/Src/app_menu.c ****       Menu_FormatMilli(fbuf1, sizeof(fbuf1), f1);
 430:Core/Src/app_menu.c ****       Menu_FormatMilli(fbuf2, sizeof(fbuf2), f2);
 431:Core/Src/app_menu.c ****       (void)snprintf(buf, sizeof(buf), "A1:%.7s A2:%.7s", fbuf1, fbuf2);
 432:Core/Src/app_menu.c ****       BSP_Lcd_PrintLine(4, buf);
 433:Core/Src/app_menu.c ****     }
 434:Core/Src/app_menu.c **** 
 435:Core/Src/app_menu.c ****     {
 436:Core/Src/app_menu.c ****       char fbuf3[16];
 437:Core/Src/app_menu.c ****       char fbuf4[16];
 438:Core/Src/app_menu.c ****       char buf[32];
 439:Core/Src/app_menu.c ****       Menu_FormatMilli(fbuf3, sizeof(fbuf3), f3);
 440:Core/Src/app_menu.c ****       Menu_FormatMilli(fbuf4, sizeof(fbuf4), f4);
 441:Core/Src/app_menu.c ****       (void)snprintf(buf, sizeof(buf), "A3:%.7s A4:%.7s", fbuf3, fbuf4);
 442:Core/Src/app_menu.c ****       BSP_Lcd_PrintLine(5, buf);
 443:Core/Src/app_menu.c ****     }
 444:Core/Src/app_menu.c **** 
 445:Core/Src/app_menu.c ****     {
 446:Core/Src/app_menu.c ****       char buf[32];
 447:Core/Src/app_menu.c ****       (void)snprintf(buf, sizeof(buf), "P:%ld ATT:%ld SF:%ld",
 448:Core/Src/app_menu.c ****                      (long)txPower, (long)txAtten, (long)spatialFilter);
 449:Core/Src/app_menu.c ****       BSP_Lcd_PrintLine(6, buf);
 450:Core/Src/app_menu.c ****     }
 451:Core/Src/app_menu.c **** 
 452:Core/Src/app_menu.c ****     {
 453:Core/Src/app_menu.c ****       char buf[32];
 454:Core/Src/app_menu.c ****       (void)snprintf(buf, sizeof(buf), "SY:%ld ACK:%s C:%02lX",
 455:Core/Src/app_menu.c ****                      (long)syncMode,
ARM GAS  /tmp/ccJMlkfl.s 			page 15


 456:Core/Src/app_menu.c ****                      Menu_AckStateText(ackState),
 457:Core/Src/app_menu.c ****                      (unsigned long)((uint32_t)ackCmd & 0xFFu));
 458:Core/Src/app_menu.c ****       BSP_Lcd_PrintLine(7, buf);
 459:Core/Src/app_menu.c ****     }
 460:Core/Src/app_menu.c ****     return;
 461:Core/Src/app_menu.c ****   }
 462:Core/Src/app_menu.c **** 
 463:Core/Src/app_menu.c ****   if (node->id == MENU_ID_OPERATION_PARAM)
 464:Core/Src/app_menu.c ****   {
 465:Core/Src/app_menu.c ****     const uint8_t itemCount = (uint8_t)(sizeof(s_editableParams) / sizeof(s_editableParams[0]));
 466:Core/Src/app_menu.c ****     const EditableParamItem_t *item;
 467:Core/Src/app_menu.c ****     int32_t current = 0;
 468:Core/Src/app_menu.c **** 
 469:Core/Src/app_menu.c ****     if (s_paramEditIndex >= itemCount)
 470:Core/Src/app_menu.c ****     {
 471:Core/Src/app_menu.c ****       s_paramEditIndex = 0u;
 472:Core/Src/app_menu.c ****     }
 473:Core/Src/app_menu.c **** 
 474:Core/Src/app_menu.c ****     item = &s_editableParams[s_paramEditIndex];
 475:Core/Src/app_menu.c ****     (void)APP_ParamDict_GetValue(item->id, &current);
 476:Core/Src/app_menu.c **** 
 477:Core/Src/app_menu.c ****     if (s_paramInputDigits == 0u)
 478:Core/Src/app_menu.c ****     {
 479:Core/Src/app_menu.c ****       s_paramInputValue = current;
 480:Core/Src/app_menu.c ****     }
 481:Core/Src/app_menu.c **** 
 482:Core/Src/app_menu.c ****     {
 483:Core/Src/app_menu.c ****       char valueBuf[16];
 484:Core/Src/app_menu.c ****       char buf[32];
 485:Core/Src/app_menu.c ****       Menu_RenderParamValue(item->id, current, valueBuf, sizeof(valueBuf));
 486:Core/Src/app_menu.c ****       (void)snprintf(buf, sizeof(buf), "%u/%u %s",
 487:Core/Src/app_menu.c ****                      (unsigned int)(s_paramEditIndex + 1u),
 488:Core/Src/app_menu.c ****                      (unsigned int)itemCount,
 489:Core/Src/app_menu.c ****                      item->name);
 490:Core/Src/app_menu.c ****       BSP_Lcd_PrintLine(1, buf);
 491:Core/Src/app_menu.c ****       (void)snprintf(buf, sizeof(buf), "CUR:%s", valueBuf);
 492:Core/Src/app_menu.c ****       BSP_Lcd_PrintLine(2, buf);
 493:Core/Src/app_menu.c ****     }
 494:Core/Src/app_menu.c **** 
 495:Core/Src/app_menu.c ****     {
 496:Core/Src/app_menu.c ****       char inputBuf[16];
 497:Core/Src/app_menu.c ****       char buf[32];
 498:Core/Src/app_menu.c ****       Menu_RenderParamValue(item->id, s_paramInputValue, inputBuf, sizeof(inputBuf));
 499:Core/Src/app_menu.c ****       (void)snprintf(buf, sizeof(buf), "IN :%s", inputBuf);
 500:Core/Src/app_menu.c ****       BSP_Lcd_PrintLine(3, buf);
 501:Core/Src/app_menu.c ****     }
 502:Core/Src/app_menu.c **** 
 503:Core/Src/app_menu.c ****     BSP_Lcd_PrintLine(4, "UP/DN:sel NUM:in");
 504:Core/Src/app_menu.c ****     BSP_Lcd_PrintLine(5, "OK:apply *:clr");
 505:Core/Src/app_menu.c ****     BSP_Lcd_PrintLine(6, "#:backspace");
 506:Core/Src/app_menu.c ****     return;
 507:Core/Src/app_menu.c ****   }
 508:Core/Src/app_menu.c **** }
 509:Core/Src/app_menu.c **** 
 510:Core/Src/app_menu.c **** /* 工作模式编辑逻辑示例：
 511:Core/Src/app_menu.c ****  * - 在“操作模式设置”菜单下，UP/DOWN 在 0~3 范围内切换
 512:Core/Src/app_menu.c ****  * - OK / BACK 不拦截，交给默认导航
ARM GAS  /tmp/ccJMlkfl.s 			page 16


 513:Core/Src/app_menu.c ****  */
 514:Core/Src/app_menu.c **** static int MenuKeyHandler_WorkMode(MenuKey_t key)
 515:Core/Src/app_menu.c **** {
 516:Core/Src/app_menu.c ****   int32_t current = 0;
 517:Core/Src/app_menu.c ****   if (!APP_ParamDict_GetValue(PARAM_ID_WORK_MODE, &current))
 518:Core/Src/app_menu.c ****   {
 519:Core/Src/app_menu.c ****     return 0;
 520:Core/Src/app_menu.c ****   }
 521:Core/Src/app_menu.c **** 
 522:Core/Src/app_menu.c ****   if (key == MENU_KEY_UP)
 523:Core/Src/app_menu.c ****   {
 524:Core/Src/app_menu.c ****     if (current > 0)
 525:Core/Src/app_menu.c ****     {
 526:Core/Src/app_menu.c ****       int32_t next = current - 1;
 527:Core/Src/app_menu.c ****       if (APP_ParamDict_TrySetValue(PARAM_ID_WORK_MODE, next))
 528:Core/Src/app_menu.c ****       {
 529:Core/Src/app_menu.c ****         (void)APP_ParamUpdate_Request(PARAM_ID_WORK_MODE);
 530:Core/Src/app_menu.c ****       }
 531:Core/Src/app_menu.c ****     }
 532:Core/Src/app_menu.c ****     return 1;
 533:Core/Src/app_menu.c ****   }
 534:Core/Src/app_menu.c **** 
 535:Core/Src/app_menu.c ****   if (key == MENU_KEY_DOWN)
 536:Core/Src/app_menu.c ****   {
 537:Core/Src/app_menu.c ****     if (current < 3)
 538:Core/Src/app_menu.c ****     {
 539:Core/Src/app_menu.c ****       int32_t next = current + 1;
 540:Core/Src/app_menu.c ****       if (APP_ParamDict_TrySetValue(PARAM_ID_WORK_MODE, next))
 541:Core/Src/app_menu.c ****       {
 542:Core/Src/app_menu.c ****         (void)APP_ParamUpdate_Request(PARAM_ID_WORK_MODE);
 543:Core/Src/app_menu.c ****       }
 544:Core/Src/app_menu.c ****     }
 545:Core/Src/app_menu.c ****     return 1;
 546:Core/Src/app_menu.c ****   }
 547:Core/Src/app_menu.c **** 
 548:Core/Src/app_menu.c ****   return 0;
 549:Core/Src/app_menu.c **** }
 550:Core/Src/app_menu.c **** 
 551:Core/Src/app_menu.c **** /* 串口波特率编辑逻辑示例：
 552:Core/Src/app_menu.c ****  * - 在“波特率”菜单下，UP/DOWN 用于在几个常见波特率间切换
 553:Core/Src/app_menu.c ****  * - OK / BACK 目前不做特殊处理，返回 0 让默認導航生效
 554:Core/Src/app_menu.c ****  */
 555:Core/Src/app_menu.c **** static int MenuKeyHandler_UartBaud(MenuKey_t key)
 556:Core/Src/app_menu.c **** {
 328              		.loc 1 556 1 is_stmt 1 view -0
 329              		.cfi_startproc
 330              		@ args = 0, pretend = 0, frame = 8
 331              		@ frame_needed = 0, uses_anonymous_args = 0
 332              		.loc 1 556 1 is_stmt 0 view .LVU81
 333 0000 10B5     		push	{r4, lr}
 334              	.LCFI1:
 335              		.cfi_def_cfa_offset 8
 336              		.cfi_offset 4, -8
 337              		.cfi_offset 14, -4
 338 0002 82B0     		sub	sp, sp, #8
 339              	.LCFI2:
 340              		.cfi_def_cfa_offset 16
ARM GAS  /tmp/ccJMlkfl.s 			page 17


 341 0004 0446     		mov	r4, r0
 557:Core/Src/app_menu.c ****   int32_t current = 0;
 342              		.loc 1 557 3 is_stmt 1 view .LVU82
 343              		.loc 1 557 11 is_stmt 0 view .LVU83
 344 0006 0023     		movs	r3, #0
 345 0008 0193     		str	r3, [sp, #4]
 558:Core/Src/app_menu.c ****   if (!APP_ParamDict_GetValue(PARAM_ID_UART_BAUDRATE, &current))
 346              		.loc 1 558 3 is_stmt 1 view .LVU84
 347              		.loc 1 558 8 is_stmt 0 view .LVU85
 348 000a 01A9     		add	r1, sp, #4
 349 000c 0320     		movs	r0, #3
 350              	.LVL18:
 351              		.loc 1 558 8 view .LVU86
 352 000e FFF7FEFF 		bl	APP_ParamDict_GetValue
 353              	.LVL19:
 354              		.loc 1 558 6 view .LVU87
 355 0012 D0B1     		cbz	r0, .L38
 356              	.LBB3:
 559:Core/Src/app_menu.c ****   {
 560:Core/Src/app_menu.c ****     return 0;
 561:Core/Src/app_menu.c ****   }
 562:Core/Src/app_menu.c **** 
 563:Core/Src/app_menu.c ****   /* 常见波特率表 */
 564:Core/Src/app_menu.c ****   static const int32_t baudList[] = {9600, 19200, 38400, 57600, 115200, 230400};
 565:Core/Src/app_menu.c ****   const uint32_t baudCount = (uint32_t)(sizeof(baudList) / sizeof(baudList[0]));
 566:Core/Src/app_menu.c **** 
 567:Core/Src/app_menu.c ****   /* 找到当前所在索引 */
 568:Core/Src/app_menu.c ****   uint32_t index = 0U;
 569:Core/Src/app_menu.c ****   for (uint32_t i = 0U; i < baudCount; ++i)
 357              		.loc 1 569 17 view .LVU88
 358 0014 0023     		movs	r3, #0
 359              	.L39:
 360              	.LVL20:
 361              		.loc 1 569 25 is_stmt 1 discriminator 1 view .LVU89
 362              		.loc 1 569 3 is_stmt 0 discriminator 1 view .LVU90
 363 0016 052B     		cmp	r3, #5
 364 0018 07D8     		bhi	.L49
 570:Core/Src/app_menu.c ****   {
 571:Core/Src/app_menu.c ****     if (baudList[i] == current)
 365              		.loc 1 571 5 is_stmt 1 view .LVU91
 366              		.loc 1 571 17 is_stmt 0 view .LVU92
 367 001a 0F4A     		ldr	r2, .L52
 368 001c 52F82310 		ldr	r1, [r2, r3, lsl #2]
 369              		.loc 1 571 21 view .LVU93
 370 0020 019A     		ldr	r2, [sp, #4]
 371              		.loc 1 571 8 view .LVU94
 372 0022 9142     		cmp	r1, r2
 373 0024 02D0     		beq	.L41
 569:Core/Src/app_menu.c ****   {
 374              		.loc 1 569 40 is_stmt 1 discriminator 2 view .LVU95
 375 0026 0133     		adds	r3, r3, #1
 376              	.LVL21:
 569:Core/Src/app_menu.c ****   {
 377              		.loc 1 569 40 is_stmt 0 discriminator 2 view .LVU96
 378 0028 F5E7     		b	.L39
 379              	.L49:
 569:Core/Src/app_menu.c ****   {
ARM GAS  /tmp/ccJMlkfl.s 			page 18


 380              		.loc 1 569 40 discriminator 2 view .LVU97
 381              	.LBE3:
 568:Core/Src/app_menu.c ****   for (uint32_t i = 0U; i < baudCount; ++i)
 382              		.loc 1 568 12 view .LVU98
 383 002a 0023     		movs	r3, #0
 384              	.LVL22:
 385              	.L41:
 572:Core/Src/app_menu.c ****     {
 573:Core/Src/app_menu.c ****       index = i;
 574:Core/Src/app_menu.c ****       break;
 575:Core/Src/app_menu.c ****     }
 576:Core/Src/app_menu.c ****   }
 577:Core/Src/app_menu.c **** 
 578:Core/Src/app_menu.c ****   int handled = 0;
 386              		.loc 1 578 3 is_stmt 1 view .LVU99
 579:Core/Src/app_menu.c **** 
 580:Core/Src/app_menu.c ****   if (key == MENU_KEY_UP)
 387              		.loc 1 580 3 view .LVU100
 388              		.loc 1 580 6 is_stmt 0 view .LVU101
 389 002c 012C     		cmp	r4, #1
 390 002e 03D0     		beq	.L50
 581:Core/Src/app_menu.c ****   {
 582:Core/Src/app_menu.c ****     if (index > 0U)
 583:Core/Src/app_menu.c ****     {
 584:Core/Src/app_menu.c ****       index--;
 585:Core/Src/app_menu.c ****     }
 586:Core/Src/app_menu.c ****     handled = 1;
 587:Core/Src/app_menu.c ****   }
 588:Core/Src/app_menu.c ****   else if (key == MENU_KEY_DOWN)
 391              		.loc 1 588 8 is_stmt 1 view .LVU102
 392              		.loc 1 588 11 is_stmt 0 view .LVU103
 393 0030 022C     		cmp	r4, #2
 394 0032 0CD0     		beq	.L51
 589:Core/Src/app_menu.c ****   {
 590:Core/Src/app_menu.c ****     if ((index + 1U) < baudCount)
 591:Core/Src/app_menu.c ****     {
 592:Core/Src/app_menu.c ****       index++;
 593:Core/Src/app_menu.c ****     }
 594:Core/Src/app_menu.c ****     handled = 1;
 595:Core/Src/app_menu.c ****   }
 596:Core/Src/app_menu.c ****   else
 597:Core/Src/app_menu.c ****   {
 598:Core/Src/app_menu.c ****     /* 其他按鍵暫不攔截，交給默認導航（例如 BACK 返回上級） */
 599:Core/Src/app_menu.c ****     handled = 0;
 395              		.loc 1 599 13 view .LVU104
 396 0034 0020     		movs	r0, #0
 397              	.LVL23:
 398              		.loc 1 599 13 view .LVU105
 399 0036 08E0     		b	.L38
 400              	.LVL24:
 401              	.L50:
 582:Core/Src/app_menu.c ****     {
 402              		.loc 1 582 5 is_stmt 1 view .LVU106
 582:Core/Src/app_menu.c ****     {
 403              		.loc 1 582 8 is_stmt 0 view .LVU107
 404 0038 03B1     		cbz	r3, .L44
 584:Core/Src/app_menu.c ****     }
ARM GAS  /tmp/ccJMlkfl.s 			page 19


 405              		.loc 1 584 7 is_stmt 1 view .LVU108
 584:Core/Src/app_menu.c ****     }
 406              		.loc 1 584 12 is_stmt 0 view .LVU109
 407 003a 013B     		subs	r3, r3, #1
 408              	.LVL25:
 409              	.L44:
 600:Core/Src/app_menu.c ****   }
 601:Core/Src/app_menu.c **** 
 602:Core/Src/app_menu.c ****   if (handled != 0)
 603:Core/Src/app_menu.c ****   {
 604:Core/Src/app_menu.c ****     (void)APP_ParamDict_TrySetValue(PARAM_ID_UART_BAUDRATE, baudList[index]);
 410              		.loc 1 604 5 is_stmt 1 view .LVU110
 411              		.loc 1 604 11 is_stmt 0 view .LVU111
 412 003c 064A     		ldr	r2, .L52
 413 003e 52F82310 		ldr	r1, [r2, r3, lsl #2]
 414 0042 0320     		movs	r0, #3
 415 0044 FFF7FEFF 		bl	APP_ParamDict_TrySetValue
 416              	.LVL26:
 417 0048 0120     		movs	r0, #1
 418              	.L38:
 605:Core/Src/app_menu.c ****     /* 理論上此處還應觸發 UI 重繪當前數值，後續可在渲染函數中
 606:Core/Src/app_menu.c ****      * 根據 PARAM_ID_UART_BAUDRATE 的值展示具體數字。 */
 607:Core/Src/app_menu.c ****   }
 608:Core/Src/app_menu.c **** 
 609:Core/Src/app_menu.c ****   return handled;
 610:Core/Src/app_menu.c **** }
 419              		.loc 1 610 1 view .LVU112
 420 004a 02B0     		add	sp, sp, #8
 421              	.LCFI3:
 422              		.cfi_remember_state
 423              		.cfi_def_cfa_offset 8
 424              		@ sp needed
 425 004c 10BD     		pop	{r4, pc}
 426              	.LVL27:
 427              	.L51:
 428              	.LCFI4:
 429              		.cfi_restore_state
 590:Core/Src/app_menu.c ****     {
 430              		.loc 1 590 5 is_stmt 1 view .LVU113
 590:Core/Src/app_menu.c ****     {
 431              		.loc 1 590 16 is_stmt 0 view .LVU114
 432 004e 5A1C     		adds	r2, r3, #1
 590:Core/Src/app_menu.c ****     {
 433              		.loc 1 590 8 view .LVU115
 434 0050 052A     		cmp	r2, #5
 435 0052 F3D8     		bhi	.L44
 592:Core/Src/app_menu.c ****     }
 436              		.loc 1 592 12 view .LVU116
 437 0054 1346     		mov	r3, r2
 438              	.LVL28:
 592:Core/Src/app_menu.c ****     }
 439              		.loc 1 592 12 view .LVU117
 440 0056 F1E7     		b	.L44
 441              	.L53:
 442              		.align	2
 443              	.L52:
 444 0058 00000000 		.word	.LANCHOR1
ARM GAS  /tmp/ccJMlkfl.s 			page 20


 445              		.cfi_endproc
 446              	.LFE15:
 448              		.section	.text.MenuKeyHandler_WorkMode,"ax",%progbits
 449              		.align	1
 450              		.syntax unified
 451              		.thumb
 452              		.thumb_func
 453              		.fpu softvfp
 455              	MenuKeyHandler_WorkMode:
 456              	.LVL29:
 457              	.LFB14:
 515:Core/Src/app_menu.c ****   int32_t current = 0;
 458              		.loc 1 515 1 is_stmt 1 view -0
 459              		.cfi_startproc
 460              		@ args = 0, pretend = 0, frame = 8
 461              		@ frame_needed = 0, uses_anonymous_args = 0
 515:Core/Src/app_menu.c ****   int32_t current = 0;
 462              		.loc 1 515 1 is_stmt 0 view .LVU119
 463 0000 10B5     		push	{r4, lr}
 464              	.LCFI5:
 465              		.cfi_def_cfa_offset 8
 466              		.cfi_offset 4, -8
 467              		.cfi_offset 14, -4
 468 0002 82B0     		sub	sp, sp, #8
 469              	.LCFI6:
 470              		.cfi_def_cfa_offset 16
 471 0004 0446     		mov	r4, r0
 516:Core/Src/app_menu.c ****   if (!APP_ParamDict_GetValue(PARAM_ID_WORK_MODE, &current))
 472              		.loc 1 516 3 is_stmt 1 view .LVU120
 516:Core/Src/app_menu.c ****   if (!APP_ParamDict_GetValue(PARAM_ID_WORK_MODE, &current))
 473              		.loc 1 516 11 is_stmt 0 view .LVU121
 474 0006 0023     		movs	r3, #0
 475 0008 0193     		str	r3, [sp, #4]
 517:Core/Src/app_menu.c ****   {
 476              		.loc 1 517 3 is_stmt 1 view .LVU122
 517:Core/Src/app_menu.c ****   {
 477              		.loc 1 517 8 is_stmt 0 view .LVU123
 478 000a 01A9     		add	r1, sp, #4
 479 000c 0120     		movs	r0, #1
 480              	.LVL30:
 517:Core/Src/app_menu.c ****   {
 481              		.loc 1 517 8 view .LVU124
 482 000e FFF7FEFF 		bl	APP_ParamDict_GetValue
 483              	.LVL31:
 517:Core/Src/app_menu.c ****   {
 484              		.loc 1 517 6 view .LVU125
 485 0012 20B3     		cbz	r0, .L59
 522:Core/Src/app_menu.c ****   {
 486              		.loc 1 522 3 is_stmt 1 view .LVU126
 522:Core/Src/app_menu.c ****   {
 487              		.loc 1 522 6 is_stmt 0 view .LVU127
 488 0014 012C     		cmp	r4, #1
 489 0016 04D0     		beq	.L62
 535:Core/Src/app_menu.c ****   {
 490              		.loc 1 535 3 is_stmt 1 view .LVU128
 535:Core/Src/app_menu.c ****   {
 491              		.loc 1 535 6 is_stmt 0 view .LVU129
ARM GAS  /tmp/ccJMlkfl.s 			page 21


 492 0018 022C     		cmp	r4, #2
 493 001a 11D0     		beq	.L63
 548:Core/Src/app_menu.c **** }
 494              		.loc 1 548 10 view .LVU130
 495 001c 0020     		movs	r0, #0
 496              	.L54:
 549:Core/Src/app_menu.c **** 
 497              		.loc 1 549 1 view .LVU131
 498 001e 02B0     		add	sp, sp, #8
 499              	.LCFI7:
 500              		.cfi_remember_state
 501              		.cfi_def_cfa_offset 8
 502              		@ sp needed
 503 0020 10BD     		pop	{r4, pc}
 504              	.L62:
 505              	.LCFI8:
 506              		.cfi_restore_state
 524:Core/Src/app_menu.c ****     {
 507              		.loc 1 524 5 is_stmt 1 view .LVU132
 524:Core/Src/app_menu.c ****     {
 508              		.loc 1 524 17 is_stmt 0 view .LVU133
 509 0022 0199     		ldr	r1, [sp, #4]
 524:Core/Src/app_menu.c ****     {
 510              		.loc 1 524 8 view .LVU134
 511 0024 0029     		cmp	r1, #0
 512 0026 01DC     		bgt	.L64
 513              	.L57:
 532:Core/Src/app_menu.c ****   }
 514              		.loc 1 532 5 is_stmt 1 view .LVU135
 532:Core/Src/app_menu.c ****   }
 515              		.loc 1 532 12 is_stmt 0 view .LVU136
 516 0028 0120     		movs	r0, #1
 517 002a F8E7     		b	.L54
 518              	.L64:
 519              	.LBB4:
 526:Core/Src/app_menu.c ****       if (APP_ParamDict_TrySetValue(PARAM_ID_WORK_MODE, next))
 520              		.loc 1 526 7 is_stmt 1 view .LVU137
 521              	.LVL32:
 527:Core/Src/app_menu.c ****       {
 522              		.loc 1 527 7 view .LVU138
 527:Core/Src/app_menu.c ****       {
 523              		.loc 1 527 11 is_stmt 0 view .LVU139
 524 002c 0139     		subs	r1, r1, #1
 525              	.LVL33:
 527:Core/Src/app_menu.c ****       {
 526              		.loc 1 527 11 view .LVU140
 527 002e 0120     		movs	r0, #1
 528 0030 FFF7FEFF 		bl	APP_ParamDict_TrySetValue
 529              	.LVL34:
 527:Core/Src/app_menu.c ****       {
 530              		.loc 1 527 10 view .LVU141
 531 0034 0028     		cmp	r0, #0
 532 0036 F7D0     		beq	.L57
 529:Core/Src/app_menu.c ****       }
 533              		.loc 1 529 9 is_stmt 1 view .LVU142
 529:Core/Src/app_menu.c ****       }
 534              		.loc 1 529 15 is_stmt 0 view .LVU143
ARM GAS  /tmp/ccJMlkfl.s 			page 22


 535 0038 0120     		movs	r0, #1
 536 003a FFF7FEFF 		bl	APP_ParamUpdate_Request
 537              	.LVL35:
 538 003e F3E7     		b	.L57
 539              	.L63:
 529:Core/Src/app_menu.c ****       }
 540              		.loc 1 529 15 view .LVU144
 541              	.LBE4:
 537:Core/Src/app_menu.c ****     {
 542              		.loc 1 537 5 is_stmt 1 view .LVU145
 537:Core/Src/app_menu.c ****     {
 543              		.loc 1 537 17 is_stmt 0 view .LVU146
 544 0040 0199     		ldr	r1, [sp, #4]
 537:Core/Src/app_menu.c ****     {
 545              		.loc 1 537 8 view .LVU147
 546 0042 0229     		cmp	r1, #2
 547 0044 01DD     		ble	.L65
 548              	.L58:
 545:Core/Src/app_menu.c ****   }
 549              		.loc 1 545 5 is_stmt 1 view .LVU148
 545:Core/Src/app_menu.c ****   }
 550              		.loc 1 545 12 is_stmt 0 view .LVU149
 551 0046 0120     		movs	r0, #1
 552 0048 E9E7     		b	.L54
 553              	.L65:
 554              	.LBB5:
 539:Core/Src/app_menu.c ****       if (APP_ParamDict_TrySetValue(PARAM_ID_WORK_MODE, next))
 555              		.loc 1 539 7 is_stmt 1 view .LVU150
 556              	.LVL36:
 540:Core/Src/app_menu.c ****       {
 557              		.loc 1 540 7 view .LVU151
 540:Core/Src/app_menu.c ****       {
 558              		.loc 1 540 11 is_stmt 0 view .LVU152
 559 004a 0131     		adds	r1, r1, #1
 560              	.LVL37:
 540:Core/Src/app_menu.c ****       {
 561              		.loc 1 540 11 view .LVU153
 562 004c 0120     		movs	r0, #1
 563 004e FFF7FEFF 		bl	APP_ParamDict_TrySetValue
 564              	.LVL38:
 540:Core/Src/app_menu.c ****       {
 565              		.loc 1 540 10 view .LVU154
 566 0052 0028     		cmp	r0, #0
 567 0054 F7D0     		beq	.L58
 542:Core/Src/app_menu.c ****       }
 568              		.loc 1 542 9 is_stmt 1 view .LVU155
 542:Core/Src/app_menu.c ****       }
 569              		.loc 1 542 15 is_stmt 0 view .LVU156
 570 0056 0120     		movs	r0, #1
 571 0058 FFF7FEFF 		bl	APP_ParamUpdate_Request
 572              	.LVL39:
 573 005c F3E7     		b	.L58
 574              	.L59:
 542:Core/Src/app_menu.c ****       }
 575              		.loc 1 542 15 view .LVU157
 576              	.LBE5:
 519:Core/Src/app_menu.c ****   }
ARM GAS  /tmp/ccJMlkfl.s 			page 23


 577              		.loc 1 519 12 view .LVU158
 578 005e 0020     		movs	r0, #0
 579 0060 DDE7     		b	.L54
 580              		.cfi_endproc
 581              	.LFE14:
 583              		.section	.text.MenuKeyHandler_OperationParam,"ax",%progbits
 584              		.align	1
 585              		.syntax unified
 586              		.thumb
 587              		.thumb_func
 588              		.fpu softvfp
 590              	MenuKeyHandler_OperationParam:
 591              	.LVL40:
 592              	.LFB16:
 611:Core/Src/app_menu.c **** 
 612:Core/Src/app_menu.c **** static int MenuKeyHandler_OperationParam(MenuKey_t key)
 613:Core/Src/app_menu.c **** {
 593              		.loc 1 613 1 is_stmt 1 view -0
 594              		.cfi_startproc
 595              		@ args = 0, pretend = 0, frame = 0
 596              		@ frame_needed = 0, uses_anonymous_args = 0
 597              		.loc 1 613 1 is_stmt 0 view .LVU160
 598 0000 38B5     		push	{r3, r4, r5, lr}
 599              	.LCFI9:
 600              		.cfi_def_cfa_offset 16
 601              		.cfi_offset 3, -16
 602              		.cfi_offset 4, -12
 603              		.cfi_offset 5, -8
 604              		.cfi_offset 14, -4
 605 0002 0446     		mov	r4, r0
 614:Core/Src/app_menu.c ****   const uint8_t itemCount = (uint8_t)(sizeof(s_editableParams) / sizeof(s_editableParams[0]));
 606              		.loc 1 614 3 is_stmt 1 view .LVU161
 607              	.LVL41:
 615:Core/Src/app_menu.c **** 
 616:Core/Src/app_menu.c ****   if ((itemCount == 0u) || (s_paramEditIndex >= itemCount))
 608              		.loc 1 616 3 view .LVU162
 609              		.loc 1 616 25 is_stmt 0 view .LVU163
 610 0004 3D4B     		ldr	r3, .L91
 611 0006 1B78     		ldrb	r3, [r3]	@ zero_extendqisi2
 612              		.loc 1 616 6 view .LVU164
 613 0008 072B     		cmp	r3, #7
 614 000a 02D9     		bls	.L67
 617:Core/Src/app_menu.c ****   {
 618:Core/Src/app_menu.c ****     s_paramEditIndex = 0u;
 615              		.loc 1 618 5 is_stmt 1 view .LVU165
 616              		.loc 1 618 22 is_stmt 0 view .LVU166
 617 000c 3B4B     		ldr	r3, .L91
 618 000e 0022     		movs	r2, #0
 619 0010 1A70     		strb	r2, [r3]
 620              	.L67:
 619:Core/Src/app_menu.c ****   }
 620:Core/Src/app_menu.c **** 
 621:Core/Src/app_menu.c ****   if (key == MENU_KEY_UP)
 621              		.loc 1 621 3 is_stmt 1 view .LVU167
 622              		.loc 1 621 6 is_stmt 0 view .LVU168
 623 0012 012C     		cmp	r4, #1
 624 0014 0ED0     		beq	.L84
ARM GAS  /tmp/ccJMlkfl.s 			page 24


 622:Core/Src/app_menu.c ****   {
 623:Core/Src/app_menu.c ****     if (s_paramEditIndex > 0u)
 624:Core/Src/app_menu.c ****     {
 625:Core/Src/app_menu.c ****       s_paramEditIndex--;
 626:Core/Src/app_menu.c ****     }
 627:Core/Src/app_menu.c ****     s_paramInputDigits = 0u;
 628:Core/Src/app_menu.c ****     return 1;
 629:Core/Src/app_menu.c ****   }
 630:Core/Src/app_menu.c **** 
 631:Core/Src/app_menu.c ****   if (key == MENU_KEY_DOWN)
 625              		.loc 1 631 3 is_stmt 1 view .LVU169
 626              		.loc 1 631 6 is_stmt 0 view .LVU170
 627 0016 022C     		cmp	r4, #2
 628 0018 17D0     		beq	.L85
 632:Core/Src/app_menu.c ****   {
 633:Core/Src/app_menu.c ****     if ((s_paramEditIndex + 1u) < itemCount)
 634:Core/Src/app_menu.c ****     {
 635:Core/Src/app_menu.c ****       s_paramEditIndex++;
 636:Core/Src/app_menu.c ****     }
 637:Core/Src/app_menu.c ****     s_paramInputDigits = 0u;
 638:Core/Src/app_menu.c ****     return 1;
 639:Core/Src/app_menu.c ****   }
 640:Core/Src/app_menu.c **** 
 641:Core/Src/app_menu.c ****   int digit = Menu_KeyToDigit(key);
 629              		.loc 1 641 3 is_stmt 1 view .LVU171
 630              		.loc 1 641 15 is_stmt 0 view .LVU172
 631 001a 2046     		mov	r0, r4
 632              	.LVL42:
 633              		.loc 1 641 15 view .LVU173
 634 001c FFF7FEFF 		bl	Menu_KeyToDigit
 635              	.LVL43:
 642:Core/Src/app_menu.c ****   if (digit >= 0)
 636              		.loc 1 642 3 is_stmt 1 view .LVU174
 637              		.loc 1 642 6 is_stmt 0 view .LVU175
 638 0020 0028     		cmp	r0, #0
 639              		.loc 1 642 6 view .LVU176
 640 0022 1FDA     		bge	.L86
 643:Core/Src/app_menu.c ****   {
 644:Core/Src/app_menu.c ****     if (s_paramInputDigits < 10u)
 645:Core/Src/app_menu.c ****     {
 646:Core/Src/app_menu.c ****       s_paramInputValue = s_paramInputValue * 10 + digit;
 647:Core/Src/app_menu.c ****       s_paramInputDigits++;
 648:Core/Src/app_menu.c ****     }
 649:Core/Src/app_menu.c ****     return 1;
 650:Core/Src/app_menu.c ****   }
 651:Core/Src/app_menu.c **** 
 652:Core/Src/app_menu.c ****   if (key == MENU_KEY_STAR)
 641              		.loc 1 652 3 is_stmt 1 view .LVU177
 642              		.loc 1 652 6 is_stmt 0 view .LVU178
 643 0024 0F2C     		cmp	r4, #15
 644 0026 2DD0     		beq	.L87
 653:Core/Src/app_menu.c ****   {
 654:Core/Src/app_menu.c ****     s_paramInputValue = 0;
 655:Core/Src/app_menu.c ****     s_paramInputDigits = 0u;
 656:Core/Src/app_menu.c ****     return 1;
 657:Core/Src/app_menu.c ****   }
 658:Core/Src/app_menu.c **** 
ARM GAS  /tmp/ccJMlkfl.s 			page 25


 659:Core/Src/app_menu.c ****   if (key == MENU_KEY_HASH)
 645              		.loc 1 659 3 is_stmt 1 view .LVU179
 646              		.loc 1 659 6 is_stmt 0 view .LVU180
 647 0028 102C     		cmp	r4, #16
 648 002a 32D0     		beq	.L88
 660:Core/Src/app_menu.c ****   {
 661:Core/Src/app_menu.c ****     s_paramInputValue /= 10;
 662:Core/Src/app_menu.c ****     if (s_paramInputDigits > 0u)
 663:Core/Src/app_menu.c ****     {
 664:Core/Src/app_menu.c ****       s_paramInputDigits--;
 665:Core/Src/app_menu.c ****     }
 666:Core/Src/app_menu.c ****     return 1;
 667:Core/Src/app_menu.c ****   }
 668:Core/Src/app_menu.c **** 
 669:Core/Src/app_menu.c ****   if (key == MENU_KEY_OK)
 649              		.loc 1 669 3 is_stmt 1 view .LVU181
 650              		.loc 1 669 6 is_stmt 0 view .LVU182
 651 002c 032C     		cmp	r4, #3
 652 002e 41D0     		beq	.L89
 670:Core/Src/app_menu.c ****   {
 671:Core/Src/app_menu.c ****     const EditableParamItem_t *item = &s_editableParams[s_paramEditIndex];
 672:Core/Src/app_menu.c ****     ParamDef_t *def = APP_ParamDict_FindById(item->id);
 673:Core/Src/app_menu.c ****     int32_t applyValue = s_paramInputValue;
 674:Core/Src/app_menu.c **** 
 675:Core/Src/app_menu.c ****     if (def != NULL)
 676:Core/Src/app_menu.c ****     {
 677:Core/Src/app_menu.c ****       if (applyValue < def->min_value)
 678:Core/Src/app_menu.c ****       {
 679:Core/Src/app_menu.c ****         applyValue = def->min_value;
 680:Core/Src/app_menu.c ****       }
 681:Core/Src/app_menu.c ****       else if (applyValue > def->max_value)
 682:Core/Src/app_menu.c ****       {
 683:Core/Src/app_menu.c ****         applyValue = def->max_value;
 684:Core/Src/app_menu.c ****       }
 685:Core/Src/app_menu.c ****     }
 686:Core/Src/app_menu.c **** 
 687:Core/Src/app_menu.c ****     if (APP_ParamDict_TrySetValue(item->id, applyValue))
 688:Core/Src/app_menu.c ****     {
 689:Core/Src/app_menu.c ****       (void)APP_ParamUpdate_Request(item->id);
 690:Core/Src/app_menu.c ****     }
 691:Core/Src/app_menu.c **** 
 692:Core/Src/app_menu.c ****     s_paramInputValue = applyValue;
 693:Core/Src/app_menu.c ****     s_paramInputDigits = 0u;
 694:Core/Src/app_menu.c ****     return 1;
 695:Core/Src/app_menu.c ****   }
 696:Core/Src/app_menu.c **** 
 697:Core/Src/app_menu.c ****   return 0;
 653              		.loc 1 697 10 view .LVU183
 654 0030 0020     		movs	r0, #0
 655              	.LVL44:
 656              		.loc 1 697 10 view .LVU184
 657 0032 26E0     		b	.L66
 658              	.LVL45:
 659              	.L84:
 623:Core/Src/app_menu.c ****     {
 660              		.loc 1 623 5 is_stmt 1 view .LVU185
 623:Core/Src/app_menu.c ****     {
ARM GAS  /tmp/ccJMlkfl.s 			page 26


 661              		.loc 1 623 26 is_stmt 0 view .LVU186
 662 0034 314B     		ldr	r3, .L91
 663 0036 1B78     		ldrb	r3, [r3]	@ zero_extendqisi2
 623:Core/Src/app_menu.c ****     {
 664              		.loc 1 623 8 view .LVU187
 665 0038 13B1     		cbz	r3, .L69
 625:Core/Src/app_menu.c ****     }
 666              		.loc 1 625 7 is_stmt 1 view .LVU188
 625:Core/Src/app_menu.c ****     }
 667              		.loc 1 625 23 is_stmt 0 view .LVU189
 668 003a 013B     		subs	r3, r3, #1
 669 003c 2F4A     		ldr	r2, .L91
 670 003e 1370     		strb	r3, [r2]
 671              	.L69:
 627:Core/Src/app_menu.c ****     return 1;
 672              		.loc 1 627 5 is_stmt 1 view .LVU190
 627:Core/Src/app_menu.c ****     return 1;
 673              		.loc 1 627 24 is_stmt 0 view .LVU191
 674 0040 2F4B     		ldr	r3, .L91+4
 675 0042 0022     		movs	r2, #0
 676 0044 1A70     		strb	r2, [r3]
 628:Core/Src/app_menu.c ****   }
 677              		.loc 1 628 5 is_stmt 1 view .LVU192
 628:Core/Src/app_menu.c ****   }
 678              		.loc 1 628 12 is_stmt 0 view .LVU193
 679 0046 0120     		movs	r0, #1
 680              	.LVL46:
 628:Core/Src/app_menu.c ****   }
 681              		.loc 1 628 12 view .LVU194
 682 0048 1BE0     		b	.L66
 683              	.LVL47:
 684              	.L85:
 633:Core/Src/app_menu.c ****     {
 685              		.loc 1 633 5 is_stmt 1 view .LVU195
 633:Core/Src/app_menu.c ****     {
 686              		.loc 1 633 27 is_stmt 0 view .LVU196
 687 004a 2C4B     		ldr	r3, .L91
 688 004c 1B78     		ldrb	r3, [r3]	@ zero_extendqisi2
 689 004e 5A1C     		adds	r2, r3, #1
 633:Core/Src/app_menu.c ****     {
 690              		.loc 1 633 8 view .LVU197
 691 0050 072A     		cmp	r2, #7
 692 0052 02D8     		bhi	.L72
 635:Core/Src/app_menu.c ****     }
 693              		.loc 1 635 7 is_stmt 1 view .LVU198
 635:Core/Src/app_menu.c ****     }
 694              		.loc 1 635 23 is_stmt 0 view .LVU199
 695 0054 1346     		mov	r3, r2
 696 0056 294A     		ldr	r2, .L91
 697 0058 1370     		strb	r3, [r2]
 698              	.L72:
 637:Core/Src/app_menu.c ****     return 1;
 699              		.loc 1 637 5 is_stmt 1 view .LVU200
 637:Core/Src/app_menu.c ****     return 1;
 700              		.loc 1 637 24 is_stmt 0 view .LVU201
 701 005a 294B     		ldr	r3, .L91+4
 702 005c 0022     		movs	r2, #0
ARM GAS  /tmp/ccJMlkfl.s 			page 27


 703 005e 1A70     		strb	r2, [r3]
 638:Core/Src/app_menu.c ****   }
 704              		.loc 1 638 5 is_stmt 1 view .LVU202
 638:Core/Src/app_menu.c ****   }
 705              		.loc 1 638 12 is_stmt 0 view .LVU203
 706 0060 0120     		movs	r0, #1
 707              	.LVL48:
 638:Core/Src/app_menu.c ****   }
 708              		.loc 1 638 12 view .LVU204
 709 0062 0EE0     		b	.L66
 710              	.LVL49:
 711              	.L86:
 644:Core/Src/app_menu.c ****     {
 712              		.loc 1 644 5 is_stmt 1 view .LVU205
 644:Core/Src/app_menu.c ****     {
 713              		.loc 1 644 28 is_stmt 0 view .LVU206
 714 0064 264B     		ldr	r3, .L91+4
 715 0066 1B78     		ldrb	r3, [r3]	@ zero_extendqisi2
 644:Core/Src/app_menu.c ****     {
 716              		.loc 1 644 8 view .LVU207
 717 0068 092B     		cmp	r3, #9
 718 006a 09D8     		bhi	.L74
 646:Core/Src/app_menu.c ****       s_paramInputDigits++;
 719              		.loc 1 646 7 is_stmt 1 view .LVU208
 646:Core/Src/app_menu.c ****       s_paramInputDigits++;
 720              		.loc 1 646 45 is_stmt 0 view .LVU209
 721 006c 2549     		ldr	r1, .L91+8
 722 006e 0A68     		ldr	r2, [r1]
 723 0070 02EB8202 		add	r2, r2, r2, lsl #2
 646:Core/Src/app_menu.c ****       s_paramInputDigits++;
 724              		.loc 1 646 50 view .LVU210
 725 0074 00EB4200 		add	r0, r0, r2, lsl #1
 726              	.LVL50:
 646:Core/Src/app_menu.c ****       s_paramInputDigits++;
 727              		.loc 1 646 25 view .LVU211
 728 0078 0860     		str	r0, [r1]
 647:Core/Src/app_menu.c ****     }
 729              		.loc 1 647 7 is_stmt 1 view .LVU212
 647:Core/Src/app_menu.c ****     }
 730              		.loc 1 647 25 is_stmt 0 view .LVU213
 731 007a 0133     		adds	r3, r3, #1
 732 007c 204A     		ldr	r2, .L91+4
 733 007e 1370     		strb	r3, [r2]
 734              	.L74:
 649:Core/Src/app_menu.c ****   }
 735              		.loc 1 649 5 is_stmt 1 view .LVU214
 649:Core/Src/app_menu.c ****   }
 736              		.loc 1 649 12 is_stmt 0 view .LVU215
 737 0080 0120     		movs	r0, #1
 738              	.L66:
 698:Core/Src/app_menu.c **** }
 739              		.loc 1 698 1 view .LVU216
 740 0082 38BD     		pop	{r3, r4, r5, pc}
 741              	.LVL51:
 742              	.L87:
 654:Core/Src/app_menu.c ****     s_paramInputDigits = 0u;
 743              		.loc 1 654 5 is_stmt 1 view .LVU217
ARM GAS  /tmp/ccJMlkfl.s 			page 28


 654:Core/Src/app_menu.c ****     s_paramInputDigits = 0u;
 744              		.loc 1 654 23 is_stmt 0 view .LVU218
 745 0084 0023     		movs	r3, #0
 746 0086 1F4A     		ldr	r2, .L91+8
 747 0088 1360     		str	r3, [r2]
 655:Core/Src/app_menu.c ****     return 1;
 748              		.loc 1 655 5 is_stmt 1 view .LVU219
 655:Core/Src/app_menu.c ****     return 1;
 749              		.loc 1 655 24 is_stmt 0 view .LVU220
 750 008a 1D4A     		ldr	r2, .L91+4
 751 008c 1370     		strb	r3, [r2]
 656:Core/Src/app_menu.c ****   }
 752              		.loc 1 656 5 is_stmt 1 view .LVU221
 656:Core/Src/app_menu.c ****   }
 753              		.loc 1 656 12 is_stmt 0 view .LVU222
 754 008e 0120     		movs	r0, #1
 755              	.LVL52:
 656:Core/Src/app_menu.c ****   }
 756              		.loc 1 656 12 view .LVU223
 757 0090 F7E7     		b	.L66
 758              	.LVL53:
 759              	.L88:
 661:Core/Src/app_menu.c ****     if (s_paramInputDigits > 0u)
 760              		.loc 1 661 5 is_stmt 1 view .LVU224
 661:Core/Src/app_menu.c ****     if (s_paramInputDigits > 0u)
 761              		.loc 1 661 23 is_stmt 0 view .LVU225
 762 0092 1C49     		ldr	r1, .L91+8
 763 0094 0B68     		ldr	r3, [r1]
 764 0096 1C4A     		ldr	r2, .L91+12
 765 0098 82FB0302 		smull	r0, r2, r2, r3
 766              	.LVL54:
 661:Core/Src/app_menu.c ****     if (s_paramInputDigits > 0u)
 767              		.loc 1 661 23 view .LVU226
 768 009c DB17     		asrs	r3, r3, #31
 769 009e C3EBA203 		rsb	r3, r3, r2, asr #2
 770 00a2 0B60     		str	r3, [r1]
 662:Core/Src/app_menu.c ****     {
 771              		.loc 1 662 5 is_stmt 1 view .LVU227
 662:Core/Src/app_menu.c ****     {
 772              		.loc 1 662 28 is_stmt 0 view .LVU228
 773 00a4 164B     		ldr	r3, .L91+4
 774 00a6 1B78     		ldrb	r3, [r3]	@ zero_extendqisi2
 662:Core/Src/app_menu.c ****     {
 775              		.loc 1 662 8 view .LVU229
 776 00a8 13B1     		cbz	r3, .L77
 664:Core/Src/app_menu.c ****     }
 777              		.loc 1 664 7 is_stmt 1 view .LVU230
 664:Core/Src/app_menu.c ****     }
 778              		.loc 1 664 25 is_stmt 0 view .LVU231
 779 00aa 013B     		subs	r3, r3, #1
 780 00ac 144A     		ldr	r2, .L91+4
 781 00ae 1370     		strb	r3, [r2]
 782              	.L77:
 666:Core/Src/app_menu.c ****   }
 783              		.loc 1 666 5 is_stmt 1 view .LVU232
 666:Core/Src/app_menu.c ****   }
 784              		.loc 1 666 12 is_stmt 0 view .LVU233
ARM GAS  /tmp/ccJMlkfl.s 			page 29


 785 00b0 0120     		movs	r0, #1
 786 00b2 E6E7     		b	.L66
 787              	.LVL55:
 788              	.L89:
 789              	.LBB6:
 671:Core/Src/app_menu.c ****     ParamDef_t *def = APP_ParamDict_FindById(item->id);
 790              		.loc 1 671 5 is_stmt 1 view .LVU234
 671:Core/Src/app_menu.c ****     ParamDef_t *def = APP_ParamDict_FindById(item->id);
 791              		.loc 1 671 56 is_stmt 0 view .LVU235
 792 00b4 114B     		ldr	r3, .L91
 793 00b6 1A78     		ldrb	r2, [r3]	@ zero_extendqisi2
 794              	.LVL56:
 672:Core/Src/app_menu.c ****     int32_t applyValue = s_paramInputValue;
 795              		.loc 1 672 5 is_stmt 1 view .LVU236
 672:Core/Src/app_menu.c ****     int32_t applyValue = s_paramInputValue;
 796              		.loc 1 672 23 is_stmt 0 view .LVU237
 797 00b8 144B     		ldr	r3, .L91+16
 798 00ba 33F83250 		ldrh	r5, [r3, r2, lsl #3]
 799 00be 2846     		mov	r0, r5
 800              	.LVL57:
 672:Core/Src/app_menu.c ****     int32_t applyValue = s_paramInputValue;
 801              		.loc 1 672 23 view .LVU238
 802 00c0 FFF7FEFF 		bl	APP_ParamDict_FindById
 803              	.LVL58:
 673:Core/Src/app_menu.c **** 
 804              		.loc 1 673 5 is_stmt 1 view .LVU239
 673:Core/Src/app_menu.c **** 
 805              		.loc 1 673 13 is_stmt 0 view .LVU240
 806 00c4 0F4B     		ldr	r3, .L91+8
 807 00c6 1C68     		ldr	r4, [r3]
 808              	.LVL59:
 675:Core/Src/app_menu.c ****     {
 809              		.loc 1 675 5 is_stmt 1 view .LVU241
 675:Core/Src/app_menu.c ****     {
 810              		.loc 1 675 8 is_stmt 0 view .LVU242
 811 00c8 40B1     		cbz	r0, .L78
 677:Core/Src/app_menu.c ****       {
 812              		.loc 1 677 7 is_stmt 1 view .LVU243
 677:Core/Src/app_menu.c ****       {
 813              		.loc 1 677 27 is_stmt 0 view .LVU244
 814 00ca 4268     		ldr	r2, [r0, #4]
 677:Core/Src/app_menu.c ****       {
 815              		.loc 1 677 10 view .LVU245
 816 00cc A242     		cmp	r2, r4
 817 00ce 04DC     		bgt	.L81
 681:Core/Src/app_menu.c ****       {
 818              		.loc 1 681 12 is_stmt 1 view .LVU246
 681:Core/Src/app_menu.c ****       {
 819              		.loc 1 681 32 is_stmt 0 view .LVU247
 820 00d0 8368     		ldr	r3, [r0, #8]
 681:Core/Src/app_menu.c ****       {
 821              		.loc 1 681 15 view .LVU248
 822 00d2 A342     		cmp	r3, r4
 823 00d4 02DA     		bge	.L78
 683:Core/Src/app_menu.c ****       }
 824              		.loc 1 683 20 view .LVU249
 825 00d6 1C46     		mov	r4, r3
ARM GAS  /tmp/ccJMlkfl.s 			page 30


 826              	.LVL60:
 683:Core/Src/app_menu.c ****       }
 827              		.loc 1 683 20 view .LVU250
 828 00d8 00E0     		b	.L78
 829              	.LVL61:
 830              	.L81:
 679:Core/Src/app_menu.c ****       }
 831              		.loc 1 679 20 view .LVU251
 832 00da 1446     		mov	r4, r2
 833              	.LVL62:
 834              	.L78:
 687:Core/Src/app_menu.c ****     {
 835              		.loc 1 687 5 is_stmt 1 view .LVU252
 687:Core/Src/app_menu.c ****     {
 836              		.loc 1 687 9 is_stmt 0 view .LVU253
 837 00dc 2146     		mov	r1, r4
 838 00de 2846     		mov	r0, r5
 839              	.LVL63:
 687:Core/Src/app_menu.c ****     {
 840              		.loc 1 687 9 view .LVU254
 841 00e0 FFF7FEFF 		bl	APP_ParamDict_TrySetValue
 842              	.LVL64:
 687:Core/Src/app_menu.c ****     {
 843              		.loc 1 687 8 view .LVU255
 844 00e4 30B9     		cbnz	r0, .L90
 845              	.L79:
 692:Core/Src/app_menu.c ****     s_paramInputDigits = 0u;
 846              		.loc 1 692 5 is_stmt 1 view .LVU256
 692:Core/Src/app_menu.c ****     s_paramInputDigits = 0u;
 847              		.loc 1 692 23 is_stmt 0 view .LVU257
 848 00e6 074B     		ldr	r3, .L91+8
 849 00e8 1C60     		str	r4, [r3]
 693:Core/Src/app_menu.c ****     return 1;
 850              		.loc 1 693 5 is_stmt 1 view .LVU258
 693:Core/Src/app_menu.c ****     return 1;
 851              		.loc 1 693 24 is_stmt 0 view .LVU259
 852 00ea 054B     		ldr	r3, .L91+4
 853 00ec 0022     		movs	r2, #0
 854 00ee 1A70     		strb	r2, [r3]
 694:Core/Src/app_menu.c ****   }
 855              		.loc 1 694 5 is_stmt 1 view .LVU260
 694:Core/Src/app_menu.c ****   }
 856              		.loc 1 694 12 is_stmt 0 view .LVU261
 857 00f0 0120     		movs	r0, #1
 858 00f2 C6E7     		b	.L66
 859              	.L90:
 689:Core/Src/app_menu.c ****     }
 860              		.loc 1 689 7 is_stmt 1 view .LVU262
 689:Core/Src/app_menu.c ****     }
 861              		.loc 1 689 13 is_stmt 0 view .LVU263
 862 00f4 2846     		mov	r0, r5
 863 00f6 FFF7FEFF 		bl	APP_ParamUpdate_Request
 864              	.LVL65:
 865 00fa F4E7     		b	.L79
 866              	.L92:
 867              		.align	2
 868              	.L91:
ARM GAS  /tmp/ccJMlkfl.s 			page 31


 869 00fc 00000000 		.word	.LANCHOR2
 870 0100 00000000 		.word	.LANCHOR3
 871 0104 00000000 		.word	.LANCHOR4
 872 0108 67666666 		.word	1717986919
 873 010c 00000000 		.word	.LANCHOR5
 874              	.LBE6:
 875              		.cfi_endproc
 876              	.LFE16:
 878              		.section	.rodata.Menu_RenderBlankRows.str1.4,"aMS",%progbits,1
 879              		.align	2
 880              	.LC4:
 881 0000 00       		.ascii	"\000"
 882              		.section	.text.Menu_RenderBlankRows,"ax",%progbits
 883              		.align	1
 884              		.syntax unified
 885              		.thumb
 886              		.thumb_func
 887              		.fpu softvfp
 889              	Menu_RenderBlankRows:
 890              	.LVL66:
 891              	.LFB5:
  82:Core/Src/app_menu.c ****   for (uint8_t row = startRow; row <= endRow; ++row)
 892              		.loc 1 82 1 is_stmt 1 view -0
 893              		.cfi_startproc
 894              		@ args = 0, pretend = 0, frame = 0
 895              		@ frame_needed = 0, uses_anonymous_args = 0
  82:Core/Src/app_menu.c ****   for (uint8_t row = startRow; row <= endRow; ++row)
 896              		.loc 1 82 1 is_stmt 0 view .LVU265
 897 0000 38B5     		push	{r3, r4, r5, lr}
 898              	.LCFI10:
 899              		.cfi_def_cfa_offset 16
 900              		.cfi_offset 3, -16
 901              		.cfi_offset 4, -12
 902              		.cfi_offset 5, -8
 903              		.cfi_offset 14, -4
 904 0002 0446     		mov	r4, r0
 905 0004 0D46     		mov	r5, r1
  83:Core/Src/app_menu.c ****   {
 906              		.loc 1 83 3 is_stmt 1 view .LVU266
 907              	.LBB7:
  83:Core/Src/app_menu.c ****   {
 908              		.loc 1 83 8 view .LVU267
 909              	.LVL67:
  83:Core/Src/app_menu.c ****   {
 910              		.loc 1 83 3 is_stmt 0 view .LVU268
 911 0006 05E0     		b	.L94
 912              	.LVL68:
 913              	.L95:
  85:Core/Src/app_menu.c ****   }
 914              		.loc 1 85 5 is_stmt 1 discriminator 3 view .LVU269
 915 0008 0449     		ldr	r1, .L97
 916 000a 2046     		mov	r0, r4
 917 000c FFF7FEFF 		bl	BSP_Lcd_PrintLine
 918              	.LVL69:
  83:Core/Src/app_menu.c ****   {
 919              		.loc 1 83 47 discriminator 3 view .LVU270
 920 0010 0134     		adds	r4, r4, #1
ARM GAS  /tmp/ccJMlkfl.s 			page 32


 921              	.LVL70:
  83:Core/Src/app_menu.c ****   {
 922              		.loc 1 83 47 is_stmt 0 discriminator 3 view .LVU271
 923 0012 E4B2     		uxtb	r4, r4
 924              	.LVL71:
 925              	.L94:
  83:Core/Src/app_menu.c ****   {
 926              		.loc 1 83 32 is_stmt 1 discriminator 1 view .LVU272
  83:Core/Src/app_menu.c ****   {
 927              		.loc 1 83 3 is_stmt 0 discriminator 1 view .LVU273
 928 0014 AC42     		cmp	r4, r5
 929 0016 F7D9     		bls	.L95
  83:Core/Src/app_menu.c ****   {
 930              		.loc 1 83 3 discriminator 1 view .LVU274
 931              	.LBE7:
  87:Core/Src/app_menu.c **** 
 932              		.loc 1 87 1 view .LVU275
 933 0018 38BD     		pop	{r3, r4, r5, pc}
 934              	.LVL72:
 935              	.L98:
  87:Core/Src/app_menu.c **** 
 936              		.loc 1 87 1 view .LVU276
 937 001a 00BF     		.align	2
 938              	.L97:
 939 001c 00000000 		.word	.LC4
 940              		.cfi_endproc
 941              	.LFE5:
 943              		.section	.rodata.Menu_FormatMilli.str1.4,"aMS",%progbits,1
 944              		.align	2
 945              	.LC5:
 946 0000 256C642E 		.ascii	"%ld.%03ld\000"
 946      2530336C 
 946      6400
 947              		.section	.text.Menu_FormatMilli,"ax",%progbits
 948              		.align	1
 949              		.syntax unified
 950              		.thumb
 951              		.thumb_func
 952              		.fpu softvfp
 954              	Menu_FormatMilli:
 955              	.LVL73:
 956              	.LFB4:
  69:Core/Src/app_menu.c ****   long integerPart = (long)(value / 1000);
 957              		.loc 1 69 1 is_stmt 1 view -0
 958              		.cfi_startproc
 959              		@ args = 0, pretend = 0, frame = 0
 960              		@ frame_needed = 0, uses_anonymous_args = 0
  69:Core/Src/app_menu.c ****   long integerPart = (long)(value / 1000);
 961              		.loc 1 69 1 is_stmt 0 view .LVU278
 962 0000 00B5     		push	{lr}
 963              	.LCFI11:
 964              		.cfi_def_cfa_offset 4
 965              		.cfi_offset 14, -4
 966 0002 83B0     		sub	sp, sp, #12
 967              	.LCFI12:
 968              		.cfi_def_cfa_offset 16
  70:Core/Src/app_menu.c ****   long fracPart = (long)(value % 1000);
ARM GAS  /tmp/ccJMlkfl.s 			page 33


 969              		.loc 1 70 3 is_stmt 1 view .LVU279
  70:Core/Src/app_menu.c ****   long fracPart = (long)(value % 1000);
 970              		.loc 1 70 8 is_stmt 0 view .LVU280
 971 0004 0A4B     		ldr	r3, .L103
 972 0006 83FB023C 		smull	r3, ip, r3, r2
 973 000a D317     		asrs	r3, r2, #31
 974 000c C3EBAC13 		rsb	r3, r3, ip, asr #6
 975              	.LVL74:
  71:Core/Src/app_menu.c **** 
 976              		.loc 1 71 3 is_stmt 1 view .LVU281
  71:Core/Src/app_menu.c **** 
 977              		.loc 1 71 8 is_stmt 0 view .LVU282
 978 0010 4FF47A7C 		mov	ip, #1000
 979 0014 0CFB1322 		mls	r2, ip, r3, r2
 980              	.LVL75:
  73:Core/Src/app_menu.c ****   {
 981              		.loc 1 73 3 is_stmt 1 view .LVU283
  73:Core/Src/app_menu.c ****   {
 982              		.loc 1 73 6 is_stmt 0 view .LVU284
 983 0018 002A     		cmp	r2, #0
 984 001a 06DB     		blt	.L102
 985              	.L100:
  78:Core/Src/app_menu.c **** }
 986              		.loc 1 78 3 is_stmt 1 view .LVU285
  78:Core/Src/app_menu.c **** }
 987              		.loc 1 78 9 is_stmt 0 view .LVU286
 988 001c 0092     		str	r2, [sp]
 989 001e 054A     		ldr	r2, .L103+4
 990              	.LVL76:
  78:Core/Src/app_menu.c **** }
 991              		.loc 1 78 9 view .LVU287
 992 0020 FFF7FEFF 		bl	snprintf
 993              	.LVL77:
  79:Core/Src/app_menu.c **** 
 994              		.loc 1 79 1 view .LVU288
 995 0024 03B0     		add	sp, sp, #12
 996              	.LCFI13:
 997              		.cfi_remember_state
 998              		.cfi_def_cfa_offset 4
 999              		@ sp needed
 1000 0026 5DF804FB 		ldr	pc, [sp], #4
 1001              	.LVL78:
 1002              	.L102:
 1003              	.LCFI14:
 1004              		.cfi_restore_state
  75:Core/Src/app_menu.c ****   }
 1005              		.loc 1 75 5 is_stmt 1 view .LVU289
  75:Core/Src/app_menu.c ****   }
 1006              		.loc 1 75 14 is_stmt 0 view .LVU290
 1007 002a 5242     		rsbs	r2, r2, #0
 1008              	.LVL79:
  75:Core/Src/app_menu.c ****   }
 1009              		.loc 1 75 14 view .LVU291
 1010 002c F6E7     		b	.L100
 1011              	.L104:
 1012 002e 00BF     		.align	2
 1013              	.L103:
ARM GAS  /tmp/ccJMlkfl.s 			page 34


 1014 0030 D34D6210 		.word	274877907
 1015 0034 00000000 		.word	.LC5
 1016              		.cfi_endproc
 1017              	.LFE4:
 1019              		.section	.rodata.Menu_RenderParamValue.str1.4,"aMS",%progbits,1
 1020              		.align	2
 1021              	.LC6:
 1022 0000 256C6400 		.ascii	"%ld\000"
 1023              		.section	.text.Menu_RenderParamValue,"ax",%progbits
 1024              		.align	1
 1025              		.syntax unified
 1026              		.thumb
 1027              		.thumb_func
 1028              		.fpu softvfp
 1030              	Menu_RenderParamValue:
 1031              	.LVL80:
 1032              	.LFB6:
  90:Core/Src/app_menu.c ****   if ((out == NULL) || (outSize == 0u))
 1033              		.loc 1 90 1 is_stmt 1 view -0
 1034              		.cfi_startproc
 1035              		@ args = 0, pretend = 0, frame = 0
 1036              		@ frame_needed = 0, uses_anonymous_args = 0
  91:Core/Src/app_menu.c ****   {
 1037              		.loc 1 91 3 view .LVU293
  91:Core/Src/app_menu.c ****   {
 1038              		.loc 1 91 6 is_stmt 0 view .LVU294
 1039 0000 B2B1     		cbz	r2, .L109
  90:Core/Src/app_menu.c ****   if ((out == NULL) || (outSize == 0u))
 1040              		.loc 1 90 1 discriminator 1 view .LVU295
 1041 0002 10B5     		push	{r4, lr}
 1042              	.LCFI15:
 1043              		.cfi_def_cfa_offset 8
 1044              		.cfi_offset 4, -8
 1045              		.cfi_offset 14, -4
 1046 0004 8E46     		mov	lr, r1
 1047 0006 1946     		mov	r1, r3
 1048              	.LVL81:
  90:Core/Src/app_menu.c ****   if ((out == NULL) || (outSize == 0u))
 1049              		.loc 1 90 1 discriminator 1 view .LVU296
 1050 0008 1446     		mov	r4, r2
  91:Core/Src/app_menu.c ****   {
 1051              		.loc 1 91 21 discriminator 1 view .LVU297
 1052 000a 5BB1     		cbz	r3, .L105
  96:Core/Src/app_menu.c ****       (id == PARAM_ID_ADAPT_FREQ1) ||
 1053              		.loc 1 96 3 is_stmt 1 view .LVU298
  99:Core/Src/app_menu.c ****       (id == PARAM_ID_ADAPT_FREQ4))
 1054              		.loc 1 99 36 is_stmt 0 view .LVU299
 1055 000c A0F1430C 		sub	ip, r0, #67
 1056 0010 1FFA8CFC 		uxth	ip, ip
  96:Core/Src/app_menu.c ****       (id == PARAM_ID_ADAPT_FREQ1) ||
 1057              		.loc 1 96 6 view .LVU300
 1058 0014 BCF1040F 		cmp	ip, #4
 1059 0018 05D9     		bls	.L112
 106:Core/Src/app_menu.c **** }
 1060              		.loc 1 106 3 is_stmt 1 view .LVU301
 106:Core/Src/app_menu.c **** }
 1061              		.loc 1 106 9 is_stmt 0 view .LVU302
ARM GAS  /tmp/ccJMlkfl.s 			page 35


 1062 001a 7346     		mov	r3, lr
 1063              	.LVL82:
 106:Core/Src/app_menu.c **** }
 1064              		.loc 1 106 9 view .LVU303
 1065 001c 054A     		ldr	r2, .L113
 1066              	.LVL83:
 106:Core/Src/app_menu.c **** }
 1067              		.loc 1 106 9 view .LVU304
 1068 001e 2046     		mov	r0, r4
 1069              	.LVL84:
 106:Core/Src/app_menu.c **** }
 1070              		.loc 1 106 9 view .LVU305
 1071 0020 FFF7FEFF 		bl	snprintf
 1072              	.LVL85:
 1073              	.L105:
 107:Core/Src/app_menu.c **** 
 1074              		.loc 1 107 1 view .LVU306
 1075 0024 10BD     		pop	{r4, pc}
 1076              	.LVL86:
 1077              	.L112:
 102:Core/Src/app_menu.c ****     return;
 1078              		.loc 1 102 5 is_stmt 1 view .LVU307
 1079 0026 7246     		mov	r2, lr
 1080              	.LVL87:
 102:Core/Src/app_menu.c ****     return;
 1081              		.loc 1 102 5 is_stmt 0 view .LVU308
 1082 0028 2046     		mov	r0, r4
 1083              	.LVL88:
 102:Core/Src/app_menu.c ****     return;
 1084              		.loc 1 102 5 view .LVU309
 1085 002a FFF7FEFF 		bl	Menu_FormatMilli
 1086              	.LVL89:
 103:Core/Src/app_menu.c ****   }
 1087              		.loc 1 103 5 is_stmt 1 view .LVU310
 1088 002e F9E7     		b	.L105
 1089              	.LVL90:
 1090              	.L109:
 1091              	.LCFI16:
 1092              		.cfi_def_cfa_offset 0
 1093              		.cfi_restore 4
 1094              		.cfi_restore 14
 103:Core/Src/app_menu.c ****   }
 1095              		.loc 1 103 5 is_stmt 0 view .LVU311
 1096 0030 7047     		bx	lr
 1097              	.L114:
 1098 0032 00BF     		.align	2
 1099              	.L113:
 1100 0034 00000000 		.word	.LC6
 1101              		.cfi_endproc
 1102              	.LFE6:
 1104              		.section	.rodata.APP_Menu_DefaultRender.str1.4,"aMS",%progbits,1
 1105              		.align	2
 1106              	.LC7:
 1107 0000 42415544 		.ascii	"BAUD:%ld\000"
 1107      3A256C64 
 1107      00
 1108 0009 000000   		.align	2
ARM GAS  /tmp/ccJMlkfl.s 			page 36


 1109              	.LC8:
 1110 000c 4D4F4445 		.ascii	"MODE:%ld\000"
 1110      3A256C64 
 1110      00
 1111 0015 000000   		.align	2
 1112              	.LC9:
 1113 0018 543A2530 		.ascii	"T:%02ld:%02ld:%02ld N:%ld\000"
 1113      326C643A 
 1113      2530326C 
 1113      643A2530 
 1113      326C6420 
 1114 0032 0000     		.align	2
 1115              	.LC10:
 1116 0034 573A256C 		.ascii	"W:%ld B:%ld H:%ld\000"
 1116      6420423A 
 1116      256C6420 
 1116      483A256C 
 1116      6400
 1117 0046 0000     		.align	2
 1118              	.LC11:
 1119 0048 4649583A 		.ascii	"FIX:%s\000"
 1119      257300
 1120 004f 00       		.align	2
 1121              	.LC12:
 1122 0050 41313A25 		.ascii	"A1:%.7s A2:%.7s\000"
 1122      2E377320 
 1122      41323A25 
 1122      2E377300 
 1123              		.align	2
 1124              	.LC13:
 1125 0060 41333A25 		.ascii	"A3:%.7s A4:%.7s\000"
 1125      2E377320 
 1125      41343A25 
 1125      2E377300 
 1126              		.align	2
 1127              	.LC14:
 1128 0070 503A256C 		.ascii	"P:%ld ATT:%ld SF:%ld\000"
 1128      64204154 
 1128      543A256C 
 1128      64205346 
 1128      3A256C64 
 1129 0085 000000   		.align	2
 1130              	.LC15:
 1131 0088 53593A25 		.ascii	"SY:%ld ACK:%s C:%02lX\000"
 1131      6C642041 
 1131      434B3A25 
 1131      7320433A 
 1131      2530326C 
 1132 009e 0000     		.align	2
 1133              	.LC16:
 1134 00a0 25752F25 		.ascii	"%u/%u %s\000"
 1134      75202573 
 1134      00
 1135 00a9 000000   		.align	2
 1136              	.LC17:
 1137 00ac 4355523A 		.ascii	"CUR:%s\000"
 1137      257300
ARM GAS  /tmp/ccJMlkfl.s 			page 37


 1138 00b3 00       		.align	2
 1139              	.LC18:
 1140 00b4 494E203A 		.ascii	"IN :%s\000"
 1140      257300
 1141 00bb 00       		.align	2
 1142              	.LC19:
 1143 00bc 55502F44 		.ascii	"UP/DN:sel NUM:in\000"
 1143      4E3A7365 
 1143      6C204E55 
 1143      4D3A696E 
 1143      00
 1144 00cd 000000   		.align	2
 1145              	.LC20:
 1146 00d0 4F4B3A61 		.ascii	"OK:apply *:clr\000"
 1146      70706C79 
 1146      202A3A63 
 1146      6C7200
 1147 00df 00       		.align	2
 1148              	.LC21:
 1149 00e0 233A6261 		.ascii	"#:backspace\000"
 1149      636B7370 
 1149      61636500 
 1150              		.section	.text.APP_Menu_DefaultRender,"ax",%progbits
 1151              		.align	1
 1152              		.global	APP_Menu_DefaultRender
 1153              		.syntax unified
 1154              		.thumb
 1155              		.thumb_func
 1156              		.fpu softvfp
 1158              	APP_Menu_DefaultRender:
 1159              	.LVL91:
 1160              	.LFB13:
 337:Core/Src/app_menu.c ****   if (node == 0)
 1161              		.loc 1 337 1 is_stmt 1 view -0
 1162              		.cfi_startproc
 1163              		@ args = 0, pretend = 0, frame = 136
 1164              		@ frame_needed = 0, uses_anonymous_args = 0
 338:Core/Src/app_menu.c ****   {
 1165              		.loc 1 338 3 view .LVU313
 338:Core/Src/app_menu.c ****   {
 1166              		.loc 1 338 6 is_stmt 0 view .LVU314
 1167 0000 0028     		cmp	r0, #0
 1168 0002 00F06B81 		beq	.L126
 337:Core/Src/app_menu.c ****   if (node == 0)
 1169              		.loc 1 337 1 view .LVU315
 1170 0006 30B5     		push	{r4, r5, lr}
 1171              	.LCFI17:
 1172              		.cfi_def_cfa_offset 12
 1173              		.cfi_offset 4, -12
 1174              		.cfi_offset 5, -8
 1175              		.cfi_offset 14, -4
 1176 0008 A7B0     		sub	sp, sp, #156
 1177              	.LCFI18:
 1178              		.cfi_def_cfa_offset 168
 1179 000a 0446     		mov	r4, r0
 344:Core/Src/app_menu.c **** 
 1180              		.loc 1 344 3 is_stmt 1 view .LVU316
ARM GAS  /tmp/ccJMlkfl.s 			page 38


 1181 000c 4168     		ldr	r1, [r0, #4]
 1182 000e 0020     		movs	r0, #0
 1183              	.LVL92:
 344:Core/Src/app_menu.c **** 
 1184              		.loc 1 344 3 is_stmt 0 view .LVU317
 1185 0010 FFF7FEFF 		bl	BSP_Lcd_PrintLine
 1186              	.LVL93:
 347:Core/Src/app_menu.c **** 
 1187              		.loc 1 347 3 is_stmt 1 view .LVU318
 1188 0014 0721     		movs	r1, #7
 1189 0016 0120     		movs	r0, #1
 1190 0018 FFF7FEFF 		bl	Menu_RenderBlankRows
 1191              	.LVL94:
 350:Core/Src/app_menu.c ****   {
 1192              		.loc 1 350 3 view .LVU319
 350:Core/Src/app_menu.c ****   {
 1193              		.loc 1 350 11 is_stmt 0 view .LVU320
 1194 001c 2388     		ldrh	r3, [r4]
 350:Core/Src/app_menu.c ****   {
 1195              		.loc 1 350 6 view .LVU321
 1196 001e 082B     		cmp	r3, #8
 1197 0020 09D0     		beq	.L129
 362:Core/Src/app_menu.c ****   {
 1198              		.loc 1 362 3 is_stmt 1 view .LVU322
 362:Core/Src/app_menu.c ****   {
 1199              		.loc 1 362 6 is_stmt 0 view .LVU323
 1200 0022 042B     		cmp	r3, #4
 1201 0024 1AD0     		beq	.L130
 374:Core/Src/app_menu.c ****   {
 1202              		.loc 1 374 3 is_stmt 1 view .LVU324
 374:Core/Src/app_menu.c ****   {
 1203              		.loc 1 374 6 is_stmt 0 view .LVU325
 1204 0026 63B3     		cbz	r3, .L121
 374:Core/Src/app_menu.c ****   {
 1205              		.loc 1 374 34 discriminator 1 view .LVU326
 1206 0028 022B     		cmp	r3, #2
 1207 002a 2AD0     		beq	.L121
 463:Core/Src/app_menu.c ****   {
 1208              		.loc 1 463 3 is_stmt 1 view .LVU327
 463:Core/Src/app_menu.c ****   {
 1209              		.loc 1 463 6 is_stmt 0 view .LVU328
 1210 002c 052B     		cmp	r3, #5
 1211 002e 00F0FC80 		beq	.L131
 1212              	.LVL95:
 1213              	.L115:
 508:Core/Src/app_menu.c **** 
 1214              		.loc 1 508 1 view .LVU329
 1215 0032 27B0     		add	sp, sp, #156
 1216              	.LCFI19:
 1217              		.cfi_remember_state
 1218              		.cfi_def_cfa_offset 12
 1219              		@ sp needed
 1220 0034 30BD     		pop	{r4, r5, pc}
 1221              	.LVL96:
 1222              	.L129:
 1223              	.LCFI20:
 1224              		.cfi_restore_state
ARM GAS  /tmp/ccJMlkfl.s 			page 39


 1225              	.LBB8:
 352:Core/Src/app_menu.c ****     if (APP_ParamDict_GetValue(PARAM_ID_UART_BAUDRATE, &baud))
 1226              		.loc 1 352 5 is_stmt 1 view .LVU330
 352:Core/Src/app_menu.c ****     if (APP_ParamDict_GetValue(PARAM_ID_UART_BAUDRATE, &baud))
 1227              		.loc 1 352 13 is_stmt 0 view .LVU331
 1228 0036 0023     		movs	r3, #0
 1229 0038 1A93     		str	r3, [sp, #104]
 353:Core/Src/app_menu.c ****     {
 1230              		.loc 1 353 5 is_stmt 1 view .LVU332
 353:Core/Src/app_menu.c ****     {
 1231              		.loc 1 353 9 is_stmt 0 view .LVU333
 1232 003a 1AA9     		add	r1, sp, #104
 1233 003c 0320     		movs	r0, #3
 1234 003e FFF7FEFF 		bl	APP_ParamDict_GetValue
 1235              	.LVL97:
 353:Core/Src/app_menu.c ****     {
 1236              		.loc 1 353 8 view .LVU334
 1237 0042 0028     		cmp	r0, #0
 1238 0044 F5D0     		beq	.L115
 1239              	.LBB9:
 355:Core/Src/app_menu.c ****       (void)snprintf(buf, sizeof(buf), "BAUD:%ld", (long)baud);
 1240              		.loc 1 355 7 is_stmt 1 view .LVU335
 356:Core/Src/app_menu.c ****       BSP_Lcd_PrintLine(1, buf);
 1241              		.loc 1 356 7 view .LVU336
 356:Core/Src/app_menu.c ****       BSP_Lcd_PrintLine(1, buf);
 1242              		.loc 1 356 13 is_stmt 0 view .LVU337
 1243 0046 1A9B     		ldr	r3, [sp, #104]
 1244 0048 A54A     		ldr	r2, .L132
 1245 004a 2021     		movs	r1, #32
 1246 004c 1EA8     		add	r0, sp, #120
 1247 004e FFF7FEFF 		bl	snprintf
 1248              	.LVL98:
 357:Core/Src/app_menu.c ****     }
 1249              		.loc 1 357 7 is_stmt 1 view .LVU338
 1250 0052 1EA9     		add	r1, sp, #120
 1251 0054 0120     		movs	r0, #1
 1252 0056 FFF7FEFF 		bl	BSP_Lcd_PrintLine
 1253              	.LVL99:
 1254              	.LBE9:
 359:Core/Src/app_menu.c ****   }
 1255              		.loc 1 359 5 view .LVU339
 1256 005a EAE7     		b	.L115
 1257              	.L130:
 1258              	.LBE8:
 1259              	.LBB10:
 364:Core/Src/app_menu.c ****     if (APP_ParamDict_GetValue(PARAM_ID_WORK_MODE, &mode))
 1260              		.loc 1 364 5 view .LVU340
 364:Core/Src/app_menu.c ****     if (APP_ParamDict_GetValue(PARAM_ID_WORK_MODE, &mode))
 1261              		.loc 1 364 13 is_stmt 0 view .LVU341
 1262 005c 0023     		movs	r3, #0
 1263 005e 1A93     		str	r3, [sp, #104]
 365:Core/Src/app_menu.c ****     {
 1264              		.loc 1 365 5 is_stmt 1 view .LVU342
 365:Core/Src/app_menu.c ****     {
 1265              		.loc 1 365 9 is_stmt 0 view .LVU343
 1266 0060 1AA9     		add	r1, sp, #104
 1267 0062 0120     		movs	r0, #1
ARM GAS  /tmp/ccJMlkfl.s 			page 40


 1268 0064 FFF7FEFF 		bl	APP_ParamDict_GetValue
 1269              	.LVL100:
 365:Core/Src/app_menu.c ****     {
 1270              		.loc 1 365 8 view .LVU344
 1271 0068 0028     		cmp	r0, #0
 1272 006a E2D0     		beq	.L115
 1273              	.LBB11:
 367:Core/Src/app_menu.c ****       (void)snprintf(buf, sizeof(buf), "MODE:%ld", (long)mode);
 1274              		.loc 1 367 7 is_stmt 1 view .LVU345
 368:Core/Src/app_menu.c ****       BSP_Lcd_PrintLine(1, buf);
 1275              		.loc 1 368 7 view .LVU346
 368:Core/Src/app_menu.c ****       BSP_Lcd_PrintLine(1, buf);
 1276              		.loc 1 368 13 is_stmt 0 view .LVU347
 1277 006c 1A9B     		ldr	r3, [sp, #104]
 1278 006e 9D4A     		ldr	r2, .L132+4
 1279 0070 2021     		movs	r1, #32
 1280 0072 1EA8     		add	r0, sp, #120
 1281 0074 FFF7FEFF 		bl	snprintf
 1282              	.LVL101:
 369:Core/Src/app_menu.c ****     }
 1283              		.loc 1 369 7 is_stmt 1 view .LVU348
 1284 0078 1EA9     		add	r1, sp, #120
 1285 007a 0120     		movs	r0, #1
 1286 007c FFF7FEFF 		bl	BSP_Lcd_PrintLine
 1287              	.LVL102:
 1288              	.LBE11:
 371:Core/Src/app_menu.c ****   }
 1289              		.loc 1 371 5 view .LVU349
 1290 0080 D7E7     		b	.L115
 1291              	.L121:
 1292              	.LBE10:
 1293              	.LBB12:
 376:Core/Src/app_menu.c ****     int32_t netJoin = 0;
 1294              		.loc 1 376 5 view .LVU350
 376:Core/Src/app_menu.c ****     int32_t netJoin = 0;
 1295              		.loc 1 376 13 is_stmt 0 view .LVU351
 1296 0082 0023     		movs	r3, #0
 1297 0084 0493     		str	r3, [sp, #16]
 376:Core/Src/app_menu.c ****     int32_t netJoin = 0;
 1298              		.loc 1 376 23 view .LVU352
 1299 0086 0593     		str	r3, [sp, #20]
 376:Core/Src/app_menu.c ****     int32_t netJoin = 0;
 1300              		.loc 1 376 35 view .LVU353
 1301 0088 0693     		str	r3, [sp, #24]
 377:Core/Src/app_menu.c ****     int32_t waveform = 0, bandwidth = 0, hopMode = 0;
 1302              		.loc 1 377 5 is_stmt 1 view .LVU354
 377:Core/Src/app_menu.c ****     int32_t waveform = 0, bandwidth = 0, hopMode = 0;
 1303              		.loc 1 377 13 is_stmt 0 view .LVU355
 1304 008a 0793     		str	r3, [sp, #28]
 378:Core/Src/app_menu.c ****     int32_t fixedFreq = 0, f1 = 0, f2 = 0, f3 = 0, f4 = 0;
 1305              		.loc 1 378 5 is_stmt 1 view .LVU356
 378:Core/Src/app_menu.c ****     int32_t fixedFreq = 0, f1 = 0, f2 = 0, f3 = 0, f4 = 0;
 1306              		.loc 1 378 13 is_stmt 0 view .LVU357
 1307 008c 0893     		str	r3, [sp, #32]
 378:Core/Src/app_menu.c ****     int32_t fixedFreq = 0, f1 = 0, f2 = 0, f3 = 0, f4 = 0;
 1308              		.loc 1 378 27 view .LVU358
 1309 008e 0993     		str	r3, [sp, #36]
ARM GAS  /tmp/ccJMlkfl.s 			page 41


 378:Core/Src/app_menu.c ****     int32_t fixedFreq = 0, f1 = 0, f2 = 0, f3 = 0, f4 = 0;
 1310              		.loc 1 378 42 view .LVU359
 1311 0090 0A93     		str	r3, [sp, #40]
 379:Core/Src/app_menu.c ****     int32_t spatialFilter = 0, syncMode = 0;
 1312              		.loc 1 379 5 is_stmt 1 view .LVU360
 379:Core/Src/app_menu.c ****     int32_t spatialFilter = 0, syncMode = 0;
 1313              		.loc 1 379 13 is_stmt 0 view .LVU361
 1314 0092 0B93     		str	r3, [sp, #44]
 379:Core/Src/app_menu.c ****     int32_t spatialFilter = 0, syncMode = 0;
 1315              		.loc 1 379 28 view .LVU362
 1316 0094 0C93     		str	r3, [sp, #48]
 379:Core/Src/app_menu.c ****     int32_t spatialFilter = 0, syncMode = 0;
 1317              		.loc 1 379 36 view .LVU363
 1318 0096 0D93     		str	r3, [sp, #52]
 379:Core/Src/app_menu.c ****     int32_t spatialFilter = 0, syncMode = 0;
 1319              		.loc 1 379 44 view .LVU364
 1320 0098 0E93     		str	r3, [sp, #56]
 379:Core/Src/app_menu.c ****     int32_t spatialFilter = 0, syncMode = 0;
 1321              		.loc 1 379 52 view .LVU365
 1322 009a 0F93     		str	r3, [sp, #60]
 380:Core/Src/app_menu.c ****     int32_t txPower = 0, txAtten = 0;
 1323              		.loc 1 380 5 is_stmt 1 view .LVU366
 380:Core/Src/app_menu.c ****     int32_t txPower = 0, txAtten = 0;
 1324              		.loc 1 380 13 is_stmt 0 view .LVU367
 1325 009c 1093     		str	r3, [sp, #64]
 380:Core/Src/app_menu.c ****     int32_t txPower = 0, txAtten = 0;
 1326              		.loc 1 380 32 view .LVU368
 1327 009e 1193     		str	r3, [sp, #68]
 381:Core/Src/app_menu.c ****     int32_t ackState = 0, ackCmd = 0;
 1328              		.loc 1 381 5 is_stmt 1 view .LVU369
 381:Core/Src/app_menu.c ****     int32_t ackState = 0, ackCmd = 0;
 1329              		.loc 1 381 13 is_stmt 0 view .LVU370
 1330 00a0 1293     		str	r3, [sp, #72]
 381:Core/Src/app_menu.c ****     int32_t ackState = 0, ackCmd = 0;
 1331              		.loc 1 381 26 view .LVU371
 1332 00a2 1393     		str	r3, [sp, #76]
 382:Core/Src/app_menu.c **** 
 1333              		.loc 1 382 5 is_stmt 1 view .LVU372
 382:Core/Src/app_menu.c **** 
 1334              		.loc 1 382 13 is_stmt 0 view .LVU373
 1335 00a4 1493     		str	r3, [sp, #80]
 382:Core/Src/app_menu.c **** 
 1336              		.loc 1 382 27 view .LVU374
 1337 00a6 1593     		str	r3, [sp, #84]
 384:Core/Src/app_menu.c ****     (void)APP_ParamDict_GetValue(PARAM_ID_TIME_MINUTE, &minute);
 1338              		.loc 1 384 5 is_stmt 1 view .LVU375
 384:Core/Src/app_menu.c ****     (void)APP_ParamDict_GetValue(PARAM_ID_TIME_MINUTE, &minute);
 1339              		.loc 1 384 11 is_stmt 0 view .LVU376
 1340 00a8 04A9     		add	r1, sp, #16
 1341 00aa 3C20     		movs	r0, #60
 1342 00ac FFF7FEFF 		bl	APP_ParamDict_GetValue
 1343              	.LVL103:
 385:Core/Src/app_menu.c ****     (void)APP_ParamDict_GetValue(PARAM_ID_TIME_SECOND, &second);
 1344              		.loc 1 385 5 is_stmt 1 view .LVU377
 385:Core/Src/app_menu.c ****     (void)APP_ParamDict_GetValue(PARAM_ID_TIME_SECOND, &second);
 1345              		.loc 1 385 11 is_stmt 0 view .LVU378
 1346 00b0 05A9     		add	r1, sp, #20
ARM GAS  /tmp/ccJMlkfl.s 			page 42


 1347 00b2 3D20     		movs	r0, #61
 1348 00b4 FFF7FEFF 		bl	APP_ParamDict_GetValue
 1349              	.LVL104:
 386:Core/Src/app_menu.c ****     (void)APP_ParamDict_GetValue(PARAM_ID_NET_JOIN_STATE, &netJoin);
 1350              		.loc 1 386 5 is_stmt 1 view .LVU379
 386:Core/Src/app_menu.c ****     (void)APP_ParamDict_GetValue(PARAM_ID_NET_JOIN_STATE, &netJoin);
 1351              		.loc 1 386 11 is_stmt 0 view .LVU380
 1352 00b8 06A9     		add	r1, sp, #24
 1353 00ba 3E20     		movs	r0, #62
 1354 00bc FFF7FEFF 		bl	APP_ParamDict_GetValue
 1355              	.LVL105:
 387:Core/Src/app_menu.c ****     (void)APP_ParamDict_GetValue(PARAM_ID_WAVEFORM_GEAR, &waveform);
 1356              		.loc 1 387 5 is_stmt 1 view .LVU381
 387:Core/Src/app_menu.c ****     (void)APP_ParamDict_GetValue(PARAM_ID_WAVEFORM_GEAR, &waveform);
 1357              		.loc 1 387 11 is_stmt 0 view .LVU382
 1358 00c0 07A9     		add	r1, sp, #28
 1359 00c2 3F20     		movs	r0, #63
 1360 00c4 FFF7FEFF 		bl	APP_ParamDict_GetValue
 1361              	.LVL106:
 388:Core/Src/app_menu.c ****     (void)APP_ParamDict_GetValue(PARAM_ID_SIGNAL_BANDWIDTH, &bandwidth);
 1362              		.loc 1 388 5 is_stmt 1 view .LVU383
 388:Core/Src/app_menu.c ****     (void)APP_ParamDict_GetValue(PARAM_ID_SIGNAL_BANDWIDTH, &bandwidth);
 1363              		.loc 1 388 11 is_stmt 0 view .LVU384
 1364 00c8 08A9     		add	r1, sp, #32
 1365 00ca 4020     		movs	r0, #64
 1366 00cc FFF7FEFF 		bl	APP_ParamDict_GetValue
 1367              	.LVL107:
 389:Core/Src/app_menu.c ****     (void)APP_ParamDict_GetValue(PARAM_ID_FREQ_HOP_MODE, &hopMode);
 1368              		.loc 1 389 5 is_stmt 1 view .LVU385
 389:Core/Src/app_menu.c ****     (void)APP_ParamDict_GetValue(PARAM_ID_FREQ_HOP_MODE, &hopMode);
 1369              		.loc 1 389 11 is_stmt 0 view .LVU386
 1370 00d0 09A9     		add	r1, sp, #36
 1371 00d2 4120     		movs	r0, #65
 1372 00d4 FFF7FEFF 		bl	APP_ParamDict_GetValue
 1373              	.LVL108:
 390:Core/Src/app_menu.c ****     (void)APP_ParamDict_GetValue(PARAM_ID_FIXED_FREQ, &fixedFreq);
 1374              		.loc 1 390 5 is_stmt 1 view .LVU387
 390:Core/Src/app_menu.c ****     (void)APP_ParamDict_GetValue(PARAM_ID_FIXED_FREQ, &fixedFreq);
 1375              		.loc 1 390 11 is_stmt 0 view .LVU388
 1376 00d8 0AA9     		add	r1, sp, #40
 1377 00da 4220     		movs	r0, #66
 1378 00dc FFF7FEFF 		bl	APP_ParamDict_GetValue
 1379              	.LVL109:
 391:Core/Src/app_menu.c ****     (void)APP_ParamDict_GetValue(PARAM_ID_ADAPT_FREQ1, &f1);
 1380              		.loc 1 391 5 is_stmt 1 view .LVU389
 391:Core/Src/app_menu.c ****     (void)APP_ParamDict_GetValue(PARAM_ID_ADAPT_FREQ1, &f1);
 1381              		.loc 1 391 11 is_stmt 0 view .LVU390
 1382 00e0 0BA9     		add	r1, sp, #44
 1383 00e2 4320     		movs	r0, #67
 1384 00e4 FFF7FEFF 		bl	APP_ParamDict_GetValue
 1385              	.LVL110:
 392:Core/Src/app_menu.c ****     (void)APP_ParamDict_GetValue(PARAM_ID_ADAPT_FREQ2, &f2);
 1386              		.loc 1 392 5 is_stmt 1 view .LVU391
 392:Core/Src/app_menu.c ****     (void)APP_ParamDict_GetValue(PARAM_ID_ADAPT_FREQ2, &f2);
 1387              		.loc 1 392 11 is_stmt 0 view .LVU392
 1388 00e8 0CA9     		add	r1, sp, #48
 1389 00ea 4420     		movs	r0, #68
ARM GAS  /tmp/ccJMlkfl.s 			page 43


 1390 00ec FFF7FEFF 		bl	APP_ParamDict_GetValue
 1391              	.LVL111:
 393:Core/Src/app_menu.c ****     (void)APP_ParamDict_GetValue(PARAM_ID_ADAPT_FREQ3, &f3);
 1392              		.loc 1 393 5 is_stmt 1 view .LVU393
 393:Core/Src/app_menu.c ****     (void)APP_ParamDict_GetValue(PARAM_ID_ADAPT_FREQ3, &f3);
 1393              		.loc 1 393 11 is_stmt 0 view .LVU394
 1394 00f0 0DA9     		add	r1, sp, #52
 1395 00f2 4520     		movs	r0, #69
 1396 00f4 FFF7FEFF 		bl	APP_ParamDict_GetValue
 1397              	.LVL112:
 394:Core/Src/app_menu.c ****     (void)APP_ParamDict_GetValue(PARAM_ID_ADAPT_FREQ4, &f4);
 1398              		.loc 1 394 5 is_stmt 1 view .LVU395
 394:Core/Src/app_menu.c ****     (void)APP_ParamDict_GetValue(PARAM_ID_ADAPT_FREQ4, &f4);
 1399              		.loc 1 394 11 is_stmt 0 view .LVU396
 1400 00f8 0EA9     		add	r1, sp, #56
 1401 00fa 4620     		movs	r0, #70
 1402 00fc FFF7FEFF 		bl	APP_ParamDict_GetValue
 1403              	.LVL113:
 395:Core/Src/app_menu.c ****     (void)APP_ParamDict_GetValue(PARAM_ID_SPATIAL_FILTER, &spatialFilter);
 1404              		.loc 1 395 5 is_stmt 1 view .LVU397
 395:Core/Src/app_menu.c ****     (void)APP_ParamDict_GetValue(PARAM_ID_SPATIAL_FILTER, &spatialFilter);
 1405              		.loc 1 395 11 is_stmt 0 view .LVU398
 1406 0100 0FA9     		add	r1, sp, #60
 1407 0102 4720     		movs	r0, #71
 1408 0104 FFF7FEFF 		bl	APP_ParamDict_GetValue
 1409              	.LVL114:
 396:Core/Src/app_menu.c ****     (void)APP_ParamDict_GetValue(PARAM_ID_SYNC_MODE, &syncMode);
 1410              		.loc 1 396 5 is_stmt 1 view .LVU399
 396:Core/Src/app_menu.c ****     (void)APP_ParamDict_GetValue(PARAM_ID_SYNC_MODE, &syncMode);
 1411              		.loc 1 396 11 is_stmt 0 view .LVU400
 1412 0108 10A9     		add	r1, sp, #64
 1413 010a 4820     		movs	r0, #72
 1414 010c FFF7FEFF 		bl	APP_ParamDict_GetValue
 1415              	.LVL115:
 397:Core/Src/app_menu.c ****     (void)APP_ParamDict_GetValue(PARAM_ID_TX_POWER, &txPower);
 1416              		.loc 1 397 5 is_stmt 1 view .LVU401
 397:Core/Src/app_menu.c ****     (void)APP_ParamDict_GetValue(PARAM_ID_TX_POWER, &txPower);
 1417              		.loc 1 397 11 is_stmt 0 view .LVU402
 1418 0110 11A9     		add	r1, sp, #68
 1419 0112 4920     		movs	r0, #73
 1420 0114 FFF7FEFF 		bl	APP_ParamDict_GetValue
 1421              	.LVL116:
 398:Core/Src/app_menu.c ****     (void)APP_ParamDict_GetValue(PARAM_ID_TX_POWER_ATTEN, &txAtten);
 1422              		.loc 1 398 5 is_stmt 1 view .LVU403
 398:Core/Src/app_menu.c ****     (void)APP_ParamDict_GetValue(PARAM_ID_TX_POWER_ATTEN, &txAtten);
 1423              		.loc 1 398 11 is_stmt 0 view .LVU404
 1424 0118 12A9     		add	r1, sp, #72
 1425 011a 4A20     		movs	r0, #74
 1426 011c FFF7FEFF 		bl	APP_ParamDict_GetValue
 1427              	.LVL117:
 399:Core/Src/app_menu.c ****     (void)APP_ParamDict_GetValue(PARAM_ID_UART_ACK_STATE, &ackState);
 1428              		.loc 1 399 5 is_stmt 1 view .LVU405
 399:Core/Src/app_menu.c ****     (void)APP_ParamDict_GetValue(PARAM_ID_UART_ACK_STATE, &ackState);
 1429              		.loc 1 399 11 is_stmt 0 view .LVU406
 1430 0120 13A9     		add	r1, sp, #76
 1431 0122 4B20     		movs	r0, #75
 1432 0124 FFF7FEFF 		bl	APP_ParamDict_GetValue
ARM GAS  /tmp/ccJMlkfl.s 			page 44


 1433              	.LVL118:
 400:Core/Src/app_menu.c ****     (void)APP_ParamDict_GetValue(PARAM_ID_UART_ACK_CMD, &ackCmd);
 1434              		.loc 1 400 5 is_stmt 1 view .LVU407
 400:Core/Src/app_menu.c ****     (void)APP_ParamDict_GetValue(PARAM_ID_UART_ACK_CMD, &ackCmd);
 1435              		.loc 1 400 11 is_stmt 0 view .LVU408
 1436 0128 14A9     		add	r1, sp, #80
 1437 012a 5A20     		movs	r0, #90
 1438 012c FFF7FEFF 		bl	APP_ParamDict_GetValue
 1439              	.LVL119:
 401:Core/Src/app_menu.c **** 
 1440              		.loc 1 401 5 is_stmt 1 view .LVU409
 401:Core/Src/app_menu.c **** 
 1441              		.loc 1 401 11 is_stmt 0 view .LVU410
 1442 0130 15A9     		add	r1, sp, #84
 1443 0132 5B20     		movs	r0, #91
 1444 0134 FFF7FEFF 		bl	APP_ParamDict_GetValue
 1445              	.LVL120:
 1446              	.LBB13:
 404:Core/Src/app_menu.c ****       (void)snprintf(buf, sizeof(buf), "T:%02ld:%02ld:%02ld N:%ld",
 1447              		.loc 1 404 7 is_stmt 1 view .LVU411
 405:Core/Src/app_menu.c ****                      (long)hour, (long)minute, (long)second, (long)netJoin);
 1448              		.loc 1 405 7 view .LVU412
 405:Core/Src/app_menu.c ****                      (long)hour, (long)minute, (long)second, (long)netJoin);
 1449              		.loc 1 405 13 is_stmt 0 view .LVU413
 1450 0138 079B     		ldr	r3, [sp, #28]
 1451 013a 0293     		str	r3, [sp, #8]
 1452 013c 069B     		ldr	r3, [sp, #24]
 1453 013e 0193     		str	r3, [sp, #4]
 1454 0140 059B     		ldr	r3, [sp, #20]
 1455 0142 0093     		str	r3, [sp]
 1456 0144 049B     		ldr	r3, [sp, #16]
 1457 0146 684A     		ldr	r2, .L132+8
 1458 0148 2021     		movs	r1, #32
 1459 014a 1EA8     		add	r0, sp, #120
 1460 014c FFF7FEFF 		bl	snprintf
 1461              	.LVL121:
 407:Core/Src/app_menu.c ****     }
 1462              		.loc 1 407 7 is_stmt 1 view .LVU414
 1463 0150 1EA9     		add	r1, sp, #120
 1464 0152 0120     		movs	r0, #1
 1465 0154 FFF7FEFF 		bl	BSP_Lcd_PrintLine
 1466              	.LVL122:
 1467              	.LBE13:
 1468              	.LBB14:
 411:Core/Src/app_menu.c ****       (void)snprintf(buf, sizeof(buf), "W:%ld B:%ld H:%ld",
 1469              		.loc 1 411 7 view .LVU415
 412:Core/Src/app_menu.c ****                      (long)waveform, (long)bandwidth, (long)hopMode);
 1470              		.loc 1 412 7 view .LVU416
 412:Core/Src/app_menu.c ****                      (long)waveform, (long)bandwidth, (long)hopMode);
 1471              		.loc 1 412 13 is_stmt 0 view .LVU417
 1472 0158 0A9B     		ldr	r3, [sp, #40]
 1473 015a 0193     		str	r3, [sp, #4]
 1474 015c 099B     		ldr	r3, [sp, #36]
 1475 015e 0093     		str	r3, [sp]
 1476 0160 089B     		ldr	r3, [sp, #32]
 1477 0162 624A     		ldr	r2, .L132+12
 1478 0164 2021     		movs	r1, #32
ARM GAS  /tmp/ccJMlkfl.s 			page 45


 1479 0166 1EA8     		add	r0, sp, #120
 1480 0168 FFF7FEFF 		bl	snprintf
 1481              	.LVL123:
 414:Core/Src/app_menu.c ****     }
 1482              		.loc 1 414 7 is_stmt 1 view .LVU418
 1483 016c 1EA9     		add	r1, sp, #120
 1484 016e 0220     		movs	r0, #2
 1485 0170 FFF7FEFF 		bl	BSP_Lcd_PrintLine
 1486              	.LVL124:
 1487              	.LBE14:
 1488              	.LBB15:
 418:Core/Src/app_menu.c ****       char buf[32];
 1489              		.loc 1 418 7 view .LVU419
 419:Core/Src/app_menu.c ****       Menu_FormatMilli(fbuf, sizeof(fbuf), fixedFreq);
 1490              		.loc 1 419 7 view .LVU420
 420:Core/Src/app_menu.c ****       (void)snprintf(buf, sizeof(buf), "FIX:%s", fbuf);
 1491              		.loc 1 420 7 view .LVU421
 1492 0174 0B9A     		ldr	r2, [sp, #44]
 1493 0176 1021     		movs	r1, #16
 1494 0178 1AA8     		add	r0, sp, #104
 1495 017a FFF7FEFF 		bl	Menu_FormatMilli
 1496              	.LVL125:
 421:Core/Src/app_menu.c ****       BSP_Lcd_PrintLine(3, buf);
 1497              		.loc 1 421 7 view .LVU422
 421:Core/Src/app_menu.c ****       BSP_Lcd_PrintLine(3, buf);
 1498              		.loc 1 421 13 is_stmt 0 view .LVU423
 1499 017e 1AAB     		add	r3, sp, #104
 1500 0180 5B4A     		ldr	r2, .L132+16
 1501 0182 2021     		movs	r1, #32
 1502 0184 1EA8     		add	r0, sp, #120
 1503 0186 FFF7FEFF 		bl	snprintf
 1504              	.LVL126:
 422:Core/Src/app_menu.c ****     }
 1505              		.loc 1 422 7 is_stmt 1 view .LVU424
 1506 018a 1EA9     		add	r1, sp, #120
 1507 018c 0320     		movs	r0, #3
 1508 018e FFF7FEFF 		bl	BSP_Lcd_PrintLine
 1509              	.LVL127:
 1510              	.LBE15:
 1511              	.LBB16:
 426:Core/Src/app_menu.c ****       char fbuf2[16];
 1512              		.loc 1 426 7 view .LVU425
 427:Core/Src/app_menu.c ****       char buf[32];
 1513              		.loc 1 427 7 view .LVU426
 428:Core/Src/app_menu.c ****       Menu_FormatMilli(fbuf1, sizeof(fbuf1), f1);
 1514              		.loc 1 428 7 view .LVU427
 429:Core/Src/app_menu.c ****       Menu_FormatMilli(fbuf2, sizeof(fbuf2), f2);
 1515              		.loc 1 429 7 view .LVU428
 1516 0192 0C9A     		ldr	r2, [sp, #48]
 1517 0194 1021     		movs	r1, #16
 1518 0196 16A8     		add	r0, sp, #88
 1519 0198 FFF7FEFF 		bl	Menu_FormatMilli
 1520              	.LVL128:
 430:Core/Src/app_menu.c ****       (void)snprintf(buf, sizeof(buf), "A1:%.7s A2:%.7s", fbuf1, fbuf2);
 1521              		.loc 1 430 7 view .LVU429
 1522 019c 0D9A     		ldr	r2, [sp, #52]
 1523 019e 1021     		movs	r1, #16
ARM GAS  /tmp/ccJMlkfl.s 			page 46


 1524 01a0 1AA8     		add	r0, sp, #104
 1525 01a2 FFF7FEFF 		bl	Menu_FormatMilli
 1526              	.LVL129:
 431:Core/Src/app_menu.c ****       BSP_Lcd_PrintLine(4, buf);
 1527              		.loc 1 431 7 view .LVU430
 431:Core/Src/app_menu.c ****       BSP_Lcd_PrintLine(4, buf);
 1528              		.loc 1 431 13 is_stmt 0 view .LVU431
 1529 01a6 1AAB     		add	r3, sp, #104
 1530 01a8 0093     		str	r3, [sp]
 1531 01aa 16AB     		add	r3, sp, #88
 1532 01ac 514A     		ldr	r2, .L132+20
 1533 01ae 2021     		movs	r1, #32
 1534 01b0 1EA8     		add	r0, sp, #120
 1535 01b2 FFF7FEFF 		bl	snprintf
 1536              	.LVL130:
 432:Core/Src/app_menu.c ****     }
 1537              		.loc 1 432 7 is_stmt 1 view .LVU432
 1538 01b6 1EA9     		add	r1, sp, #120
 1539 01b8 0420     		movs	r0, #4
 1540 01ba FFF7FEFF 		bl	BSP_Lcd_PrintLine
 1541              	.LVL131:
 1542              	.LBE16:
 1543              	.LBB17:
 436:Core/Src/app_menu.c ****       char fbuf4[16];
 1544              		.loc 1 436 7 view .LVU433
 437:Core/Src/app_menu.c ****       char buf[32];
 1545              		.loc 1 437 7 view .LVU434
 438:Core/Src/app_menu.c ****       Menu_FormatMilli(fbuf3, sizeof(fbuf3), f3);
 1546              		.loc 1 438 7 view .LVU435
 439:Core/Src/app_menu.c ****       Menu_FormatMilli(fbuf4, sizeof(fbuf4), f4);
 1547              		.loc 1 439 7 view .LVU436
 1548 01be 0E9A     		ldr	r2, [sp, #56]
 1549 01c0 1021     		movs	r1, #16
 1550 01c2 16A8     		add	r0, sp, #88
 1551 01c4 FFF7FEFF 		bl	Menu_FormatMilli
 1552              	.LVL132:
 440:Core/Src/app_menu.c ****       (void)snprintf(buf, sizeof(buf), "A3:%.7s A4:%.7s", fbuf3, fbuf4);
 1553              		.loc 1 440 7 view .LVU437
 1554 01c8 0F9A     		ldr	r2, [sp, #60]
 1555 01ca 1021     		movs	r1, #16
 1556 01cc 1AA8     		add	r0, sp, #104
 1557 01ce FFF7FEFF 		bl	Menu_FormatMilli
 1558              	.LVL133:
 441:Core/Src/app_menu.c ****       BSP_Lcd_PrintLine(5, buf);
 1559              		.loc 1 441 7 view .LVU438
 441:Core/Src/app_menu.c ****       BSP_Lcd_PrintLine(5, buf);
 1560              		.loc 1 441 13 is_stmt 0 view .LVU439
 1561 01d2 1AAB     		add	r3, sp, #104
 1562 01d4 0093     		str	r3, [sp]
 1563 01d6 16AB     		add	r3, sp, #88
 1564 01d8 474A     		ldr	r2, .L132+24
 1565 01da 2021     		movs	r1, #32
 1566 01dc 1EA8     		add	r0, sp, #120
 1567 01de FFF7FEFF 		bl	snprintf
 1568              	.LVL134:
 442:Core/Src/app_menu.c ****     }
 1569              		.loc 1 442 7 is_stmt 1 view .LVU440
ARM GAS  /tmp/ccJMlkfl.s 			page 47


 1570 01e2 1EA9     		add	r1, sp, #120
 1571 01e4 0520     		movs	r0, #5
 1572 01e6 FFF7FEFF 		bl	BSP_Lcd_PrintLine
 1573              	.LVL135:
 1574              	.LBE17:
 1575              	.LBB18:
 446:Core/Src/app_menu.c ****       (void)snprintf(buf, sizeof(buf), "P:%ld ATT:%ld SF:%ld",
 1576              		.loc 1 446 7 view .LVU441
 447:Core/Src/app_menu.c ****                      (long)txPower, (long)txAtten, (long)spatialFilter);
 1577              		.loc 1 447 7 view .LVU442
 447:Core/Src/app_menu.c ****                      (long)txPower, (long)txAtten, (long)spatialFilter);
 1578              		.loc 1 447 13 is_stmt 0 view .LVU443
 1579 01ea 109B     		ldr	r3, [sp, #64]
 1580 01ec 0193     		str	r3, [sp, #4]
 1581 01ee 139B     		ldr	r3, [sp, #76]
 1582 01f0 0093     		str	r3, [sp]
 1583 01f2 129B     		ldr	r3, [sp, #72]
 1584 01f4 414A     		ldr	r2, .L132+28
 1585 01f6 2021     		movs	r1, #32
 1586 01f8 1EA8     		add	r0, sp, #120
 1587 01fa FFF7FEFF 		bl	snprintf
 1588              	.LVL136:
 449:Core/Src/app_menu.c ****     }
 1589              		.loc 1 449 7 is_stmt 1 view .LVU444
 1590 01fe 1EA9     		add	r1, sp, #120
 1591 0200 0620     		movs	r0, #6
 1592 0202 FFF7FEFF 		bl	BSP_Lcd_PrintLine
 1593              	.LVL137:
 1594              	.LBE18:
 1595              	.LBB19:
 453:Core/Src/app_menu.c ****       (void)snprintf(buf, sizeof(buf), "SY:%ld ACK:%s C:%02lX",
 1596              		.loc 1 453 7 view .LVU445
 454:Core/Src/app_menu.c ****                      (long)syncMode,
 1597              		.loc 1 454 7 view .LVU446
 454:Core/Src/app_menu.c ****                      (long)syncMode,
 1598              		.loc 1 454 13 is_stmt 0 view .LVU447
 1599 0206 1498     		ldr	r0, [sp, #80]
 1600 0208 FFF7FEFF 		bl	Menu_AckStateText
 1601              	.LVL138:
 1602 020c 9DF85430 		ldrb	r3, [sp, #84]	@ zero_extendqisi2
 1603 0210 0193     		str	r3, [sp, #4]
 1604 0212 0090     		str	r0, [sp]
 1605 0214 119B     		ldr	r3, [sp, #68]
 1606 0216 3A4A     		ldr	r2, .L132+32
 1607 0218 2021     		movs	r1, #32
 1608 021a 1EA8     		add	r0, sp, #120
 1609 021c FFF7FEFF 		bl	snprintf
 1610              	.LVL139:
 458:Core/Src/app_menu.c ****     }
 1611              		.loc 1 458 7 is_stmt 1 view .LVU448
 1612 0220 1EA9     		add	r1, sp, #120
 1613 0222 0720     		movs	r0, #7
 1614 0224 FFF7FEFF 		bl	BSP_Lcd_PrintLine
 1615              	.LVL140:
 1616              	.LBE19:
 460:Core/Src/app_menu.c ****   }
 1617              		.loc 1 460 5 view .LVU449
ARM GAS  /tmp/ccJMlkfl.s 			page 48


 1618 0228 03E7     		b	.L115
 1619              	.L131:
 1620              	.LBE12:
 1621              	.LBB20:
 465:Core/Src/app_menu.c ****     const EditableParamItem_t *item;
 1622              		.loc 1 465 5 view .LVU450
 1623              	.LVL141:
 466:Core/Src/app_menu.c ****     int32_t current = 0;
 1624              		.loc 1 466 5 view .LVU451
 467:Core/Src/app_menu.c **** 
 1625              		.loc 1 467 5 view .LVU452
 467:Core/Src/app_menu.c **** 
 1626              		.loc 1 467 13 is_stmt 0 view .LVU453
 1627 022a 0023     		movs	r3, #0
 1628 022c 1693     		str	r3, [sp, #88]
 469:Core/Src/app_menu.c ****     {
 1629              		.loc 1 469 5 is_stmt 1 view .LVU454
 469:Core/Src/app_menu.c ****     {
 1630              		.loc 1 469 26 is_stmt 0 view .LVU455
 1631 022e 354B     		ldr	r3, .L132+36
 1632 0230 1B78     		ldrb	r3, [r3]	@ zero_extendqisi2
 469:Core/Src/app_menu.c ****     {
 1633              		.loc 1 469 8 view .LVU456
 1634 0232 072B     		cmp	r3, #7
 1635 0234 02D9     		bls	.L123
 471:Core/Src/app_menu.c ****     }
 1636              		.loc 1 471 7 is_stmt 1 view .LVU457
 471:Core/Src/app_menu.c ****     }
 1637              		.loc 1 471 24 is_stmt 0 view .LVU458
 1638 0236 334B     		ldr	r3, .L132+36
 1639 0238 0022     		movs	r2, #0
 1640 023a 1A70     		strb	r2, [r3]
 1641              	.L123:
 474:Core/Src/app_menu.c ****     (void)APP_ParamDict_GetValue(item->id, &current);
 1642              		.loc 1 474 5 is_stmt 1 view .LVU459
 474:Core/Src/app_menu.c ****     (void)APP_ParamDict_GetValue(item->id, &current);
 1643              		.loc 1 474 29 is_stmt 0 view .LVU460
 1644 023c 314B     		ldr	r3, .L132+36
 1645 023e 1D78     		ldrb	r5, [r3]	@ zero_extendqisi2
 1646              	.LVL142:
 475:Core/Src/app_menu.c **** 
 1647              		.loc 1 475 5 is_stmt 1 view .LVU461
 475:Core/Src/app_menu.c **** 
 1648              		.loc 1 475 11 is_stmt 0 view .LVU462
 1649 0240 314B     		ldr	r3, .L132+40
 1650 0242 33F83540 		ldrh	r4, [r3, r5, lsl #3]
 1651              	.LVL143:
 475:Core/Src/app_menu.c **** 
 1652              		.loc 1 475 11 view .LVU463
 1653 0246 16A9     		add	r1, sp, #88
 1654 0248 2046     		mov	r0, r4
 1655 024a FFF7FEFF 		bl	APP_ParamDict_GetValue
 1656              	.LVL144:
 477:Core/Src/app_menu.c ****     {
 1657              		.loc 1 477 5 is_stmt 1 view .LVU464
 477:Core/Src/app_menu.c ****     {
 1658              		.loc 1 477 28 is_stmt 0 view .LVU465
ARM GAS  /tmp/ccJMlkfl.s 			page 49


 1659 024e 2F4B     		ldr	r3, .L132+44
 1660 0250 1B78     		ldrb	r3, [r3]	@ zero_extendqisi2
 477:Core/Src/app_menu.c ****     {
 1661              		.loc 1 477 8 view .LVU466
 1662 0252 13B9     		cbnz	r3, .L124
 479:Core/Src/app_menu.c ****     }
 1663              		.loc 1 479 7 is_stmt 1 view .LVU467
 479:Core/Src/app_menu.c ****     }
 1664              		.loc 1 479 25 is_stmt 0 view .LVU468
 1665 0254 2E4B     		ldr	r3, .L132+48
 1666 0256 169A     		ldr	r2, [sp, #88]
 1667 0258 1A60     		str	r2, [r3]
 1668              	.L124:
 1669              	.LBB21:
 483:Core/Src/app_menu.c ****       char buf[32];
 1670              		.loc 1 483 7 is_stmt 1 view .LVU469
 484:Core/Src/app_menu.c ****       Menu_RenderParamValue(item->id, current, valueBuf, sizeof(valueBuf));
 1671              		.loc 1 484 7 view .LVU470
 485:Core/Src/app_menu.c ****       (void)snprintf(buf, sizeof(buf), "%u/%u %s",
 1672              		.loc 1 485 7 view .LVU471
 1673 025a 1023     		movs	r3, #16
 1674 025c 1AAA     		add	r2, sp, #104
 1675 025e 1699     		ldr	r1, [sp, #88]
 1676 0260 2046     		mov	r0, r4
 1677 0262 FFF7FEFF 		bl	Menu_RenderParamValue
 1678              	.LVL145:
 486:Core/Src/app_menu.c ****                      (unsigned int)(s_paramEditIndex + 1u),
 1679              		.loc 1 486 7 view .LVU472
 486:Core/Src/app_menu.c ****                      (unsigned int)(s_paramEditIndex + 1u),
 1680              		.loc 1 486 13 is_stmt 0 view .LVU473
 1681 0266 274B     		ldr	r3, .L132+36
 1682 0268 1B78     		ldrb	r3, [r3]	@ zero_extendqisi2
 1683 026a 274A     		ldr	r2, .L132+40
 1684 026c 02EBC502 		add	r2, r2, r5, lsl #3
 1685 0270 5268     		ldr	r2, [r2, #4]
 1686 0272 0192     		str	r2, [sp, #4]
 1687 0274 0822     		movs	r2, #8
 1688 0276 0092     		str	r2, [sp]
 1689 0278 0133     		adds	r3, r3, #1
 1690 027a 264A     		ldr	r2, .L132+52
 1691 027c 2021     		movs	r1, #32
 1692 027e 1EA8     		add	r0, sp, #120
 1693 0280 FFF7FEFF 		bl	snprintf
 1694              	.LVL146:
 490:Core/Src/app_menu.c ****       (void)snprintf(buf, sizeof(buf), "CUR:%s", valueBuf);
 1695              		.loc 1 490 7 is_stmt 1 view .LVU474
 1696 0284 1EA9     		add	r1, sp, #120
 1697 0286 0120     		movs	r0, #1
 1698 0288 FFF7FEFF 		bl	BSP_Lcd_PrintLine
 1699              	.LVL147:
 491:Core/Src/app_menu.c ****       BSP_Lcd_PrintLine(2, buf);
 1700              		.loc 1 491 7 view .LVU475
 491:Core/Src/app_menu.c ****       BSP_Lcd_PrintLine(2, buf);
 1701              		.loc 1 491 13 is_stmt 0 view .LVU476
 1702 028c 1AAB     		add	r3, sp, #104
 1703 028e 224A     		ldr	r2, .L132+56
 1704 0290 2021     		movs	r1, #32
ARM GAS  /tmp/ccJMlkfl.s 			page 50


 1705 0292 1EA8     		add	r0, sp, #120
 1706 0294 FFF7FEFF 		bl	snprintf
 1707              	.LVL148:
 492:Core/Src/app_menu.c ****     }
 1708              		.loc 1 492 7 is_stmt 1 view .LVU477
 1709 0298 1EA9     		add	r1, sp, #120
 1710 029a 0220     		movs	r0, #2
 1711 029c FFF7FEFF 		bl	BSP_Lcd_PrintLine
 1712              	.LVL149:
 1713              	.LBE21:
 1714              	.LBB22:
 496:Core/Src/app_menu.c ****       char buf[32];
 1715              		.loc 1 496 7 view .LVU478
 497:Core/Src/app_menu.c ****       Menu_RenderParamValue(item->id, s_paramInputValue, inputBuf, sizeof(inputBuf));
 1716              		.loc 1 497 7 view .LVU479
 498:Core/Src/app_menu.c ****       (void)snprintf(buf, sizeof(buf), "IN :%s", inputBuf);
 1717              		.loc 1 498 7 view .LVU480
 1718 02a0 1023     		movs	r3, #16
 1719 02a2 1AAA     		add	r2, sp, #104
 1720 02a4 1A49     		ldr	r1, .L132+48
 1721 02a6 0968     		ldr	r1, [r1]
 1722 02a8 2046     		mov	r0, r4
 1723 02aa FFF7FEFF 		bl	Menu_RenderParamValue
 1724              	.LVL150:
 499:Core/Src/app_menu.c ****       BSP_Lcd_PrintLine(3, buf);
 1725              		.loc 1 499 7 view .LVU481
 499:Core/Src/app_menu.c ****       BSP_Lcd_PrintLine(3, buf);
 1726              		.loc 1 499 13 is_stmt 0 view .LVU482
 1727 02ae 1AAB     		add	r3, sp, #104
 1728 02b0 1A4A     		ldr	r2, .L132+60
 1729 02b2 2021     		movs	r1, #32
 1730 02b4 1EA8     		add	r0, sp, #120
 1731 02b6 FFF7FEFF 		bl	snprintf
 1732              	.LVL151:
 500:Core/Src/app_menu.c ****     }
 1733              		.loc 1 500 7 is_stmt 1 view .LVU483
 1734 02ba 1EA9     		add	r1, sp, #120
 1735 02bc 0320     		movs	r0, #3
 1736 02be FFF7FEFF 		bl	BSP_Lcd_PrintLine
 1737              	.LVL152:
 1738              	.LBE22:
 503:Core/Src/app_menu.c ****     BSP_Lcd_PrintLine(5, "OK:apply *:clr");
 1739              		.loc 1 503 5 view .LVU484
 1740 02c2 1749     		ldr	r1, .L132+64
 1741 02c4 0420     		movs	r0, #4
 1742 02c6 FFF7FEFF 		bl	BSP_Lcd_PrintLine
 1743              	.LVL153:
 504:Core/Src/app_menu.c ****     BSP_Lcd_PrintLine(6, "#:backspace");
 1744              		.loc 1 504 5 view .LVU485
 1745 02ca 1649     		ldr	r1, .L132+68
 1746 02cc 0520     		movs	r0, #5
 1747 02ce FFF7FEFF 		bl	BSP_Lcd_PrintLine
 1748              	.LVL154:
 505:Core/Src/app_menu.c ****     return;
 1749              		.loc 1 505 5 view .LVU486
 1750 02d2 1549     		ldr	r1, .L132+72
 1751 02d4 0620     		movs	r0, #6
ARM GAS  /tmp/ccJMlkfl.s 			page 51


 1752 02d6 FFF7FEFF 		bl	BSP_Lcd_PrintLine
 1753              	.LVL155:
 506:Core/Src/app_menu.c ****   }
 1754              		.loc 1 506 5 view .LVU487
 1755 02da AAE6     		b	.L115
 1756              	.LVL156:
 1757              	.L126:
 1758              	.LCFI21:
 1759              		.cfi_def_cfa_offset 0
 1760              		.cfi_restore 4
 1761              		.cfi_restore 5
 1762              		.cfi_restore 14
 506:Core/Src/app_menu.c ****   }
 1763              		.loc 1 506 5 is_stmt 0 view .LVU488
 1764 02dc 7047     		bx	lr
 1765              	.L133:
 1766 02de 00BF     		.align	2
 1767              	.L132:
 1768 02e0 00000000 		.word	.LC7
 1769 02e4 0C000000 		.word	.LC8
 1770 02e8 18000000 		.word	.LC9
 1771 02ec 34000000 		.word	.LC10
 1772 02f0 48000000 		.word	.LC11
 1773 02f4 50000000 		.word	.LC12
 1774 02f8 60000000 		.word	.LC13
 1775 02fc 70000000 		.word	.LC14
 1776 0300 88000000 		.word	.LC15
 1777 0304 00000000 		.word	.LANCHOR2
 1778 0308 00000000 		.word	.LANCHOR5
 1779 030c 00000000 		.word	.LANCHOR3
 1780 0310 00000000 		.word	.LANCHOR4
 1781 0314 A0000000 		.word	.LC16
 1782 0318 AC000000 		.word	.LC17
 1783 031c B4000000 		.word	.LC18
 1784 0320 BC000000 		.word	.LC19
 1785 0324 D0000000 		.word	.LC20
 1786 0328 E0000000 		.word	.LC21
 1787              	.LBE20:
 1788              		.cfi_endproc
 1789              	.LFE13:
 1791              		.section	.text.APP_Menu_Init,"ax",%progbits
 1792              		.align	1
 1793              		.global	APP_Menu_Init
 1794              		.syntax unified
 1795              		.thumb
 1796              		.thumb_func
 1797              		.fpu softvfp
 1799              	APP_Menu_Init:
 1800              	.LFB8:
 228:Core/Src/app_menu.c ****   /* 上电即显示 0x08 开机显示参数页。 */
 1801              		.loc 1 228 1 is_stmt 1 view -0
 1802              		.cfi_startproc
 1803              		@ args = 0, pretend = 0, frame = 0
 1804              		@ frame_needed = 0, uses_anonymous_args = 0
 1805 0000 10B5     		push	{r4, lr}
 1806              	.LCFI22:
 1807              		.cfi_def_cfa_offset 8
ARM GAS  /tmp/ccJMlkfl.s 			page 52


 1808              		.cfi_offset 4, -8
 1809              		.cfi_offset 14, -4
 230:Core/Src/app_menu.c ****   if (s_current->render_cb != 0)
 1810              		.loc 1 230 3 view .LVU490
 230:Core/Src/app_menu.c ****   if (s_current->render_cb != 0)
 1811              		.loc 1 230 13 is_stmt 0 view .LVU491
 1812 0002 034C     		ldr	r4, .L136
 1813 0004 0348     		ldr	r0, .L136+4
 1814 0006 2060     		str	r0, [r4]
 231:Core/Src/app_menu.c ****   {
 1815              		.loc 1 231 3 is_stmt 1 view .LVU492
 233:Core/Src/app_menu.c ****   }
 1816              		.loc 1 233 5 view .LVU493
 1817 0008 FFF7FEFF 		bl	APP_Menu_DefaultRender
 1818              	.LVL157:
 235:Core/Src/app_menu.c **** }
 1819              		.loc 1 235 3 view .LVU494
 236:Core/Src/app_menu.c **** 
 1820              		.loc 1 236 1 is_stmt 0 view .LVU495
 1821 000c 2068     		ldr	r0, [r4]
 1822 000e 10BD     		pop	{r4, pc}
 1823              	.L137:
 1824              		.align	2
 1825              	.L136:
 1826 0010 00000000 		.word	.LANCHOR0
 1827 0014 00000000 		.word	.LANCHOR6
 1828              		.cfi_endproc
 1829              	.LFE8:
 1831              		.section	.text.APP_Menu_GetCurrent,"ax",%progbits
 1832              		.align	1
 1833              		.global	APP_Menu_GetCurrent
 1834              		.syntax unified
 1835              		.thumb
 1836              		.thumb_func
 1837              		.fpu softvfp
 1839              	APP_Menu_GetCurrent:
 1840              	.LFB9:
 239:Core/Src/app_menu.c ****   return s_current;
 1841              		.loc 1 239 1 is_stmt 1 view -0
 1842              		.cfi_startproc
 1843              		@ args = 0, pretend = 0, frame = 0
 1844              		@ frame_needed = 0, uses_anonymous_args = 0
 1845              		@ link register save eliminated.
 240:Core/Src/app_menu.c **** }
 1846              		.loc 1 240 3 view .LVU497
 241:Core/Src/app_menu.c **** 
 1847              		.loc 1 241 1 is_stmt 0 view .LVU498
 1848 0000 014B     		ldr	r3, .L139
 1849 0002 1868     		ldr	r0, [r3]
 1850 0004 7047     		bx	lr
 1851              	.L140:
 1852 0006 00BF     		.align	2
 1853              	.L139:
 1854 0008 00000000 		.word	.LANCHOR0
 1855              		.cfi_endproc
 1856              	.LFE9:
 1858              		.section	.text.APP_Menu_RefreshCurrent,"ax",%progbits
ARM GAS  /tmp/ccJMlkfl.s 			page 53


 1859              		.align	1
 1860              		.global	APP_Menu_RefreshCurrent
 1861              		.syntax unified
 1862              		.thumb
 1863              		.thumb_func
 1864              		.fpu softvfp
 1866              	APP_Menu_RefreshCurrent:
 1867              	.LFB10:
 244:Core/Src/app_menu.c ****   if ((s_current != 0) && (s_current->render_cb != 0))
 1868              		.loc 1 244 1 is_stmt 1 view -0
 1869              		.cfi_startproc
 1870              		@ args = 0, pretend = 0, frame = 0
 1871              		@ frame_needed = 0, uses_anonymous_args = 0
 1872 0000 08B5     		push	{r3, lr}
 1873              	.LCFI23:
 1874              		.cfi_def_cfa_offset 8
 1875              		.cfi_offset 3, -8
 1876              		.cfi_offset 14, -4
 245:Core/Src/app_menu.c ****   {
 1877              		.loc 1 245 3 view .LVU500
 245:Core/Src/app_menu.c ****   {
 1878              		.loc 1 245 18 is_stmt 0 view .LVU501
 1879 0002 034B     		ldr	r3, .L144
 1880 0004 1868     		ldr	r0, [r3]
 245:Core/Src/app_menu.c ****   {
 1881              		.loc 1 245 6 view .LVU502
 1882 0006 10B1     		cbz	r0, .L141
 245:Core/Src/app_menu.c ****   {
 1883              		.loc 1 245 37 discriminator 1 view .LVU503
 1884 0008 4369     		ldr	r3, [r0, #20]
 245:Core/Src/app_menu.c ****   {
 1885              		.loc 1 245 24 discriminator 1 view .LVU504
 1886 000a 03B1     		cbz	r3, .L141
 247:Core/Src/app_menu.c ****   }
 1887              		.loc 1 247 5 is_stmt 1 view .LVU505
 1888 000c 9847     		blx	r3
 1889              	.LVL158:
 1890              	.L141:
 249:Core/Src/app_menu.c **** 
 1891              		.loc 1 249 1 is_stmt 0 view .LVU506
 1892 000e 08BD     		pop	{r3, pc}
 1893              	.L145:
 1894              		.align	2
 1895              	.L144:
 1896 0010 00000000 		.word	.LANCHOR0
 1897              		.cfi_endproc
 1898              	.LFE10:
 1900              		.section	.text.APP_Menu_HandleKey,"ax",%progbits
 1901              		.align	1
 1902              		.global	APP_Menu_HandleKey
 1903              		.syntax unified
 1904              		.thumb
 1905              		.thumb_func
 1906              		.fpu softvfp
 1908              	APP_Menu_HandleKey:
 1909              	.LVL159:
 1910              	.LFB12:
ARM GAS  /tmp/ccJMlkfl.s 			page 54


 311:Core/Src/app_menu.c ****   if (key == MENU_KEY_NONE)
 1911              		.loc 1 311 1 is_stmt 1 view -0
 1912              		.cfi_startproc
 1913              		@ args = 0, pretend = 0, frame = 0
 1914              		@ frame_needed = 0, uses_anonymous_args = 0
 312:Core/Src/app_menu.c ****   {
 1915              		.loc 1 312 3 view .LVU508
 312:Core/Src/app_menu.c ****   {
 1916              		.loc 1 312 6 is_stmt 0 view .LVU509
 1917 0000 70B1     		cbz	r0, .L154
 311:Core/Src/app_menu.c ****   if (key == MENU_KEY_NONE)
 1918              		.loc 1 311 1 view .LVU510
 1919 0002 10B5     		push	{r4, lr}
 1920              	.LCFI24:
 1921              		.cfi_def_cfa_offset 8
 1922              		.cfi_offset 4, -8
 1923              		.cfi_offset 14, -4
 1924 0004 0446     		mov	r4, r0
 318:Core/Src/app_menu.c ****   {
 1925              		.loc 1 318 3 is_stmt 1 view .LVU511
 318:Core/Src/app_menu.c ****   {
 1926              		.loc 1 318 18 is_stmt 0 view .LVU512
 1927 0006 0C4B     		ldr	r3, .L156
 1928 0008 1B68     		ldr	r3, [r3]
 318:Core/Src/app_menu.c ****   {
 1929              		.loc 1 318 6 view .LVU513
 1930 000a 1BB1     		cbz	r3, .L149
 318:Core/Src/app_menu.c ****   {
 1931              		.loc 1 318 37 discriminator 1 view .LVU514
 1932 000c 9B69     		ldr	r3, [r3, #24]
 318:Core/Src/app_menu.c ****   {
 1933              		.loc 1 318 24 discriminator 1 view .LVU515
 1934 000e 0BB1     		cbz	r3, .L149
 1935              	.LBB23:
 320:Core/Src/app_menu.c ****     if (handled != 0)
 1936              		.loc 1 320 5 is_stmt 1 view .LVU516
 320:Core/Src/app_menu.c ****     if (handled != 0)
 1937              		.loc 1 320 19 is_stmt 0 view .LVU517
 1938 0010 9847     		blx	r3
 1939              	.LVL160:
 321:Core/Src/app_menu.c ****     {
 1940              		.loc 1 321 5 is_stmt 1 view .LVU518
 321:Core/Src/app_menu.c ****     {
 1941              		.loc 1 321 8 is_stmt 0 view .LVU519
 1942 0012 40B9     		cbnz	r0, .L155
 1943              	.LVL161:
 1944              	.L149:
 321:Core/Src/app_menu.c ****     {
 1945              		.loc 1 321 8 view .LVU520
 1946              	.LBE23:
 332:Core/Src/app_menu.c ****   return s_current;
 1947              		.loc 1 332 3 is_stmt 1 view .LVU521
 1948 0014 2046     		mov	r0, r4
 1949 0016 FFF7FEFF 		bl	menu_default_navigate
 1950              	.LVL162:
 333:Core/Src/app_menu.c **** }
 1951              		.loc 1 333 3 view .LVU522
ARM GAS  /tmp/ccJMlkfl.s 			page 55


 333:Core/Src/app_menu.c **** }
 1952              		.loc 1 333 10 is_stmt 0 view .LVU523
 1953 001a 074B     		ldr	r3, .L156
 1954 001c 1868     		ldr	r0, [r3]
 1955              	.L146:
 334:Core/Src/app_menu.c **** 
 1956              		.loc 1 334 1 view .LVU524
 1957 001e 10BD     		pop	{r4, pc}
 1958              	.LVL163:
 1959              	.L154:
 1960              	.LCFI25:
 1961              		.cfi_def_cfa_offset 0
 1962              		.cfi_restore 4
 1963              		.cfi_restore 14
 314:Core/Src/app_menu.c ****   }
 1964              		.loc 1 314 5 is_stmt 1 view .LVU525
 314:Core/Src/app_menu.c ****   }
 1965              		.loc 1 314 12 is_stmt 0 view .LVU526
 1966 0020 054B     		ldr	r3, .L156
 1967 0022 1868     		ldr	r0, [r3]
 1968              	.LVL164:
 334:Core/Src/app_menu.c **** 
 1969              		.loc 1 334 1 view .LVU527
 1970 0024 7047     		bx	lr
 1971              	.LVL165:
 1972              	.L155:
 1973              	.LCFI26:
 1974              		.cfi_def_cfa_offset 8
 1975              		.cfi_offset 4, -8
 1976              		.cfi_offset 14, -4
 1977              	.LBB24:
 323:Core/Src/app_menu.c ****       {
 1978              		.loc 1 323 7 is_stmt 1 view .LVU528
 323:Core/Src/app_menu.c ****       {
 1979              		.loc 1 323 20 is_stmt 0 view .LVU529
 1980 0026 044B     		ldr	r3, .L156
 1981 0028 1868     		ldr	r0, [r3]
 1982              	.LVL166:
 323:Core/Src/app_menu.c ****       {
 1983              		.loc 1 323 20 view .LVU530
 1984 002a 4369     		ldr	r3, [r0, #20]
 323:Core/Src/app_menu.c ****       {
 1985              		.loc 1 323 10 view .LVU531
 1986 002c 03B1     		cbz	r3, .L150
 325:Core/Src/app_menu.c ****       }
 1987              		.loc 1 325 9 is_stmt 1 view .LVU532
 1988 002e 9847     		blx	r3
 1989              	.LVL167:
 1990              	.L150:
 327:Core/Src/app_menu.c ****     }
 1991              		.loc 1 327 7 view .LVU533
 327:Core/Src/app_menu.c ****     }
 1992              		.loc 1 327 14 is_stmt 0 view .LVU534
 1993 0030 014B     		ldr	r3, .L156
 1994 0032 1868     		ldr	r0, [r3]
 1995 0034 F3E7     		b	.L146
 1996              	.L157:
ARM GAS  /tmp/ccJMlkfl.s 			page 56


 1997 0036 00BF     		.align	2
 1998              	.L156:
 1999 0038 00000000 		.word	.LANCHOR0
 2000              	.LBE24:
 2001              		.cfi_endproc
 2002              	.LFE12:
 2004              		.section	.rodata.str1.4,"aMS",%progbits,1
 2005              		.align	2
 2006              	.LC22:
 2007 0000 484F505F 		.ascii	"HOP_MODE\000"
 2007      4D4F4445 
 2007      00
 2008 0009 000000   		.align	2
 2009              	.LC23:
 2010 000c 42414E44 		.ascii	"BANDWIDTH\000"
 2010      57494454 
 2010      4800
 2011 0016 0000     		.align	2
 2012              	.LC24:
 2013 0018 4649585F 		.ascii	"FIX_FREQ\000"
 2013      46524551 
 2013      00
 2014 0021 000000   		.align	2
 2015              	.LC25:
 2016 0024 41444150 		.ascii	"ADAPT_F1\000"
 2016      545F4631 
 2016      00
 2017 002d 000000   		.align	2
 2018              	.LC26:
 2019 0030 41444150 		.ascii	"ADAPT_F2\000"
 2019      545F4632 
 2019      00
 2020 0039 000000   		.align	2
 2021              	.LC27:
 2022 003c 41444150 		.ascii	"ADAPT_F3\000"
 2022      545F4633 
 2022      00
 2023 0045 000000   		.align	2
 2024              	.LC28:
 2025 0048 41444150 		.ascii	"ADAPT_F4\000"
 2025      545F4634 
 2025      00
 2026 0051 000000   		.align	2
 2027              	.LC29:
 2028 0054 57415645 		.ascii	"WAVEFORM\000"
 2028      464F524D 
 2028      00
 2029 005d 000000   		.align	2
 2030              	.LC30:
 2031 0060 42415544 		.ascii	"BAUD\000"
 2031      00
 2032 0065 000000   		.align	2
 2033              	.LC31:
 2034 0068 55415254 		.ascii	"UART\000"
 2034      00
 2035 006d 000000   		.align	2
 2036              	.LC32:
ARM GAS  /tmp/ccJMlkfl.s 			page 57


 2037 0070 4E455400 		.ascii	"NET\000"
 2038              		.align	2
 2039              	.LC33:
 2040 0074 50415241 		.ascii	"PARAM\000"
 2040      4D00
 2041 007a 0000     		.align	2
 2042              	.LC34:
 2043 007c 4F50204D 		.ascii	"OP MODE\000"
 2043      4F444500 
 2044              		.align	2
 2045              	.LC35:
 2046 0084 53455454 		.ascii	"SETTING\000"
 2046      494E4700 
 2047              		.align	2
 2048              	.LC36:
 2049 008c 46554E43 		.ascii	"FUNCTION\000"
 2049      54494F4E 
 2049      00
 2050 0095 000000   		.align	2
 2051              	.LC37:
 2052 0098 4F504552 		.ascii	"OPERATION\000"
 2052      4154494F 
 2052      4E00
 2053 00a2 0000     		.align	2
 2054              	.LC38:
 2055 00a4 4D41494E 		.ascii	"MAIN\000"
 2055      00
 2056              		.section	.bss.s_paramEditIndex,"aw",%nobits
 2057              		.set	.LANCHOR2,. + 0
 2060              	s_paramEditIndex:
 2061 0000 00       		.space	1
 2062              		.section	.bss.s_paramInputDigits,"aw",%nobits
 2063              		.set	.LANCHOR3,. + 0
 2066              	s_paramInputDigits:
 2067 0000 00       		.space	1
 2068              		.section	.bss.s_paramInputValue,"aw",%nobits
 2069              		.align	2
 2070              		.set	.LANCHOR4,. + 0
 2073              	s_paramInputValue:
 2074 0000 00000000 		.space	4
 2075              		.section	.data.s_current,"aw"
 2076              		.align	2
 2077              		.set	.LANCHOR0,. + 0
 2080              	s_current:
 2081 0000 00000000 		.word	s_root
 2082              		.section	.rodata.baudList.0,"a"
 2083              		.align	2
 2084              		.set	.LANCHOR1,. + 0
 2087              	baudList.0:
 2088 0000 80250000 		.word	9600
 2089 0004 004B0000 		.word	19200
 2090 0008 00960000 		.word	38400
 2091 000c 00E10000 		.word	57600
 2092 0010 00C20100 		.word	115200
 2093 0014 00840300 		.word	230400
 2094              		.section	.rodata.s_editableParams,"a"
 2095              		.align	2
ARM GAS  /tmp/ccJMlkfl.s 			page 58


 2096              		.set	.LANCHOR5,. + 0
 2099              	s_editableParams:
 2100 0000 4200     		.short	66
 2101 0002 0000     		.space	2
 2102 0004 00000000 		.word	.LC22
 2103 0008 4100     		.short	65
 2104 000a 0000     		.space	2
 2105 000c 0C000000 		.word	.LC23
 2106 0010 4300     		.short	67
 2107 0012 0000     		.space	2
 2108 0014 18000000 		.word	.LC24
 2109 0018 4400     		.short	68
 2110 001a 0000     		.space	2
 2111 001c 24000000 		.word	.LC25
 2112 0020 4500     		.short	69
 2113 0022 0000     		.space	2
 2114 0024 30000000 		.word	.LC26
 2115 0028 4600     		.short	70
 2116 002a 0000     		.space	2
 2117 002c 3C000000 		.word	.LC27
 2118 0030 4700     		.short	71
 2119 0032 0000     		.space	2
 2120 0034 48000000 		.word	.LC28
 2121 0038 4000     		.short	64
 2122 003a 0000     		.space	2
 2123 003c 54000000 		.word	.LC29
 2124              		.section	.rodata.s_function,"a"
 2125              		.align	2
 2126              		.set	.LANCHOR6,. + 0
 2129              	s_function:
 2130 0000 0200     		.short	2
 2131 0002 0000     		.space	2
 2132 0004 8C000000 		.word	.LC36
 2133 0008 00000000 		.word	s_root
 2134 000c 00000000 		.word	0
 2135 0010 00000000 		.word	s_setting
 2136 0014 00000000 		.word	APP_Menu_DefaultRender
 2137 0018 00000000 		.word	0
 2138              		.section	.rodata.s_operation,"a"
 2139              		.align	2
 2142              	s_operation:
 2143 0000 0100     		.short	1
 2144 0002 0000     		.space	2
 2145 0004 98000000 		.word	.LC37
 2146 0008 00000000 		.word	s_root
 2147 000c 00000000 		.word	s_operation_mode
 2148 0010 00000000 		.word	s_function
 2149 0014 00000000 		.word	APP_Menu_DefaultRender
 2150 0018 00000000 		.word	0
 2151              		.section	.rodata.s_operation_mode,"a"
 2152              		.align	2
 2155              	s_operation_mode:
 2156 0000 0400     		.short	4
 2157 0002 0000     		.space	2
 2158 0004 7C000000 		.word	.LC34
 2159 0008 00000000 		.word	s_operation
 2160 000c 00000000 		.word	0
ARM GAS  /tmp/ccJMlkfl.s 			page 59


 2161 0010 00000000 		.word	s_operation_param
 2162 0014 00000000 		.word	APP_Menu_DefaultRender
 2163 0018 00000000 		.word	MenuKeyHandler_WorkMode
 2164              		.section	.rodata.s_operation_param,"a"
 2165              		.align	2
 2168              	s_operation_param:
 2169 0000 0500     		.short	5
 2170 0002 0000     		.space	2
 2171 0004 74000000 		.word	.LC33
 2172 0008 00000000 		.word	s_operation
 2173 000c 00000000 		.word	0
 2174 0010 00000000 		.word	0
 2175 0014 00000000 		.word	APP_Menu_DefaultRender
 2176 0018 00000000 		.word	MenuKeyHandler_OperationParam
 2177              		.section	.rodata.s_root,"a"
 2178              		.align	2
 2181              	s_root:
 2182 0000 0000     		.short	0
 2183 0002 0000     		.space	2
 2184 0004 A4000000 		.word	.LC38
 2185 0008 00000000 		.word	0
 2186 000c 00000000 		.word	s_operation
 2187 0010 00000000 		.word	0
 2188 0014 00000000 		.word	APP_Menu_DefaultRender
 2189 0018 00000000 		.word	0
 2190              		.section	.rodata.s_setting,"a"
 2191              		.align	2
 2194              	s_setting:
 2195 0000 0300     		.short	3
 2196 0002 0000     		.space	2
 2197 0004 84000000 		.word	.LC35
 2198 0008 00000000 		.word	s_root
 2199 000c 00000000 		.word	s_setting_net
 2200 0010 00000000 		.word	0
 2201 0014 00000000 		.word	APP_Menu_DefaultRender
 2202 0018 00000000 		.word	0
 2203              		.section	.rodata.s_setting_net,"a"
 2204              		.align	2
 2207              	s_setting_net:
 2208 0000 0600     		.short	6
 2209 0002 0000     		.space	2
 2210 0004 70000000 		.word	.LC32
 2211 0008 00000000 		.word	s_setting
 2212 000c 00000000 		.word	0
 2213 0010 00000000 		.word	s_setting_uart
 2214 0014 00000000 		.word	APP_Menu_DefaultRender
 2215 0018 00000000 		.word	0
 2216              		.section	.rodata.s_setting_uart,"a"
 2217              		.align	2
 2220              	s_setting_uart:
 2221 0000 0700     		.short	7
 2222 0002 0000     		.space	2
 2223 0004 68000000 		.word	.LC31
 2224 0008 00000000 		.word	s_setting
 2225 000c 00000000 		.word	s_setting_uart_baud
 2226 0010 00000000 		.word	0
 2227 0014 00000000 		.word	APP_Menu_DefaultRender
ARM GAS  /tmp/ccJMlkfl.s 			page 60


 2228 0018 00000000 		.word	0
 2229              		.section	.rodata.s_setting_uart_baud,"a"
 2230              		.align	2
 2233              	s_setting_uart_baud:
 2234 0000 0800     		.short	8
 2235 0002 0000     		.space	2
 2236 0004 60000000 		.word	.LC30
 2237 0008 00000000 		.word	s_setting_uart
 2238 000c 00000000 		.word	0
 2239 0010 00000000 		.word	0
 2240 0014 00000000 		.word	APP_Menu_DefaultRender
 2241 0018 00000000 		.word	MenuKeyHandler_UartBaud
 2242              		.text
 2243              	.Letext0:
 2244              		.file 2 "/usr/lib/gcc/arm-none-eabi/10.3.1/include/stdint.h"
 2245              		.file 3 "Core/Inc/app_menu.h"
 2246              		.file 4 "Core/Inc/app_param_dict.h"
 2247              		.file 5 "/usr/lib/gcc/arm-none-eabi/10.3.1/include/stddef.h"
 2248              		.file 6 "Core/Inc/app_param_update.h"
 2249              		.file 7 "/usr/include/newlib/stdio.h"
 2250              		.file 8 "Core/Inc/bsp.h"
ARM GAS  /tmp/ccJMlkfl.s 			page 61


DEFINED SYMBOLS
                            *ABS*:0000000000000000 app_menu.c
     /tmp/ccJMlkfl.s:16     .text.Menu_KeyToDigit:0000000000000000 $t
     /tmp/ccJMlkfl.s:23     .text.Menu_KeyToDigit:0000000000000000 Menu_KeyToDigit
     /tmp/ccJMlkfl.s:40     .text.Menu_KeyToDigit:000000000000000a $d
     /tmp/ccJMlkfl.s:50     .text.Menu_KeyToDigit:0000000000000014 $t
     /tmp/ccJMlkfl.s:108    .rodata.Menu_AckStateText.str1.4:0000000000000000 $d
     /tmp/ccJMlkfl.s:121    .text.Menu_AckStateText:0000000000000000 $t
     /tmp/ccJMlkfl.s:127    .text.Menu_AckStateText:0000000000000000 Menu_AckStateText
     /tmp/ccJMlkfl.s:171    .text.Menu_AckStateText:000000000000001c $d
     /tmp/ccJMlkfl.s:179    .text.menu_default_navigate:0000000000000000 $t
     /tmp/ccJMlkfl.s:185    .text.menu_default_navigate:0000000000000000 menu_default_navigate
     /tmp/ccJMlkfl.s:212    .text.menu_default_navigate:0000000000000012 $d
     /tmp/ccJMlkfl.s:216    .text.menu_default_navigate:0000000000000016 $t
     /tmp/ccJMlkfl.s:314    .text.menu_default_navigate:0000000000000064 $d
     /tmp/ccJMlkfl.s:319    .text.MenuKeyHandler_UartBaud:0000000000000000 $t
     /tmp/ccJMlkfl.s:325    .text.MenuKeyHandler_UartBaud:0000000000000000 MenuKeyHandler_UartBaud
     /tmp/ccJMlkfl.s:444    .text.MenuKeyHandler_UartBaud:0000000000000058 $d
     /tmp/ccJMlkfl.s:449    .text.MenuKeyHandler_WorkMode:0000000000000000 $t
     /tmp/ccJMlkfl.s:455    .text.MenuKeyHandler_WorkMode:0000000000000000 MenuKeyHandler_WorkMode
     /tmp/ccJMlkfl.s:584    .text.MenuKeyHandler_OperationParam:0000000000000000 $t
     /tmp/ccJMlkfl.s:590    .text.MenuKeyHandler_OperationParam:0000000000000000 MenuKeyHandler_OperationParam
     /tmp/ccJMlkfl.s:869    .text.MenuKeyHandler_OperationParam:00000000000000fc $d
     /tmp/ccJMlkfl.s:879    .rodata.Menu_RenderBlankRows.str1.4:0000000000000000 $d
     /tmp/ccJMlkfl.s:883    .text.Menu_RenderBlankRows:0000000000000000 $t
     /tmp/ccJMlkfl.s:889    .text.Menu_RenderBlankRows:0000000000000000 Menu_RenderBlankRows
     /tmp/ccJMlkfl.s:939    .text.Menu_RenderBlankRows:000000000000001c $d
     /tmp/ccJMlkfl.s:944    .rodata.Menu_FormatMilli.str1.4:0000000000000000 $d
     /tmp/ccJMlkfl.s:948    .text.Menu_FormatMilli:0000000000000000 $t
     /tmp/ccJMlkfl.s:954    .text.Menu_FormatMilli:0000000000000000 Menu_FormatMilli
     /tmp/ccJMlkfl.s:1014   .text.Menu_FormatMilli:0000000000000030 $d
     /tmp/ccJMlkfl.s:1020   .rodata.Menu_RenderParamValue.str1.4:0000000000000000 $d
     /tmp/ccJMlkfl.s:1024   .text.Menu_RenderParamValue:0000000000000000 $t
     /tmp/ccJMlkfl.s:1030   .text.Menu_RenderParamValue:0000000000000000 Menu_RenderParamValue
     /tmp/ccJMlkfl.s:1100   .text.Menu_RenderParamValue:0000000000000034 $d
     /tmp/ccJMlkfl.s:1105   .rodata.APP_Menu_DefaultRender.str1.4:0000000000000000 $d
     /tmp/ccJMlkfl.s:1151   .text.APP_Menu_DefaultRender:0000000000000000 $t
     /tmp/ccJMlkfl.s:1158   .text.APP_Menu_DefaultRender:0000000000000000 APP_Menu_DefaultRender
     /tmp/ccJMlkfl.s:1768   .text.APP_Menu_DefaultRender:00000000000002e0 $d
     /tmp/ccJMlkfl.s:1792   .text.APP_Menu_Init:0000000000000000 $t
     /tmp/ccJMlkfl.s:1799   .text.APP_Menu_Init:0000000000000000 APP_Menu_Init
     /tmp/ccJMlkfl.s:1826   .text.APP_Menu_Init:0000000000000010 $d
     /tmp/ccJMlkfl.s:1832   .text.APP_Menu_GetCurrent:0000000000000000 $t
     /tmp/ccJMlkfl.s:1839   .text.APP_Menu_GetCurrent:0000000000000000 APP_Menu_GetCurrent
     /tmp/ccJMlkfl.s:1854   .text.APP_Menu_GetCurrent:0000000000000008 $d
     /tmp/ccJMlkfl.s:1859   .text.APP_Menu_RefreshCurrent:0000000000000000 $t
     /tmp/ccJMlkfl.s:1866   .text.APP_Menu_RefreshCurrent:0000000000000000 APP_Menu_RefreshCurrent
     /tmp/ccJMlkfl.s:1896   .text.APP_Menu_RefreshCurrent:0000000000000010 $d
     /tmp/ccJMlkfl.s:1901   .text.APP_Menu_HandleKey:0000000000000000 $t
     /tmp/ccJMlkfl.s:1908   .text.APP_Menu_HandleKey:0000000000000000 APP_Menu_HandleKey
     /tmp/ccJMlkfl.s:1999   .text.APP_Menu_HandleKey:0000000000000038 $d
     /tmp/ccJMlkfl.s:2005   .rodata.str1.4:0000000000000000 $d
     /tmp/ccJMlkfl.s:2060   .bss.s_paramEditIndex:0000000000000000 s_paramEditIndex
     /tmp/ccJMlkfl.s:2061   .bss.s_paramEditIndex:0000000000000000 $d
     /tmp/ccJMlkfl.s:2066   .bss.s_paramInputDigits:0000000000000000 s_paramInputDigits
     /tmp/ccJMlkfl.s:2067   .bss.s_paramInputDigits:0000000000000000 $d
     /tmp/ccJMlkfl.s:2069   .bss.s_paramInputValue:0000000000000000 $d
ARM GAS  /tmp/ccJMlkfl.s 			page 62


     /tmp/ccJMlkfl.s:2073   .bss.s_paramInputValue:0000000000000000 s_paramInputValue
     /tmp/ccJMlkfl.s:2076   .data.s_current:0000000000000000 $d
     /tmp/ccJMlkfl.s:2080   .data.s_current:0000000000000000 s_current
     /tmp/ccJMlkfl.s:2181   .rodata.s_root:0000000000000000 s_root
     /tmp/ccJMlkfl.s:2083   .rodata.baudList.0:0000000000000000 $d
     /tmp/ccJMlkfl.s:2087   .rodata.baudList.0:0000000000000000 baudList.0
     /tmp/ccJMlkfl.s:2095   .rodata.s_editableParams:0000000000000000 $d
     /tmp/ccJMlkfl.s:2099   .rodata.s_editableParams:0000000000000000 s_editableParams
     /tmp/ccJMlkfl.s:2125   .rodata.s_function:0000000000000000 $d
     /tmp/ccJMlkfl.s:2129   .rodata.s_function:0000000000000000 s_function
     /tmp/ccJMlkfl.s:2194   .rodata.s_setting:0000000000000000 s_setting
     /tmp/ccJMlkfl.s:2139   .rodata.s_operation:0000000000000000 $d
     /tmp/ccJMlkfl.s:2142   .rodata.s_operation:0000000000000000 s_operation
     /tmp/ccJMlkfl.s:2155   .rodata.s_operation_mode:0000000000000000 s_operation_mode
     /tmp/ccJMlkfl.s:2152   .rodata.s_operation_mode:0000000000000000 $d
     /tmp/ccJMlkfl.s:2168   .rodata.s_operation_param:0000000000000000 s_operation_param
     /tmp/ccJMlkfl.s:2165   .rodata.s_operation_param:0000000000000000 $d
     /tmp/ccJMlkfl.s:2178   .rodata.s_root:0000000000000000 $d
     /tmp/ccJMlkfl.s:2191   .rodata.s_setting:0000000000000000 $d
     /tmp/ccJMlkfl.s:2207   .rodata.s_setting_net:0000000000000000 s_setting_net
     /tmp/ccJMlkfl.s:2204   .rodata.s_setting_net:0000000000000000 $d
     /tmp/ccJMlkfl.s:2220   .rodata.s_setting_uart:0000000000000000 s_setting_uart
     /tmp/ccJMlkfl.s:2217   .rodata.s_setting_uart:0000000000000000 $d
     /tmp/ccJMlkfl.s:2233   .rodata.s_setting_uart_baud:0000000000000000 s_setting_uart_baud
     /tmp/ccJMlkfl.s:2230   .rodata.s_setting_uart_baud:0000000000000000 $d

UNDEFINED SYMBOLS
APP_ParamDict_GetValue
APP_ParamDict_TrySetValue
APP_ParamUpdate_Request
APP_ParamDict_FindById
BSP_Lcd_PrintLine
snprintf
