ARM GAS  /tmp/ccAWjcUT.s 			page 1


   1              		.cpu cortex-m3
   2              		.eabi_attribute 20, 1
   3              		.eabi_attribute 21, 1
   4              		.eabi_attribute 23, 3
   5              		.eabi_attribute 24, 1
   6              		.eabi_attribute 25, 1
   7              		.eabi_attribute 26, 1
   8              		.eabi_attribute 30, 1
   9              		.eabi_attribute 34, 1
  10              		.eabi_attribute 18, 4
  11              		.file	"app_uart_proto.c"
  12              		.text
  13              	.Ltext0:
  14              		.cfi_sections	.debug_frame
  15              		.section	.text.APP_UartProto_CalcCrc,"ax",%progbits
  16              		.align	1
  17              		.global	APP_UartProto_CalcCrc
  18              		.arch armv7-m
  19              		.syntax unified
  20              		.thumb
  21              		.thumb_func
  22              		.fpu softvfp
  24              	APP_UartProto_CalcCrc:
  25              	.LVL0:
  26              	.LFB0:
  27              		.file 1 "Core/Src/app_uart_proto.c"
   1:Core/Src/app_uart_proto.c **** #include "app_uart_proto.h"
   2:Core/Src/app_uart_proto.c **** #include "bsp.h"
   3:Core/Src/app_uart_proto.c **** 
   4:Core/Src/app_uart_proto.c **** /* 协议固定头尾 */
   5:Core/Src/app_uart_proto.c **** #define UART_FRAME_HEAD_H  0xD5u
   6:Core/Src/app_uart_proto.c **** #define UART_FRAME_HEAD_L  0x5Du
   7:Core/Src/app_uart_proto.c **** #define UART_FRAME_TAIL_H  0x5Du
   8:Core/Src/app_uart_proto.c **** #define UART_FRAME_TAIL_L  0xD5u
   9:Core/Src/app_uart_proto.c **** 
  10:Core/Src/app_uart_proto.c **** uint16_t APP_UartProto_CalcCrc(const uint8_t *data, uint16_t len)
  11:Core/Src/app_uart_proto.c **** {
  28              		.loc 1 11 1 view -0
  29              		.cfi_startproc
  30              		@ args = 0, pretend = 0, frame = 0
  31              		@ frame_needed = 0, uses_anonymous_args = 0
  12:Core/Src/app_uart_proto.c ****   uint16_t crc = 0xFFFFu;
  32              		.loc 1 12 3 view .LVU1
  13:Core/Src/app_uart_proto.c **** 
  14:Core/Src/app_uart_proto.c ****   if ((data == NULL) || (len == 0U))
  33              		.loc 1 14 3 view .LVU2
  34              		.loc 1 14 6 is_stmt 0 view .LVU3
  35 0000 28B3     		cbz	r0, .L9
  11:Core/Src/app_uart_proto.c ****   uint16_t crc = 0xFFFFu;
  36              		.loc 1 11 1 discriminator 1 view .LVU4
  37 0002 00B5     		push	{lr}
  38              	.LCFI0:
  39              		.cfi_def_cfa_offset 4
  40              		.cfi_offset 14, -4
  41 0004 8646     		mov	lr, r0
  42              		.loc 1 14 22 discriminator 1 view .LVU5
  43 0006 29B3     		cbz	r1, .L10
ARM GAS  /tmp/ccAWjcUT.s 			page 2


  44              	.LBB2:
  15:Core/Src/app_uart_proto.c ****   {
  16:Core/Src/app_uart_proto.c ****     return crc;
  17:Core/Src/app_uart_proto.c ****   }
  18:Core/Src/app_uart_proto.c **** 
  19:Core/Src/app_uart_proto.c ****   for (uint16_t i = 0U; i < len; ++i)
  45              		.loc 1 19 17 view .LVU6
  46 0008 4FF0000C 		mov	ip, #0
  47              	.LBE2:
  12:Core/Src/app_uart_proto.c **** 
  48              		.loc 1 12 12 view .LVU7
  49 000c 4FF6FF72 		movw	r2, #65535
  50 0010 10E0     		b	.L3
  51              	.LVL1:
  52              	.L5:
  53              	.LBB5:
  54              	.LBB3:
  20:Core/Src/app_uart_proto.c ****   {
  21:Core/Src/app_uart_proto.c ****     crc ^= (uint16_t)data[i];
  22:Core/Src/app_uart_proto.c ****     for (uint8_t j = 0U; j < 8U; ++j)
  23:Core/Src/app_uart_proto.c ****     {
  24:Core/Src/app_uart_proto.c ****       if ((crc & 0x0001u) != 0U)
  25:Core/Src/app_uart_proto.c ****       {
  26:Core/Src/app_uart_proto.c ****         crc = (uint16_t)((crc >> 1) ^ 0xA001u);
  27:Core/Src/app_uart_proto.c ****       }
  28:Core/Src/app_uart_proto.c ****       else
  29:Core/Src/app_uart_proto.c ****       {
  30:Core/Src/app_uart_proto.c ****         crc >>= 1;
  55              		.loc 1 30 9 is_stmt 1 view .LVU8
  56              		.loc 1 30 13 is_stmt 0 view .LVU9
  57 0012 5208     		lsrs	r2, r2, #1
  58              	.LVL2:
  59              	.L6:
  22:Core/Src/app_uart_proto.c ****     {
  60              		.loc 1 22 34 is_stmt 1 discriminator 2 view .LVU10
  61 0014 0133     		adds	r3, r3, #1
  62              	.LVL3:
  22:Core/Src/app_uart_proto.c ****     {
  63              		.loc 1 22 34 is_stmt 0 discriminator 2 view .LVU11
  64 0016 DBB2     		uxtb	r3, r3
  65              	.LVL4:
  66              	.L4:
  22:Core/Src/app_uart_proto.c ****     {
  67              		.loc 1 22 26 is_stmt 1 discriminator 1 view .LVU12
  22:Core/Src/app_uart_proto.c ****     {
  68              		.loc 1 22 5 is_stmt 0 discriminator 1 view .LVU13
  69 0018 072B     		cmp	r3, #7
  70 001a 07D8     		bhi	.L15
  24:Core/Src/app_uart_proto.c ****       {
  71              		.loc 1 24 7 is_stmt 1 view .LVU14
  24:Core/Src/app_uart_proto.c ****       {
  72              		.loc 1 24 10 is_stmt 0 view .LVU15
  73 001c 12F0010F 		tst	r2, #1
  74 0020 F7D0     		beq	.L5
  26:Core/Src/app_uart_proto.c ****       }
  75              		.loc 1 26 9 is_stmt 1 view .LVU16
  26:Core/Src/app_uart_proto.c ****       }
ARM GAS  /tmp/ccAWjcUT.s 			page 3


  76              		.loc 1 26 13 is_stmt 0 view .LVU17
  77 0022 4AF20100 		movw	r0, #40961
  78 0026 80EA5202 		eor	r2, r0, r2, lsr #1
  79              	.LVL5:
  26:Core/Src/app_uart_proto.c ****       }
  80              		.loc 1 26 13 view .LVU18
  81 002a F3E7     		b	.L6
  82              	.L15:
  26:Core/Src/app_uart_proto.c ****       }
  83              		.loc 1 26 13 view .LVU19
  84              	.LBE3:
  19:Core/Src/app_uart_proto.c ****   {
  85              		.loc 1 19 34 is_stmt 1 discriminator 2 view .LVU20
  86 002c 0CF1010C 		add	ip, ip, #1
  87              	.LVL6:
  19:Core/Src/app_uart_proto.c ****   {
  88              		.loc 1 19 34 is_stmt 0 discriminator 2 view .LVU21
  89 0030 1FFA8CFC 		uxth	ip, ip
  90              	.LVL7:
  91              	.L3:
  19:Core/Src/app_uart_proto.c ****   {
  92              		.loc 1 19 25 is_stmt 1 discriminator 1 view .LVU22
  19:Core/Src/app_uart_proto.c ****   {
  93              		.loc 1 19 3 is_stmt 0 discriminator 1 view .LVU23
  94 0034 8C45     		cmp	ip, r1
  95 0036 04D2     		bcs	.L16
  21:Core/Src/app_uart_proto.c ****     for (uint8_t j = 0U; j < 8U; ++j)
  96              		.loc 1 21 5 is_stmt 1 view .LVU24
  21:Core/Src/app_uart_proto.c ****     for (uint8_t j = 0U; j < 8U; ++j)
  97              		.loc 1 21 26 is_stmt 0 view .LVU25
  98 0038 1EF80C30 		ldrb	r3, [lr, ip]	@ zero_extendqisi2
  21:Core/Src/app_uart_proto.c ****     for (uint8_t j = 0U; j < 8U; ++j)
  99              		.loc 1 21 9 view .LVU26
 100 003c 5A40     		eors	r2, r2, r3
 101              	.LVL8:
  22:Core/Src/app_uart_proto.c ****     {
 102              		.loc 1 22 5 is_stmt 1 view .LVU27
 103              	.LBB4:
  22:Core/Src/app_uart_proto.c ****     {
 104              		.loc 1 22 10 view .LVU28
  22:Core/Src/app_uart_proto.c ****     {
 105              		.loc 1 22 18 is_stmt 0 view .LVU29
 106 003e 0023     		movs	r3, #0
  22:Core/Src/app_uart_proto.c ****     {
 107              		.loc 1 22 5 view .LVU30
 108 0040 EAE7     		b	.L4
 109              	.LVL9:
 110              	.L16:
  22:Core/Src/app_uart_proto.c ****     {
 111              		.loc 1 22 5 view .LVU31
 112              	.LBE4:
 113              	.LBE5:
  31:Core/Src/app_uart_proto.c ****       }
  32:Core/Src/app_uart_proto.c ****     }
  33:Core/Src/app_uart_proto.c ****   }
  34:Core/Src/app_uart_proto.c **** 
  35:Core/Src/app_uart_proto.c ****   /* 与主控板 CRC_Check 保持一致：返回前交换高低字节。 */
ARM GAS  /tmp/ccAWjcUT.s 			page 4


  36:Core/Src/app_uart_proto.c ****   crc = (uint16_t)((crc >> 8) | (crc << 8));
 114              		.loc 1 36 3 is_stmt 1 view .LVU32
 115              		.loc 1 36 31 is_stmt 0 view .LVU33
 116 0042 100A     		lsrs	r0, r2, #8
 117 0044 40EA0222 		orr	r2, r0, r2, lsl #8
 118              	.LVL10:
 119              		.loc 1 36 7 view .LVU34
 120 0048 90B2     		uxth	r0, r2
 121              	.LVL11:
  37:Core/Src/app_uart_proto.c **** 
  38:Core/Src/app_uart_proto.c ****   return crc;
 122              		.loc 1 38 3 is_stmt 1 view .LVU35
 123              	.L2:
  39:Core/Src/app_uart_proto.c **** }
 124              		.loc 1 39 1 is_stmt 0 view .LVU36
 125 004a 5DF804FB 		ldr	pc, [sp], #4
 126              	.LVL12:
 127              	.L9:
 128              	.LCFI1:
 129              		.cfi_def_cfa_offset 0
 130              		.cfi_restore 14
  16:Core/Src/app_uart_proto.c ****   }
 131              		.loc 1 16 12 view .LVU37
 132 004e 4FF6FF70 		movw	r0, #65535
 133              	.LVL13:
 134              		.loc 1 39 1 view .LVU38
 135 0052 7047     		bx	lr
 136              	.LVL14:
 137              	.L10:
 138              	.LCFI2:
 139              		.cfi_def_cfa_offset 4
 140              		.cfi_offset 14, -4
  16:Core/Src/app_uart_proto.c ****   }
 141              		.loc 1 16 12 view .LVU39
 142 0054 4FF6FF70 		movw	r0, #65535
 143              	.LVL15:
  16:Core/Src/app_uart_proto.c ****   }
 144              		.loc 1 16 12 view .LVU40
 145 0058 F7E7     		b	.L2
 146              		.cfi_endproc
 147              	.LFE0:
 149              		.section	.text.APP_UartProto_BuildFrame,"ax",%progbits
 150              		.align	1
 151              		.global	APP_UartProto_BuildFrame
 152              		.syntax unified
 153              		.thumb
 154              		.thumb_func
 155              		.fpu softvfp
 157              	APP_UartProto_BuildFrame:
 158              	.LVL16:
 159              	.LFB1:
  40:Core/Src/app_uart_proto.c **** 
  41:Core/Src/app_uart_proto.c **** size_t APP_UartProto_BuildFrame(uint8_t cmd,
  42:Core/Src/app_uart_proto.c ****                                 uint8_t msgType,
  43:Core/Src/app_uart_proto.c ****                                 const uint8_t *payload,
  44:Core/Src/app_uart_proto.c ****                                 uint16_t payloadLen,
  45:Core/Src/app_uart_proto.c ****                                 uint8_t *outBuf,
ARM GAS  /tmp/ccAWjcUT.s 			page 5


  46:Core/Src/app_uart_proto.c ****                                 uint16_t outBufSize)
  47:Core/Src/app_uart_proto.c **** {
 160              		.loc 1 47 1 is_stmt 1 view -0
 161              		.cfi_startproc
 162              		@ args = 8, pretend = 0, frame = 0
 163              		@ frame_needed = 0, uses_anonymous_args = 0
 164              		.loc 1 47 1 is_stmt 0 view .LVU42
 165 0000 38B5     		push	{r3, r4, r5, lr}
 166              	.LCFI3:
 167              		.cfi_def_cfa_offset 16
 168              		.cfi_offset 3, -16
 169              		.cfi_offset 4, -12
 170              		.cfi_offset 5, -8
 171              		.cfi_offset 14, -4
 172 0002 049D     		ldr	r5, [sp, #16]
  48:Core/Src/app_uart_proto.c ****   if (outBuf == NULL)
 173              		.loc 1 48 3 is_stmt 1 view .LVU43
 174              		.loc 1 48 6 is_stmt 0 view .LVU44
 175 0004 ADB3     		cbz	r5, .L22
  49:Core/Src/app_uart_proto.c ****   {
  50:Core/Src/app_uart_proto.c ****     return 0U;
  51:Core/Src/app_uart_proto.c ****   }
  52:Core/Src/app_uart_proto.c **** 
  53:Core/Src/app_uart_proto.c ****   /* 2(head) + 1(cmd) + 1(type) + N(payload) + 2(crc) + 2(tail) */
  54:Core/Src/app_uart_proto.c ****   const uint16_t totalLen = (uint16_t)(2U + 1U + 1U + payloadLen + 2U + 2U);
 176              		.loc 1 54 3 is_stmt 1 view .LVU45
 177              		.loc 1 54 18 is_stmt 0 view .LVU46
 178 0006 03F10804 		add	r4, r3, #8
 179 000a A4B2     		uxth	r4, r4
 180              	.LVL17:
  55:Core/Src/app_uart_proto.c ****   if (outBufSize < totalLen)
 181              		.loc 1 55 3 is_stmt 1 view .LVU47
 182              		.loc 1 55 6 is_stmt 0 view .LVU48
 183 000c BDF814C0 		ldrh	ip, [sp, #20]
 184 0010 6445     		cmp	r4, ip
 185 0012 30D8     		bhi	.L23
  56:Core/Src/app_uart_proto.c ****   {
  57:Core/Src/app_uart_proto.c ****     return 0U;
  58:Core/Src/app_uart_proto.c ****   }
  59:Core/Src/app_uart_proto.c **** 
  60:Core/Src/app_uart_proto.c ****   uint16_t idx = 0U;
 186              		.loc 1 60 3 is_stmt 1 view .LVU49
 187              	.LVL18:
  61:Core/Src/app_uart_proto.c **** 
  62:Core/Src/app_uart_proto.c ****   /* 帧头 */
  63:Core/Src/app_uart_proto.c ****   outBuf[idx++] = UART_FRAME_HEAD_H;
 188              		.loc 1 63 3 view .LVU50
 189              		.loc 1 63 17 is_stmt 0 view .LVU51
 190 0014 D524     		movs	r4, #213
 191              	.LVL19:
 192              		.loc 1 63 17 view .LVU52
 193 0016 2C70     		strb	r4, [r5]
  64:Core/Src/app_uart_proto.c ****   outBuf[idx++] = UART_FRAME_HEAD_L;
 194              		.loc 1 64 3 is_stmt 1 view .LVU53
 195              	.LVL20:
 196              		.loc 1 64 17 is_stmt 0 view .LVU54
 197 0018 5D24     		movs	r4, #93
ARM GAS  /tmp/ccAWjcUT.s 			page 6


 198 001a 6C70     		strb	r4, [r5, #1]
  65:Core/Src/app_uart_proto.c **** 
  66:Core/Src/app_uart_proto.c ****   /* 命令字 + 消息类型 */
  67:Core/Src/app_uart_proto.c ****   outBuf[idx++] = cmd;
 199              		.loc 1 67 3 is_stmt 1 view .LVU55
 200              	.LVL21:
 201              		.loc 1 67 17 is_stmt 0 view .LVU56
 202 001c A870     		strb	r0, [r5, #2]
  68:Core/Src/app_uart_proto.c ****   outBuf[idx++] = msgType;
 203              		.loc 1 68 3 is_stmt 1 view .LVU57
 204              	.LVL22:
 205              		.loc 1 68 17 is_stmt 0 view .LVU58
 206 001e E970     		strb	r1, [r5, #3]
  69:Core/Src/app_uart_proto.c **** 
  70:Core/Src/app_uart_proto.c ****   /* 数据域 */
  71:Core/Src/app_uart_proto.c ****   if ((payload != NULL) && (payloadLen > 0U))
 207              		.loc 1 71 3 is_stmt 1 view .LVU59
 208              		.loc 1 71 6 is_stmt 0 view .LVU60
 209 0020 2AB3     		cbz	r2, .L24
 210              		.loc 1 71 25 discriminator 1 view .LVU61
 211 0022 0BBB     		cbnz	r3, .L25
  68:Core/Src/app_uart_proto.c ****   outBuf[idx++] = msgType;
 212              		.loc 1 68 13 view .LVU62
 213 0024 0424     		movs	r4, #4
 214              	.LVL23:
 215              	.L19:
  72:Core/Src/app_uart_proto.c ****   {
  73:Core/Src/app_uart_proto.c ****     for (uint16_t i = 0U; i < payloadLen; ++i)
  74:Core/Src/app_uart_proto.c ****     {
  75:Core/Src/app_uart_proto.c ****       outBuf[idx++] = payload[i];
  76:Core/Src/app_uart_proto.c ****     }
  77:Core/Src/app_uart_proto.c ****   }
  78:Core/Src/app_uart_proto.c **** 
  79:Core/Src/app_uart_proto.c ****   /* CRC 计算范围：从 cmd 到数据域最后一个字节 */
  80:Core/Src/app_uart_proto.c ****   uint16_t crc = APP_UartProto_CalcCrc(&outBuf[2], (uint16_t)(2U + payloadLen));
 216              		.loc 1 80 3 is_stmt 1 view .LVU63
 217              		.loc 1 80 18 is_stmt 0 view .LVU64
 218 0026 0233     		adds	r3, r3, #2
 219              	.LVL24:
 220              		.loc 1 80 18 view .LVU65
 221 0028 99B2     		uxth	r1, r3
 222 002a A81C     		adds	r0, r5, #2
 223 002c FFF7FEFF 		bl	APP_UartProto_CalcCrc
 224              	.LVL25:
  81:Core/Src/app_uart_proto.c **** 
  82:Core/Src/app_uart_proto.c ****   /* 协议采用大端: 高字节在前 */
  83:Core/Src/app_uart_proto.c ****   outBuf[idx++] = (uint8_t)((crc >> 8) & 0xFFu);
 225              		.loc 1 83 3 is_stmt 1 view .LVU66
 226              		.loc 1 83 13 is_stmt 0 view .LVU67
 227 0030 631C     		adds	r3, r4, #1
 228 0032 9BB2     		uxth	r3, r3
 229              	.LVL26:
 230              		.loc 1 83 19 view .LVU68
 231 0034 C0F30722 		ubfx	r2, r0, #8, #8
 232              		.loc 1 83 17 view .LVU69
 233 0038 2A55     		strb	r2, [r5, r4]
  84:Core/Src/app_uart_proto.c ****   outBuf[idx++] = (uint8_t)(crc & 0xFFu);
ARM GAS  /tmp/ccAWjcUT.s 			page 7


 234              		.loc 1 84 3 is_stmt 1 view .LVU70
 235              		.loc 1 84 13 is_stmt 0 view .LVU71
 236 003a A21C     		adds	r2, r4, #2
 237 003c 92B2     		uxth	r2, r2
 238              	.LVL27:
 239              		.loc 1 84 17 view .LVU72
 240 003e E854     		strb	r0, [r5, r3]
  85:Core/Src/app_uart_proto.c **** 
  86:Core/Src/app_uart_proto.c ****   /* 帧尾 */
  87:Core/Src/app_uart_proto.c ****   outBuf[idx++] = UART_FRAME_TAIL_H;
 241              		.loc 1 87 3 is_stmt 1 view .LVU73
 242              		.loc 1 87 13 is_stmt 0 view .LVU74
 243 0040 E31C     		adds	r3, r4, #3
 244 0042 9BB2     		uxth	r3, r3
 245              	.LVL28:
 246              		.loc 1 87 17 view .LVU75
 247 0044 5D21     		movs	r1, #93
 248 0046 A954     		strb	r1, [r5, r2]
  88:Core/Src/app_uart_proto.c ****   outBuf[idx++] = UART_FRAME_TAIL_L;
 249              		.loc 1 88 3 is_stmt 1 view .LVU76
 250              		.loc 1 88 13 is_stmt 0 view .LVU77
 251 0048 201D     		adds	r0, r4, #4
 252              	.LVL29:
 253              		.loc 1 88 17 view .LVU78
 254 004a D522     		movs	r2, #213
 255 004c EA54     		strb	r2, [r5, r3]
  89:Core/Src/app_uart_proto.c **** 
  90:Core/Src/app_uart_proto.c ****   return idx;
 256              		.loc 1 90 3 is_stmt 1 view .LVU79
 257              		.loc 1 90 10 is_stmt 0 view .LVU80
 258 004e 80B2     		uxth	r0, r0
 259              	.LVL30:
 260              	.L17:
  91:Core/Src/app_uart_proto.c **** }
 261              		.loc 1 91 1 view .LVU81
 262 0050 38BD     		pop	{r3, r4, r5, pc}
 263              	.LVL31:
 264              	.L21:
 265              	.LBB6:
  75:Core/Src/app_uart_proto.c ****     }
 266              		.loc 1 75 7 is_stmt 1 discriminator 3 view .LVU82
  75:Core/Src/app_uart_proto.c ****     }
 267              		.loc 1 75 17 is_stmt 0 discriminator 3 view .LVU83
 268 0052 611C     		adds	r1, r4, #1
 269              	.LVL32:
  75:Core/Src/app_uart_proto.c ****     }
 270              		.loc 1 75 30 discriminator 3 view .LVU84
 271 0054 12F800C0 		ldrb	ip, [r2, r0]	@ zero_extendqisi2
  75:Core/Src/app_uart_proto.c ****     }
 272              		.loc 1 75 21 discriminator 3 view .LVU85
 273 0058 05F804C0 		strb	ip, [r5, r4]
  73:Core/Src/app_uart_proto.c ****     {
 274              		.loc 1 73 43 is_stmt 1 discriminator 3 view .LVU86
 275 005c 0130     		adds	r0, r0, #1
 276              	.LVL33:
  73:Core/Src/app_uart_proto.c ****     {
 277              		.loc 1 73 43 is_stmt 0 discriminator 3 view .LVU87
ARM GAS  /tmp/ccAWjcUT.s 			page 8


 278 005e 80B2     		uxth	r0, r0
 279              	.LVL34:
  75:Core/Src/app_uart_proto.c ****     }
 280              		.loc 1 75 17 discriminator 3 view .LVU88
 281 0060 8CB2     		uxth	r4, r1
 282              	.LVL35:
 283              	.L20:
  73:Core/Src/app_uart_proto.c ****     {
 284              		.loc 1 73 27 is_stmt 1 discriminator 1 view .LVU89
  73:Core/Src/app_uart_proto.c ****     {
 285              		.loc 1 73 5 is_stmt 0 discriminator 1 view .LVU90
 286 0062 9842     		cmp	r0, r3
 287 0064 F5D3     		bcc	.L21
 288 0066 DEE7     		b	.L19
 289              	.LVL36:
 290              	.L25:
  73:Core/Src/app_uart_proto.c ****     {
 291              		.loc 1 73 19 view .LVU91
 292 0068 0020     		movs	r0, #0
 293              	.LVL37:
  73:Core/Src/app_uart_proto.c ****     {
 294              		.loc 1 73 19 view .LVU92
 295              	.LBE6:
  68:Core/Src/app_uart_proto.c **** 
 296              		.loc 1 68 13 view .LVU93
 297 006a 0424     		movs	r4, #4
 298 006c F9E7     		b	.L20
 299              	.LVL38:
 300              	.L24:
  68:Core/Src/app_uart_proto.c **** 
 301              		.loc 1 68 13 view .LVU94
 302 006e 0424     		movs	r4, #4
 303 0070 D9E7     		b	.L19
 304              	.LVL39:
 305              	.L22:
  50:Core/Src/app_uart_proto.c ****   }
 306              		.loc 1 50 12 view .LVU95
 307 0072 0020     		movs	r0, #0
 308              	.LVL40:
  50:Core/Src/app_uart_proto.c ****   }
 309              		.loc 1 50 12 view .LVU96
 310 0074 ECE7     		b	.L17
 311              	.LVL41:
 312              	.L23:
  57:Core/Src/app_uart_proto.c ****   }
 313              		.loc 1 57 12 view .LVU97
 314 0076 0020     		movs	r0, #0
 315              	.LVL42:
  57:Core/Src/app_uart_proto.c ****   }
 316              		.loc 1 57 12 view .LVU98
 317 0078 EAE7     		b	.L17
 318              		.cfi_endproc
 319              	.LFE1:
 321              		.section	.text.APP_UartProto_SendRaw,"ax",%progbits
 322              		.align	1
 323              		.global	APP_UartProto_SendRaw
 324              		.syntax unified
ARM GAS  /tmp/ccAWjcUT.s 			page 9


 325              		.thumb
 326              		.thumb_func
 327              		.fpu softvfp
 329              	APP_UartProto_SendRaw:
 330              	.LVL43:
 331              	.LFB2:
  92:Core/Src/app_uart_proto.c **** 
  93:Core/Src/app_uart_proto.c **** bool APP_UartProto_SendRaw(uint8_t cmd,
  94:Core/Src/app_uart_proto.c ****                            uint8_t msgType,
  95:Core/Src/app_uart_proto.c ****                            const uint8_t *payload,
  96:Core/Src/app_uart_proto.c ****                            uint16_t payloadLen)
  97:Core/Src/app_uart_proto.c **** {
 332              		.loc 1 97 1 is_stmt 1 view -0
 333              		.cfi_startproc
 334              		@ args = 0, pretend = 0, frame = 128
 335              		@ frame_needed = 0, uses_anonymous_args = 0
 336              		.loc 1 97 1 is_stmt 0 view .LVU100
 337 0000 10B5     		push	{r4, lr}
 338              	.LCFI4:
 339              		.cfi_def_cfa_offset 8
 340              		.cfi_offset 4, -8
 341              		.cfi_offset 14, -4
 342 0002 A2B0     		sub	sp, sp, #136
 343              	.LCFI5:
 344              		.cfi_def_cfa_offset 144
  98:Core/Src/app_uart_proto.c ****   /* 临时栈缓冲区：根据协议，典型控制帧长度一般较短 */
  99:Core/Src/app_uart_proto.c ****   uint8_t buf[128];
 345              		.loc 1 99 3 is_stmt 1 view .LVU101
 100:Core/Src/app_uart_proto.c ****   size_t len = APP_UartProto_BuildFrame(cmd, msgType, payload, payloadLen, buf, (uint16_t)sizeof(bu
 346              		.loc 1 100 3 view .LVU102
 347              		.loc 1 100 16 is_stmt 0 view .LVU103
 348 0004 8024     		movs	r4, #128
 349 0006 0194     		str	r4, [sp, #4]
 350 0008 02AC     		add	r4, sp, #8
 351 000a 0094     		str	r4, [sp]
 352 000c FFF7FEFF 		bl	APP_UartProto_BuildFrame
 353              	.LVL44:
 101:Core/Src/app_uart_proto.c ****   if (len == 0U)
 354              		.loc 1 101 3 is_stmt 1 view .LVU104
 355              		.loc 1 101 6 is_stmt 0 view .LVU105
 356 0010 10B9     		cbnz	r0, .L31
 102:Core/Src/app_uart_proto.c ****   {
 103:Core/Src/app_uart_proto.c ****     return false;
 357              		.loc 1 103 12 view .LVU106
 358 0012 0020     		movs	r0, #0
 359              	.LVL45:
 360              	.L28:
 104:Core/Src/app_uart_proto.c ****   }
 105:Core/Src/app_uart_proto.c **** 
 106:Core/Src/app_uart_proto.c ****   return (BSP_Uart_Send(buf, len) == len);
 107:Core/Src/app_uart_proto.c **** }
 361              		.loc 1 107 1 view .LVU107
 362 0014 22B0     		add	sp, sp, #136
 363              	.LCFI6:
 364              		.cfi_remember_state
 365              		.cfi_def_cfa_offset 8
 366              		@ sp needed
ARM GAS  /tmp/ccAWjcUT.s 			page 10


 367 0016 10BD     		pop	{r4, pc}
 368              	.LVL46:
 369              	.L31:
 370              	.LCFI7:
 371              		.cfi_restore_state
 372              		.loc 1 107 1 view .LVU108
 373 0018 0446     		mov	r4, r0
 106:Core/Src/app_uart_proto.c **** }
 374              		.loc 1 106 3 is_stmt 1 view .LVU109
 106:Core/Src/app_uart_proto.c **** }
 375              		.loc 1 106 11 is_stmt 0 view .LVU110
 376 001a 0146     		mov	r1, r0
 377 001c 02A8     		add	r0, sp, #8
 378              	.LVL47:
 106:Core/Src/app_uart_proto.c **** }
 379              		.loc 1 106 11 view .LVU111
 380 001e FFF7FEFF 		bl	BSP_Uart_Send
 381              	.LVL48:
 106:Core/Src/app_uart_proto.c **** }
 382              		.loc 1 106 35 view .LVU112
 383 0022 A042     		cmp	r0, r4
 384 0024 14BF     		ite	ne
 385 0026 0020     		movne	r0, #0
 386 0028 0120     		moveq	r0, #1
 387 002a F3E7     		b	.L28
 388              		.cfi_endproc
 389              	.LFE2:
 391              		.text
 392              	.Letext0:
 393              		.file 2 "/usr/lib/gcc/arm-none-eabi/10.3.1/include/stdint.h"
 394              		.file 3 "/usr/lib/gcc/arm-none-eabi/10.3.1/include/stddef.h"
 395              		.file 4 "Core/Inc/bsp.h"
ARM GAS  /tmp/ccAWjcUT.s 			page 11


DEFINED SYMBOLS
                            *ABS*:0000000000000000 app_uart_proto.c
     /tmp/ccAWjcUT.s:16     .text.APP_UartProto_CalcCrc:0000000000000000 $t
     /tmp/ccAWjcUT.s:24     .text.APP_UartProto_CalcCrc:0000000000000000 APP_UartProto_CalcCrc
     /tmp/ccAWjcUT.s:150    .text.APP_UartProto_BuildFrame:0000000000000000 $t
     /tmp/ccAWjcUT.s:157    .text.APP_UartProto_BuildFrame:0000000000000000 APP_UartProto_BuildFrame
     /tmp/ccAWjcUT.s:322    .text.APP_UartProto_SendRaw:0000000000000000 $t
     /tmp/ccAWjcUT.s:329    .text.APP_UartProto_SendRaw:0000000000000000 APP_UartProto_SendRaw

UNDEFINED SYMBOLS
BSP_Uart_Send
