ARM GAS  /tmp/ccrLz8Gq.s 			page 1


   1              		.cpu cortex-m3
   2              		.eabi_attribute 20, 1
   3              		.eabi_attribute 21, 1
   4              		.eabi_attribute 23, 3
   5              		.eabi_attribute 24, 1
   6              		.eabi_attribute 25, 1
   7              		.eabi_attribute 26, 1
   8              		.eabi_attribute 30, 1
   9              		.eabi_attribute 34, 1
  10              		.eabi_attribute 18, 4
  11              		.file	"app_param_uart_map.c"
  12              		.text
  13              	.Ltext0:
  14              		.cfi_sections	.debug_frame
  15              		.section	.text.map_find,"ax",%progbits
  16              		.align	1
  17              		.arch armv7-m
  18              		.syntax unified
  19              		.thumb
  20              		.thumb_func
  21              		.fpu softvfp
  23              	map_find:
  24              	.LVL0:
  25              	.LFB0:
  26              		.file 1 "Core/Src/app_param_uart_map.c"
   1:Core/Src/app_param_uart_map.c **** #include "app_param_uart_map.h"
   2:Core/Src/app_param_uart_map.c **** 
   3:Core/Src/app_param_uart_map.c **** #include <stddef.h>
   4:Core/Src/app_param_uart_map.c **** 
   5:Core/Src/app_param_uart_map.c **** typedef struct
   6:Core/Src/app_param_uart_map.c **** {
   7:Core/Src/app_param_uart_map.c ****   ParamId_t id;
   8:Core/Src/app_param_uart_map.c ****   uint32_t  addr;
   9:Core/Src/app_param_uart_map.c ****   uint8_t   valueLen;
  10:Core/Src/app_param_uart_map.c **** } ParamUartWriteMap_t;
  11:Core/Src/app_param_uart_map.c **** 
  12:Core/Src/app_param_uart_map.c **** /*
  13:Core/Src/app_param_uart_map.c ****  * Centralized write-address configuration for UART cmd 0x01.
  14:Core/Src/app_param_uart_map.c ****  * If an address is not confirmed yet, keep it as 0x00000000 and it will be ignored.
  15:Core/Src/app_param_uart_map.c ****  */
  16:Core/Src/app_param_uart_map.c **** #define PARAM_ADDR_ROUTING_PROTOCOL 0x12310000u
  17:Core/Src/app_param_uart_map.c **** #define PARAM_ADDR_ACCESS_PROTOCOL  0x12320000u
  18:Core/Src/app_param_uart_map.c **** #define PARAM_ADDR_WORK_MODE        0x11100000u
  19:Core/Src/app_param_uart_map.c **** #define PARAM_ADDR_SPATIAL_FILTER   0x11300000u
  20:Core/Src/app_param_uart_map.c **** #define PARAM_ADDR_SYNC_MODE        0x11600000u
  21:Core/Src/app_param_uart_map.c **** #define PARAM_ADDR_FREQ_HOP_MODE    0x12340000u
  22:Core/Src/app_param_uart_map.c **** #define PARAM_ADDR_FIXED_FREQ       0x12351000u
  23:Core/Src/app_param_uart_map.c **** #define PARAM_ADDR_ADAPT_FREQ1      0x12352000u
  24:Core/Src/app_param_uart_map.c **** #define PARAM_ADDR_ADAPT_FREQ2      0x12353000u
  25:Core/Src/app_param_uart_map.c **** #define PARAM_ADDR_ADAPT_FREQ3      0x12354000u
  26:Core/Src/app_param_uart_map.c **** #define PARAM_ADDR_ADAPT_FREQ4      0x12355000u
  27:Core/Src/app_param_uart_map.c **** #define PARAM_ADDR_SIGNAL_BW        0x12370000u
  28:Core/Src/app_param_uart_map.c **** #define PARAM_ADDR_WAVEFORM_GEAR    0x12382000u
  29:Core/Src/app_param_uart_map.c **** #define PARAM_ADDR_TX_POWER         0x123A2000u
  30:Core/Src/app_param_uart_map.c **** #define PARAM_ADDR_TX_POWER_ATTEN   0x123B0000u
  31:Core/Src/app_param_uart_map.c **** #define PARAM_ADDR_TXRX_OPERATION   0x23900000u
  32:Core/Src/app_param_uart_map.c **** 
ARM GAS  /tmp/ccrLz8Gq.s 			page 2


  33:Core/Src/app_param_uart_map.c **** #define PARAM_ADDR_DEVICE_NAME      0x32000000u
  34:Core/Src/app_param_uart_map.c **** #define PARAM_ADDR_NET_BIZ_IP       0x33110000u
  35:Core/Src/app_param_uart_map.c **** #define PARAM_ADDR_NET_BIZ_PORT     0x33120000u
  36:Core/Src/app_param_uart_map.c **** #define PARAM_ADDR_NET_MGMT_IP      0x33210000u
  37:Core/Src/app_param_uart_map.c **** #define PARAM_ADDR_NET_MGMT_PORT    0x33220000u
  38:Core/Src/app_param_uart_map.c **** #define PARAM_ADDR_NET_SENSE_IP     0x33310000u
  39:Core/Src/app_param_uart_map.c **** #define PARAM_ADDR_NET_SENSE_PORT   0x33320000u
  40:Core/Src/app_param_uart_map.c **** #define PARAM_ADDR_UART_BAUD_IDX    0x34100000u
  41:Core/Src/app_param_uart_map.c **** #define PARAM_ADDR_UART_DATABITS    0x34200000u
  42:Core/Src/app_param_uart_map.c **** #define PARAM_ADDR_UART_STOPBITS    0x34300000u
  43:Core/Src/app_param_uart_map.c **** #define PARAM_ADDR_UART_PARITY      0x34400000u
  44:Core/Src/app_param_uart_map.c **** #define PARAM_ADDR_UART_FLOW        0x34500000u
  45:Core/Src/app_param_uart_map.c **** #define PARAM_ADDR_LOC_AUTO_SYNC    0x35000000u
  46:Core/Src/app_param_uart_map.c **** #define PARAM_ADDR_LOC_LON          0x35100000u
  47:Core/Src/app_param_uart_map.c **** #define PARAM_ADDR_LOC_LAT          0x35200000u
  48:Core/Src/app_param_uart_map.c **** #define PARAM_ADDR_LOC_ALT          0x35300000u
  49:Core/Src/app_param_uart_map.c **** #define PARAM_ADDR_TIME_AUTO_SYNC   0x36100000u
  50:Core/Src/app_param_uart_map.c **** #define PARAM_ADDR_TIME_HOUR        0x36210000u
  51:Core/Src/app_param_uart_map.c **** #define PARAM_ADDR_TIME_MINUTE      0x36220000u
  52:Core/Src/app_param_uart_map.c **** #define PARAM_ADDR_TIME_SECOND      0x36230000u
  53:Core/Src/app_param_uart_map.c **** 
  54:Core/Src/app_param_uart_map.c **** static const ParamUartWriteMap_t s_writeMap[] =
  55:Core/Src/app_param_uart_map.c **** {
  56:Core/Src/app_param_uart_map.c ****   { PARAM_ID_WORK_MODE,         PARAM_ADDR_WORK_MODE, 1u },
  57:Core/Src/app_param_uart_map.c ****   { PARAM_ID_SPATIAL_FILTER,    PARAM_ADDR_SPATIAL_FILTER, 1u },
  58:Core/Src/app_param_uart_map.c ****   { PARAM_ID_SYNC_MODE,         PARAM_ADDR_SYNC_MODE, 1u },
  59:Core/Src/app_param_uart_map.c ****   { PARAM_ID_FREQ_HOP_MODE,     PARAM_ADDR_FREQ_HOP_MODE, 1u },
  60:Core/Src/app_param_uart_map.c ****   { PARAM_ID_ROUTING_PROTOCOL,  PARAM_ADDR_ROUTING_PROTOCOL, 1u },
  61:Core/Src/app_param_uart_map.c ****   { PARAM_ID_ACCESS_PROTOCOL,   PARAM_ADDR_ACCESS_PROTOCOL, 1u },
  62:Core/Src/app_param_uart_map.c ****   { PARAM_ID_SIGNAL_BANDWIDTH,  PARAM_ADDR_SIGNAL_BW, 1u },
  63:Core/Src/app_param_uart_map.c ****   { PARAM_ID_WAVEFORM_GEAR,     PARAM_ADDR_WAVEFORM_GEAR, 1u },
  64:Core/Src/app_param_uart_map.c ****   { PARAM_ID_FIXED_FREQ,        PARAM_ADDR_FIXED_FREQ, 4u },
  65:Core/Src/app_param_uart_map.c ****   { PARAM_ID_ADAPT_FREQ1,       PARAM_ADDR_ADAPT_FREQ1, 4u },
  66:Core/Src/app_param_uart_map.c ****   { PARAM_ID_ADAPT_FREQ2,       PARAM_ADDR_ADAPT_FREQ2, 4u },
  67:Core/Src/app_param_uart_map.c ****   { PARAM_ID_ADAPT_FREQ3,       PARAM_ADDR_ADAPT_FREQ3, 4u },
  68:Core/Src/app_param_uart_map.c ****   { PARAM_ID_ADAPT_FREQ4,       PARAM_ADDR_ADAPT_FREQ4, 4u },
  69:Core/Src/app_param_uart_map.c ****   { PARAM_ID_TX_POWER,          PARAM_ADDR_TX_POWER, 1u },
  70:Core/Src/app_param_uart_map.c ****   { PARAM_ID_TX_POWER_ATTEN,    PARAM_ADDR_TX_POWER_ATTEN, 1u },
  71:Core/Src/app_param_uart_map.c ****   { PARAM_ID_TXRX_OPERATION,    PARAM_ADDR_TXRX_OPERATION, 1u },
  72:Core/Src/app_param_uart_map.c **** 
  73:Core/Src/app_param_uart_map.c ****   { PARAM_ID_DEVICE_NAME_TOKEN, PARAM_ADDR_DEVICE_NAME, 4u },
  74:Core/Src/app_param_uart_map.c ****   { PARAM_ID_NET_IP_ADDR,       PARAM_ADDR_NET_BIZ_IP, 4u },
  75:Core/Src/app_param_uart_map.c ****   { PARAM_ID_NET_BIZ_PORT,      PARAM_ADDR_NET_BIZ_PORT, 2u },
  76:Core/Src/app_param_uart_map.c ****   { PARAM_ID_NET_MGMT_IP,       PARAM_ADDR_NET_MGMT_IP, 4u },
  77:Core/Src/app_param_uart_map.c ****   { PARAM_ID_NET_MGMT_PORT,     PARAM_ADDR_NET_MGMT_PORT, 2u },
  78:Core/Src/app_param_uart_map.c ****   { PARAM_ID_NET_SENSE_IP,      PARAM_ADDR_NET_SENSE_IP, 4u },
  79:Core/Src/app_param_uart_map.c ****   { PARAM_ID_NET_SENSE_PORT,    PARAM_ADDR_NET_SENSE_PORT, 2u },
  80:Core/Src/app_param_uart_map.c ****   { PARAM_ID_UART_BAUD_IDX,     PARAM_ADDR_UART_BAUD_IDX, 1u },
  81:Core/Src/app_param_uart_map.c ****   { PARAM_ID_UART_DATABITS,     PARAM_ADDR_UART_DATABITS, 1u },
  82:Core/Src/app_param_uart_map.c ****   { PARAM_ID_UART_STOPBITS,     PARAM_ADDR_UART_STOPBITS, 1u },
  83:Core/Src/app_param_uart_map.c ****   { PARAM_ID_UART_PARITY,       PARAM_ADDR_UART_PARITY, 1u },
  84:Core/Src/app_param_uart_map.c ****   { PARAM_ID_UART_FLOW,         PARAM_ADDR_UART_FLOW, 1u },
  85:Core/Src/app_param_uart_map.c ****   { PARAM_ID_LOC_AUTO_SYNC,     PARAM_ADDR_LOC_AUTO_SYNC, 1u },
  86:Core/Src/app_param_uart_map.c ****   { PARAM_ID_GPS_LONGITUDE,     PARAM_ADDR_LOC_LON, 4u },
  87:Core/Src/app_param_uart_map.c ****   { PARAM_ID_GPS_LATITUDE,      PARAM_ADDR_LOC_LAT, 4u },
  88:Core/Src/app_param_uart_map.c ****   { PARAM_ID_GPS_ALTITUDE,      PARAM_ADDR_LOC_ALT, 2u },
  89:Core/Src/app_param_uart_map.c ****   { PARAM_ID_TIME_AUTO_SYNC,    PARAM_ADDR_TIME_AUTO_SYNC, 1u },
ARM GAS  /tmp/ccrLz8Gq.s 			page 3


  90:Core/Src/app_param_uart_map.c ****   { PARAM_ID_TIME_HOUR,         PARAM_ADDR_TIME_HOUR, 1u },
  91:Core/Src/app_param_uart_map.c ****   { PARAM_ID_TIME_MINUTE,       PARAM_ADDR_TIME_MINUTE, 1u },
  92:Core/Src/app_param_uart_map.c ****   { PARAM_ID_TIME_SECOND,       PARAM_ADDR_TIME_SECOND, 1u }
  93:Core/Src/app_param_uart_map.c **** };
  94:Core/Src/app_param_uart_map.c **** 
  95:Core/Src/app_param_uart_map.c **** static bool map_find(ParamId_t id, uint32_t *outAddr, uint8_t *outValueLen)
  96:Core/Src/app_param_uart_map.c **** {
  27              		.loc 1 96 1 view -0
  28              		.cfi_startproc
  29              		@ args = 0, pretend = 0, frame = 0
  30              		@ frame_needed = 0, uses_anonymous_args = 0
  31              		@ link register save eliminated.
  97:Core/Src/app_param_uart_map.c ****   for (uint32_t i = 0u; i < (sizeof(s_writeMap) / sizeof(s_writeMap[0])); ++i)
  32              		.loc 1 97 3 view .LVU1
  33              	.LBB2:
  34              		.loc 1 97 8 view .LVU2
  35              		.loc 1 97 17 is_stmt 0 view .LVU3
  36 0000 0023     		movs	r3, #0
  37              	.LVL1:
  38              		.loc 1 97 25 is_stmt 1 view .LVU4
  39              		.loc 1 97 3 is_stmt 0 view .LVU5
  40 0002 232B     		cmp	r3, #35
  41 0004 26D8     		bhi	.L13
  42              	.LBE2:
  96:Core/Src/app_param_uart_map.c ****   for (uint32_t i = 0u; i < (sizeof(s_writeMap) / sizeof(s_writeMap[0])); ++i)
  43              		.loc 1 96 1 view .LVU6
  44 0006 10B4     		push	{r4}
  45              	.LCFI0:
  46              		.cfi_def_cfa_offset 4
  47              		.cfi_offset 4, -4
  48              	.L5:
  49              	.LBB3:
  98:Core/Src/app_param_uart_map.c ****   {
  99:Core/Src/app_param_uart_map.c ****     if (s_writeMap[i].id == id)
  50              		.loc 1 99 5 is_stmt 1 view .LVU7
  51              		.loc 1 99 22 is_stmt 0 view .LVU8
  52 0008 03EB430C 		add	ip, r3, r3, lsl #1
  53 000c 124C     		ldr	r4, .L15
  54 000e 34F82CC0 		ldrh	ip, [r4, ip, lsl #2]
  55              		.loc 1 99 8 view .LVU9
  56 0012 8445     		cmp	ip, r0
  57 0014 05D0     		beq	.L14
  97:Core/Src/app_param_uart_map.c ****   {
  58              		.loc 1 97 75 is_stmt 1 discriminator 2 view .LVU10
  59 0016 0133     		adds	r3, r3, #1
  60              	.LVL2:
  97:Core/Src/app_param_uart_map.c ****   {
  61              		.loc 1 97 25 discriminator 2 view .LVU11
  97:Core/Src/app_param_uart_map.c ****   {
  62              		.loc 1 97 3 is_stmt 0 discriminator 2 view .LVU12
  63 0018 232B     		cmp	r3, #35
  64 001a F5D9     		bls	.L5
  65              	.LBE3:
 100:Core/Src/app_param_uart_map.c ****     {
 101:Core/Src/app_param_uart_map.c ****       if ((s_writeMap[i].addr == 0u) ||
 102:Core/Src/app_param_uart_map.c ****           (s_writeMap[i].valueLen == 0u) ||
 103:Core/Src/app_param_uart_map.c ****           (s_writeMap[i].valueLen > 4u))
ARM GAS  /tmp/ccrLz8Gq.s 			page 4


 104:Core/Src/app_param_uart_map.c ****       {
 105:Core/Src/app_param_uart_map.c ****         return false;
 106:Core/Src/app_param_uart_map.c ****       }
 107:Core/Src/app_param_uart_map.c **** 
 108:Core/Src/app_param_uart_map.c ****       *outAddr = s_writeMap[i].addr;
 109:Core/Src/app_param_uart_map.c ****       *outValueLen = s_writeMap[i].valueLen;
 110:Core/Src/app_param_uart_map.c ****       return true;
 111:Core/Src/app_param_uart_map.c ****     }
 112:Core/Src/app_param_uart_map.c ****   }
 113:Core/Src/app_param_uart_map.c **** 
 114:Core/Src/app_param_uart_map.c ****   return false;
  66              		.loc 1 114 10 view .LVU13
  67 001c 0020     		movs	r0, #0
  68              	.LVL3:
  69              	.L4:
 115:Core/Src/app_param_uart_map.c **** }
  70              		.loc 1 115 1 view .LVU14
  71 001e 10BC     		pop	{r4}
  72              	.LCFI1:
  73              		.cfi_remember_state
  74              		.cfi_restore 4
  75              		.cfi_def_cfa_offset 0
  76 0020 7047     		bx	lr
  77              	.LVL4:
  78              	.L14:
  79              	.LCFI2:
  80              		.cfi_restore_state
  81              	.LBB4:
 101:Core/Src/app_param_uart_map.c ****           (s_writeMap[i].valueLen == 0u) ||
  82              		.loc 1 101 7 is_stmt 1 view .LVU15
 101:Core/Src/app_param_uart_map.c ****           (s_writeMap[i].valueLen == 0u) ||
  83              		.loc 1 101 25 is_stmt 0 view .LVU16
  84 0022 03EB4300 		add	r0, r3, r3, lsl #1
  85              	.LVL5:
 101:Core/Src/app_param_uart_map.c ****           (s_writeMap[i].valueLen == 0u) ||
  86              		.loc 1 101 25 view .LVU17
  87 0026 04EB8000 		add	r0, r4, r0, lsl #2
  88 002a 4468     		ldr	r4, [r0, #4]
 101:Core/Src/app_param_uart_map.c ****           (s_writeMap[i].valueLen == 0u) ||
  89              		.loc 1 101 10 view .LVU18
  90 002c 64B1     		cbz	r4, .L6
 102:Core/Src/app_param_uart_map.c ****           (s_writeMap[i].valueLen > 4u))
  91              		.loc 1 102 25 discriminator 1 view .LVU19
  92 002e 03EB4303 		add	r3, r3, r3, lsl #1
  93              	.LVL6:
 102:Core/Src/app_param_uart_map.c ****           (s_writeMap[i].valueLen > 4u))
  94              		.loc 1 102 25 discriminator 1 view .LVU20
  95 0032 0948     		ldr	r0, .L15
  96 0034 00EB8303 		add	r3, r0, r3, lsl #2
  97 0038 1B7A     		ldrb	r3, [r3, #8]	@ zero_extendqisi2
 101:Core/Src/app_param_uart_map.c ****           (s_writeMap[i].valueLen == 0u) ||
  98              		.loc 1 101 38 discriminator 1 view .LVU21
  99 003a 3BB1     		cbz	r3, .L7
 102:Core/Src/app_param_uart_map.c ****           (s_writeMap[i].valueLen > 4u))
 100              		.loc 1 102 42 view .LVU22
 101 003c 042B     		cmp	r3, #4
 102 003e 07D8     		bhi	.L8
ARM GAS  /tmp/ccrLz8Gq.s 			page 5


 108:Core/Src/app_param_uart_map.c ****       *outValueLen = s_writeMap[i].valueLen;
 103              		.loc 1 108 7 is_stmt 1 view .LVU23
 108:Core/Src/app_param_uart_map.c ****       *outValueLen = s_writeMap[i].valueLen;
 104              		.loc 1 108 16 is_stmt 0 view .LVU24
 105 0040 0C60     		str	r4, [r1]
 109:Core/Src/app_param_uart_map.c ****       return true;
 106              		.loc 1 109 7 is_stmt 1 view .LVU25
 109:Core/Src/app_param_uart_map.c ****       return true;
 107              		.loc 1 109 20 is_stmt 0 view .LVU26
 108 0042 1370     		strb	r3, [r2]
 110:Core/Src/app_param_uart_map.c ****     }
 109              		.loc 1 110 7 is_stmt 1 view .LVU27
 110:Core/Src/app_param_uart_map.c ****     }
 110              		.loc 1 110 14 is_stmt 0 view .LVU28
 111 0044 0120     		movs	r0, #1
 112 0046 EAE7     		b	.L4
 113              	.LVL7:
 114              	.L6:
 105:Core/Src/app_param_uart_map.c ****       }
 115              		.loc 1 105 16 view .LVU29
 116 0048 0020     		movs	r0, #0
 117 004a E8E7     		b	.L4
 118              	.LVL8:
 119              	.L7:
 105:Core/Src/app_param_uart_map.c ****       }
 120              		.loc 1 105 16 view .LVU30
 121 004c 0020     		movs	r0, #0
 122 004e E6E7     		b	.L4
 123              	.L8:
 124 0050 0020     		movs	r0, #0
 125 0052 E4E7     		b	.L4
 126              	.LVL9:
 127              	.L13:
 128              	.LCFI3:
 129              		.cfi_def_cfa_offset 0
 130              		.cfi_restore 4
 105:Core/Src/app_param_uart_map.c ****       }
 131              		.loc 1 105 16 view .LVU31
 132              	.LBE4:
 114:Core/Src/app_param_uart_map.c **** }
 133              		.loc 1 114 10 view .LVU32
 134 0054 0020     		movs	r0, #0
 135              	.LVL10:
 136              		.loc 1 115 1 view .LVU33
 137 0056 7047     		bx	lr
 138              	.L16:
 139              		.align	2
 140              	.L15:
 141 0058 00000000 		.word	.LANCHOR0
 142              		.cfi_endproc
 143              	.LFE0:
 145              		.section	.text.APP_ParamUartMap_BuildWrite,"ax",%progbits
 146              		.align	1
 147              		.global	APP_ParamUartMap_BuildWrite
 148              		.syntax unified
 149              		.thumb
 150              		.thumb_func
ARM GAS  /tmp/ccrLz8Gq.s 			page 6


 151              		.fpu softvfp
 153              	APP_ParamUartMap_BuildWrite:
 154              	.LVL11:
 155              	.LFB1:
 116:Core/Src/app_param_uart_map.c **** 
 117:Core/Src/app_param_uart_map.c **** bool APP_ParamUartMap_BuildWrite(ParamId_t id,
 118:Core/Src/app_param_uart_map.c ****                                  int32_t value,
 119:Core/Src/app_param_uart_map.c ****                                  uint32_t *outAddr,
 120:Core/Src/app_param_uart_map.c ****                                  uint8_t outValueBytes[4],
 121:Core/Src/app_param_uart_map.c ****                                  uint8_t *outValueLen)
 122:Core/Src/app_param_uart_map.c **** {
 156              		.loc 1 122 1 is_stmt 1 view -0
 157              		.cfi_startproc
 158              		@ args = 4, pretend = 0, frame = 8
 159              		@ frame_needed = 0, uses_anonymous_args = 0
 160              		.loc 1 122 1 is_stmt 0 view .LVU35
 161 0000 70B5     		push	{r4, r5, r6, lr}
 162              	.LCFI4:
 163              		.cfi_def_cfa_offset 16
 164              		.cfi_offset 4, -16
 165              		.cfi_offset 5, -12
 166              		.cfi_offset 6, -8
 167              		.cfi_offset 14, -4
 168 0002 82B0     		sub	sp, sp, #8
 169              	.LCFI5:
 170              		.cfi_def_cfa_offset 24
 171 0004 1C46     		mov	r4, r3
 123:Core/Src/app_param_uart_map.c ****   uint32_t addr = 0u;
 172              		.loc 1 123 3 is_stmt 1 view .LVU36
 173              		.loc 1 123 12 is_stmt 0 view .LVU37
 174 0006 0023     		movs	r3, #0
 175              	.LVL12:
 176              		.loc 1 123 12 view .LVU38
 177 0008 0193     		str	r3, [sp, #4]
 124:Core/Src/app_param_uart_map.c ****   uint8_t valueLen = 0u;
 178              		.loc 1 124 3 is_stmt 1 view .LVU39
 179              		.loc 1 124 11 is_stmt 0 view .LVU40
 180 000a 8DF80330 		strb	r3, [sp, #3]
 125:Core/Src/app_param_uart_map.c ****   uint32_t uval;
 181              		.loc 1 125 3 is_stmt 1 view .LVU41
 126:Core/Src/app_param_uart_map.c **** 
 127:Core/Src/app_param_uart_map.c ****   if ((outAddr == NULL) || (outValueBytes == NULL) || (outValueLen == NULL))
 182              		.loc 1 127 3 view .LVU42
 183              		.loc 1 127 6 is_stmt 0 view .LVU43
 184 000e 6AB3     		cbz	r2, .L22
 185 0010 0D46     		mov	r5, r1
 186 0012 1646     		mov	r6, r2
 187              		.loc 1 127 25 discriminator 1 view .LVU44
 188 0014 64B3     		cbz	r4, .L23
 189              		.loc 1 127 52 discriminator 2 view .LVU45
 190 0016 069B     		ldr	r3, [sp, #24]
 191 0018 63B3     		cbz	r3, .L24
 128:Core/Src/app_param_uart_map.c ****   {
 129:Core/Src/app_param_uart_map.c ****     return false;
 130:Core/Src/app_param_uart_map.c ****   }
 131:Core/Src/app_param_uart_map.c **** 
 132:Core/Src/app_param_uart_map.c ****   if (!map_find(id, &addr, &valueLen))
ARM GAS  /tmp/ccrLz8Gq.s 			page 7


 192              		.loc 1 132 3 is_stmt 1 view .LVU46
 193              		.loc 1 132 8 is_stmt 0 view .LVU47
 194 001a 0DF10302 		add	r2, sp, #3
 195              	.LVL13:
 196              		.loc 1 132 8 view .LVU48
 197 001e 01A9     		add	r1, sp, #4
 198              	.LVL14:
 199              		.loc 1 132 8 view .LVU49
 200 0020 FFF7FEFF 		bl	map_find
 201              	.LVL15:
 202              		.loc 1 132 6 view .LVU50
 203 0024 C8B1     		cbz	r0, .L18
 133:Core/Src/app_param_uart_map.c ****   {
 134:Core/Src/app_param_uart_map.c ****     return false;
 135:Core/Src/app_param_uart_map.c ****   }
 136:Core/Src/app_param_uart_map.c **** 
 137:Core/Src/app_param_uart_map.c ****   uval = (uint32_t)value;
 204              		.loc 1 137 3 is_stmt 1 view .LVU51
 205              	.LVL16:
 138:Core/Src/app_param_uart_map.c **** 
 139:Core/Src/app_param_uart_map.c ****   outValueBytes[0] = 0u;
 206              		.loc 1 139 3 view .LVU52
 207              		.loc 1 139 20 is_stmt 0 view .LVU53
 208 0026 0023     		movs	r3, #0
 209 0028 2370     		strb	r3, [r4]
 140:Core/Src/app_param_uart_map.c ****   outValueBytes[1] = 0u;
 210              		.loc 1 140 3 is_stmt 1 view .LVU54
 211              		.loc 1 140 20 is_stmt 0 view .LVU55
 212 002a 6370     		strb	r3, [r4, #1]
 141:Core/Src/app_param_uart_map.c ****   outValueBytes[2] = 0u;
 213              		.loc 1 141 3 is_stmt 1 view .LVU56
 214              		.loc 1 141 20 is_stmt 0 view .LVU57
 215 002c A370     		strb	r3, [r4, #2]
 142:Core/Src/app_param_uart_map.c ****   outValueBytes[3] = 0u;
 216              		.loc 1 142 3 is_stmt 1 view .LVU58
 217              		.loc 1 142 20 is_stmt 0 view .LVU59
 218 002e E370     		strb	r3, [r4, #3]
 143:Core/Src/app_param_uart_map.c **** 
 144:Core/Src/app_param_uart_map.c ****   if (valueLen == 1u)
 219              		.loc 1 144 3 is_stmt 1 view .LVU60
 220              		.loc 1 144 16 is_stmt 0 view .LVU61
 221 0030 9DF80330 		ldrb	r3, [sp, #3]	@ zero_extendqisi2
 222              		.loc 1 144 6 view .LVU62
 223 0034 012B     		cmp	r3, #1
 224 0036 12D0     		beq	.L26
 145:Core/Src/app_param_uart_map.c ****   {
 146:Core/Src/app_param_uart_map.c ****     outValueBytes[0] = (uint8_t)(uval & 0xFFu);
 147:Core/Src/app_param_uart_map.c ****   }
 148:Core/Src/app_param_uart_map.c ****   else if (valueLen == 2u)
 225              		.loc 1 148 8 is_stmt 1 view .LVU63
 226              		.loc 1 148 11 is_stmt 0 view .LVU64
 227 0038 022B     		cmp	r3, #2
 228 003a 12D0     		beq	.L27
 149:Core/Src/app_param_uart_map.c ****   {
 150:Core/Src/app_param_uart_map.c ****     outValueBytes[0] = (uint8_t)((uval >> 8) & 0xFFu);
 151:Core/Src/app_param_uart_map.c ****     outValueBytes[1] = (uint8_t)(uval & 0xFFu);
 152:Core/Src/app_param_uart_map.c ****   }
ARM GAS  /tmp/ccrLz8Gq.s 			page 8


 153:Core/Src/app_param_uart_map.c ****   else
 154:Core/Src/app_param_uart_map.c ****   {
 155:Core/Src/app_param_uart_map.c ****     outValueBytes[0] = (uint8_t)((uval >> 24) & 0xFFu);
 229              		.loc 1 155 5 is_stmt 1 view .LVU65
 230              		.loc 1 155 24 is_stmt 0 view .LVU66
 231 003c 2B0E     		lsrs	r3, r5, #24
 232              		.loc 1 155 22 view .LVU67
 233 003e 2370     		strb	r3, [r4]
 156:Core/Src/app_param_uart_map.c ****     outValueBytes[1] = (uint8_t)((uval >> 16) & 0xFFu);
 234              		.loc 1 156 5 is_stmt 1 view .LVU68
 235              		.loc 1 156 24 is_stmt 0 view .LVU69
 236 0040 C5F30743 		ubfx	r3, r5, #16, #8
 237              		.loc 1 156 22 view .LVU70
 238 0044 6370     		strb	r3, [r4, #1]
 157:Core/Src/app_param_uart_map.c ****     outValueBytes[2] = (uint8_t)((uval >> 8) & 0xFFu);
 239              		.loc 1 157 5 is_stmt 1 view .LVU71
 240              		.loc 1 157 24 is_stmt 0 view .LVU72
 241 0046 C5F30723 		ubfx	r3, r5, #8, #8
 242              		.loc 1 157 22 view .LVU73
 243 004a A370     		strb	r3, [r4, #2]
 158:Core/Src/app_param_uart_map.c ****     outValueBytes[3] = (uint8_t)(uval & 0xFFu);
 244              		.loc 1 158 5 is_stmt 1 view .LVU74
 245              		.loc 1 158 22 is_stmt 0 view .LVU75
 246 004c E570     		strb	r5, [r4, #3]
 247              	.L20:
 159:Core/Src/app_param_uart_map.c ****   }
 160:Core/Src/app_param_uart_map.c **** 
 161:Core/Src/app_param_uart_map.c ****   *outAddr = addr;
 248              		.loc 1 161 3 is_stmt 1 view .LVU76
 249              		.loc 1 161 12 is_stmt 0 view .LVU77
 250 004e 019B     		ldr	r3, [sp, #4]
 251 0050 3360     		str	r3, [r6]
 162:Core/Src/app_param_uart_map.c ****   *outValueLen = valueLen;
 252              		.loc 1 162 3 is_stmt 1 view .LVU78
 253              		.loc 1 162 16 is_stmt 0 view .LVU79
 254 0052 9DF80330 		ldrb	r3, [sp, #3]	@ zero_extendqisi2
 255 0056 069A     		ldr	r2, [sp, #24]
 256 0058 1370     		strb	r3, [r2]
 163:Core/Src/app_param_uart_map.c ****   return true;
 257              		.loc 1 163 3 is_stmt 1 view .LVU80
 258              	.LVL17:
 259              	.L18:
 164:Core/Src/app_param_uart_map.c **** }
 260              		.loc 1 164 1 is_stmt 0 view .LVU81
 261 005a 02B0     		add	sp, sp, #8
 262              	.LCFI6:
 263              		.cfi_remember_state
 264              		.cfi_def_cfa_offset 16
 265              		@ sp needed
 266 005c 70BD     		pop	{r4, r5, r6, pc}
 267              	.LVL18:
 268              	.L26:
 269              	.LCFI7:
 270              		.cfi_restore_state
 146:Core/Src/app_param_uart_map.c ****   }
 271              		.loc 1 146 5 is_stmt 1 view .LVU82
 146:Core/Src/app_param_uart_map.c ****   }
ARM GAS  /tmp/ccrLz8Gq.s 			page 9


 272              		.loc 1 146 22 is_stmt 0 view .LVU83
 273 005e 2570     		strb	r5, [r4]
 274 0060 F5E7     		b	.L20
 275              	.L27:
 150:Core/Src/app_param_uart_map.c ****     outValueBytes[1] = (uint8_t)(uval & 0xFFu);
 276              		.loc 1 150 5 is_stmt 1 view .LVU84
 150:Core/Src/app_param_uart_map.c ****     outValueBytes[1] = (uint8_t)(uval & 0xFFu);
 277              		.loc 1 150 24 is_stmt 0 view .LVU85
 278 0062 C5F30723 		ubfx	r3, r5, #8, #8
 150:Core/Src/app_param_uart_map.c ****     outValueBytes[1] = (uint8_t)(uval & 0xFFu);
 279              		.loc 1 150 22 view .LVU86
 280 0066 2370     		strb	r3, [r4]
 151:Core/Src/app_param_uart_map.c ****   }
 281              		.loc 1 151 5 is_stmt 1 view .LVU87
 151:Core/Src/app_param_uart_map.c ****   }
 282              		.loc 1 151 22 is_stmt 0 view .LVU88
 283 0068 6570     		strb	r5, [r4, #1]
 284 006a F0E7     		b	.L20
 285              	.LVL19:
 286              	.L22:
 129:Core/Src/app_param_uart_map.c ****   }
 287              		.loc 1 129 12 view .LVU89
 288 006c 0020     		movs	r0, #0
 289              	.LVL20:
 129:Core/Src/app_param_uart_map.c ****   }
 290              		.loc 1 129 12 view .LVU90
 291 006e F4E7     		b	.L18
 292              	.LVL21:
 293              	.L23:
 129:Core/Src/app_param_uart_map.c ****   }
 294              		.loc 1 129 12 view .LVU91
 295 0070 0020     		movs	r0, #0
 296              	.LVL22:
 129:Core/Src/app_param_uart_map.c ****   }
 297              		.loc 1 129 12 view .LVU92
 298 0072 F2E7     		b	.L18
 299              	.LVL23:
 300              	.L24:
 129:Core/Src/app_param_uart_map.c ****   }
 301              		.loc 1 129 12 view .LVU93
 302 0074 0020     		movs	r0, #0
 303              	.LVL24:
 129:Core/Src/app_param_uart_map.c ****   }
 304              		.loc 1 129 12 view .LVU94
 305 0076 F0E7     		b	.L18
 306              		.cfi_endproc
 307              	.LFE1:
 309              		.section	.rodata.s_writeMap,"a"
 310              		.align	2
 311              		.set	.LANCHOR0,. + 0
 314              	s_writeMap:
 315 0000 0100     		.short	1
 316 0002 0000     		.space	2
 317 0004 00001011 		.word	286261248
 318 0008 01       		.byte	1
 319 0009 000000   		.space	3
 320 000c 4800     		.short	72
ARM GAS  /tmp/ccrLz8Gq.s 			page 10


 321 000e 0000     		.space	2
 322 0010 00003011 		.word	288358400
 323 0014 01       		.byte	1
 324 0015 000000   		.space	3
 325 0018 4900     		.short	73
 326 001a 0000     		.space	2
 327 001c 00006011 		.word	291504128
 328 0020 01       		.byte	1
 329 0021 000000   		.space	3
 330 0024 4200     		.short	66
 331 0026 0000     		.space	2
 332 0028 00003412 		.word	305397760
 333 002c 01       		.byte	1
 334 002d 000000   		.space	3
 335 0030 0A00     		.short	10
 336 0032 0000     		.space	2
 337 0034 00003112 		.word	305201152
 338 0038 01       		.byte	1
 339 0039 000000   		.space	3
 340 003c 0B00     		.short	11
 341 003e 0000     		.space	2
 342 0040 00003212 		.word	305266688
 343 0044 01       		.byte	1
 344 0045 000000   		.space	3
 345 0048 4100     		.short	65
 346 004a 0000     		.space	2
 347 004c 00003712 		.word	305594368
 348 0050 01       		.byte	1
 349 0051 000000   		.space	3
 350 0054 4000     		.short	64
 351 0056 0000     		.space	2
 352 0058 00203812 		.word	305668096
 353 005c 01       		.byte	1
 354 005d 000000   		.space	3
 355 0060 4300     		.short	67
 356 0062 0000     		.space	2
 357 0064 00103512 		.word	305467392
 358 0068 04       		.byte	4
 359 0069 000000   		.space	3
 360 006c 4400     		.short	68
 361 006e 0000     		.space	2
 362 0070 00203512 		.word	305471488
 363 0074 04       		.byte	4
 364 0075 000000   		.space	3
 365 0078 4500     		.short	69
 366 007a 0000     		.space	2
 367 007c 00303512 		.word	305475584
 368 0080 04       		.byte	4
 369 0081 000000   		.space	3
 370 0084 4600     		.short	70
 371 0086 0000     		.space	2
 372 0088 00403512 		.word	305479680
 373 008c 04       		.byte	4
 374 008d 000000   		.space	3
 375 0090 4700     		.short	71
 376 0092 0000     		.space	2
 377 0094 00503512 		.word	305483776
ARM GAS  /tmp/ccrLz8Gq.s 			page 11


 378 0098 04       		.byte	4
 379 0099 000000   		.space	3
 380 009c 4A00     		.short	74
 381 009e 0000     		.space	2
 382 00a0 00203A12 		.word	305799168
 383 00a4 01       		.byte	1
 384 00a5 000000   		.space	3
 385 00a8 4B00     		.short	75
 386 00aa 0000     		.space	2
 387 00ac 00003B12 		.word	305856512
 388 00b0 01       		.byte	1
 389 00b1 000000   		.space	3
 390 00b4 5C00     		.short	92
 391 00b6 0000     		.space	2
 392 00b8 00009023 		.word	596639744
 393 00bc 01       		.byte	1
 394 00bd 000000   		.space	3
 395 00c0 7800     		.short	120
 396 00c2 0000     		.space	2
 397 00c4 00000032 		.word	838860800
 398 00c8 04       		.byte	4
 399 00c9 000000   		.space	3
 400 00cc 0200     		.short	2
 401 00ce 0000     		.space	2
 402 00d0 00001133 		.word	856752128
 403 00d4 04       		.byte	4
 404 00d5 000000   		.space	3
 405 00d8 7900     		.short	121
 406 00da 0000     		.space	2
 407 00dc 00001233 		.word	856817664
 408 00e0 02       		.byte	2
 409 00e1 000000   		.space	3
 410 00e4 7A00     		.short	122
 411 00e6 0000     		.space	2
 412 00e8 00002133 		.word	857800704
 413 00ec 04       		.byte	4
 414 00ed 000000   		.space	3
 415 00f0 7B00     		.short	123
 416 00f2 0000     		.space	2
 417 00f4 00002233 		.word	857866240
 418 00f8 02       		.byte	2
 419 00f9 000000   		.space	3
 420 00fc 7C00     		.short	124
 421 00fe 0000     		.space	2
 422 0100 00003133 		.word	858849280
 423 0104 04       		.byte	4
 424 0105 000000   		.space	3
 425 0108 7D00     		.short	125
 426 010a 0000     		.space	2
 427 010c 00003233 		.word	858914816
 428 0110 02       		.byte	2
 429 0111 000000   		.space	3
 430 0114 7E00     		.short	126
 431 0116 0000     		.space	2
 432 0118 00001034 		.word	873463808
 433 011c 01       		.byte	1
 434 011d 000000   		.space	3
ARM GAS  /tmp/ccrLz8Gq.s 			page 12


 435 0120 7F00     		.short	127
 436 0122 0000     		.space	2
 437 0124 00002034 		.word	874512384
 438 0128 01       		.byte	1
 439 0129 000000   		.space	3
 440 012c 8000     		.short	128
 441 012e 0000     		.space	2
 442 0130 00003034 		.word	875560960
 443 0134 01       		.byte	1
 444 0135 000000   		.space	3
 445 0138 8100     		.short	129
 446 013a 0000     		.space	2
 447 013c 00004034 		.word	876609536
 448 0140 01       		.byte	1
 449 0141 000000   		.space	3
 450 0144 8200     		.short	130
 451 0146 0000     		.space	2
 452 0148 00005034 		.word	877658112
 453 014c 01       		.byte	1
 454 014d 000000   		.space	3
 455 0150 8300     		.short	131
 456 0152 0000     		.space	2
 457 0154 00000035 		.word	889192448
 458 0158 01       		.byte	1
 459 0159 000000   		.space	3
 460 015c 1400     		.short	20
 461 015e 0000     		.space	2
 462 0160 00001035 		.word	890241024
 463 0164 04       		.byte	4
 464 0165 000000   		.space	3
 465 0168 1500     		.short	21
 466 016a 0000     		.space	2
 467 016c 00002035 		.word	891289600
 468 0170 04       		.byte	4
 469 0171 000000   		.space	3
 470 0174 1600     		.short	22
 471 0176 0000     		.space	2
 472 0178 00003035 		.word	892338176
 473 017c 02       		.byte	2
 474 017d 000000   		.space	3
 475 0180 8400     		.short	132
 476 0182 0000     		.space	2
 477 0184 00001036 		.word	907018240
 478 0188 01       		.byte	1
 479 0189 000000   		.space	3
 480 018c 3C00     		.short	60
 481 018e 0000     		.space	2
 482 0190 00002136 		.word	908132352
 483 0194 01       		.byte	1
 484 0195 000000   		.space	3
 485 0198 3D00     		.short	61
 486 019a 0000     		.space	2
 487 019c 00002236 		.word	908197888
 488 01a0 01       		.byte	1
 489 01a1 000000   		.space	3
 490 01a4 3E00     		.short	62
 491 01a6 0000     		.space	2
ARM GAS  /tmp/ccrLz8Gq.s 			page 13


 492 01a8 00002336 		.word	908263424
 493 01ac 01       		.byte	1
 494 01ad 000000   		.space	3
 495              		.text
 496              	.Letext0:
 497              		.file 2 "/usr/lib/gcc/arm-none-eabi/10.3.1/include/stdint.h"
 498              		.file 3 "Core/Inc/app_param_dict.h"
ARM GAS  /tmp/ccrLz8Gq.s 			page 14

