ARM GAS  /tmp/cc1v4A75.s 			page 1


   1              		.cpu cortex-m3
   2              		.eabi_attribute 20, 1
   3              		.eabi_attribute 21, 1
   4              		.eabi_attribute 23, 3
   5              		.eabi_attribute 24, 1
   6              		.eabi_attribute 25, 1
   7              		.eabi_attribute 26, 1
   8              		.eabi_attribute 30, 1
   9              		.eabi_attribute 34, 1
  10              		.eabi_attribute 18, 4
  11              		.file	"app_uart_handlers.c"
  12              		.text
  13              	.Ltext0:
  14              		.cfi_sections	.debug_frame
  15              		.section	.text.read_be_u32,"ax",%progbits
  16              		.align	1
  17              		.arch armv7-m
  18              		.syntax unified
  19              		.thumb
  20              		.thumb_func
  21              		.fpu softvfp
  23              	read_be_u32:
  24              	.LVL0:
  25              	.LFB8:
  26              		.file 1 "Core/Src/app_uart_handlers.c"
   1:Core/Src/app_uart_handlers.c **** #include "app_uart_rx.h"
   2:Core/Src/app_uart_handlers.c **** #include "app_param_dict.h"
   3:Core/Src/app_uart_handlers.c **** #include "app_menu.h"
   4:Core/Src/app_uart_handlers.c **** #include "cmsis_os.h"
   5:Core/Src/app_uart_handlers.c **** 
   6:Core/Src/app_uart_handlers.c **** #include <stdint.h>
   7:Core/Src/app_uart_handlers.c **** 
   8:Core/Src/app_uart_handlers.c **** /* 由 freertos.c 中定义 */
   9:Core/Src/app_uart_handlers.c **** extern osMutexId_t gParamMutexHandle;
  10:Core/Src/app_uart_handlers.c **** 
  11:Core/Src/app_uart_handlers.c **** #define NEIGHBOR_NODE_CACHE_MAX 64u
  12:Core/Src/app_uart_handlers.c **** 
  13:Core/Src/app_uart_handlers.c **** typedef struct
  14:Core/Src/app_uart_handlers.c **** {
  15:Core/Src/app_uart_handlers.c ****   uint8_t id;
  16:Core/Src/app_uart_handlers.c ****   uint32_t ip;
  17:Core/Src/app_uart_handlers.c ****   uint8_t hops;
  18:Core/Src/app_uart_handlers.c ****   int8_t rssi;
  19:Core/Src/app_uart_handlers.c ****   uint16_t delay;
  20:Core/Src/app_uart_handlers.c ****   int32_t lon;
  21:Core/Src/app_uart_handlers.c ****   int32_t lat;
  22:Core/Src/app_uart_handlers.c ****   uint16_t alt;
  23:Core/Src/app_uart_handlers.c **** } NeighborNodeCache_t;
  24:Core/Src/app_uart_handlers.c **** 
  25:Core/Src/app_uart_handlers.c **** static NeighborNodeCache_t s_neighborNodeCache[NEIGHBOR_NODE_CACHE_MAX];
  26:Core/Src/app_uart_handlers.c **** static uint8_t s_neighborNodeCount = 0u;
  27:Core/Src/app_uart_handlers.c **** 
  28:Core/Src/app_uart_handlers.c **** static void cache_write_neighbor_to_params(const NeighborNodeCache_t *node)
  29:Core/Src/app_uart_handlers.c **** {
  30:Core/Src/app_uart_handlers.c ****   if (node == NULL)
  31:Core/Src/app_uart_handlers.c ****   {
  32:Core/Src/app_uart_handlers.c ****     return;
ARM GAS  /tmp/cc1v4A75.s 			page 2


  33:Core/Src/app_uart_handlers.c ****   }
  34:Core/Src/app_uart_handlers.c **** 
  35:Core/Src/app_uart_handlers.c ****   (void)APP_ParamDict_SetValueUnsafe(PARAM_ID_NEIGHBOR_NODE_ID, (int32_t)node->id);
  36:Core/Src/app_uart_handlers.c ****   (void)APP_ParamDict_SetValueUnsafe(PARAM_ID_NEIGHBOR_NODE_IP, (int32_t)node->ip);
  37:Core/Src/app_uart_handlers.c ****   (void)APP_ParamDict_SetValueUnsafe(PARAM_ID_NEIGHBOR_NODE_HOPS, (int32_t)node->hops);
  38:Core/Src/app_uart_handlers.c ****   (void)APP_ParamDict_SetValueUnsafe(PARAM_ID_NEIGHBOR_RSSI, (int32_t)node->rssi);
  39:Core/Src/app_uart_handlers.c ****   (void)APP_ParamDict_SetValueUnsafe(PARAM_ID_NEIGHBOR_NODE_DELAY, (int32_t)node->delay);
  40:Core/Src/app_uart_handlers.c ****   (void)APP_ParamDict_SetValueUnsafe(PARAM_ID_NEIGHBOR_NODE_LON, node->lon);
  41:Core/Src/app_uart_handlers.c ****   (void)APP_ParamDict_SetValueUnsafe(PARAM_ID_NEIGHBOR_NODE_LAT, node->lat);
  42:Core/Src/app_uart_handlers.c ****   (void)APP_ParamDict_SetValueUnsafe(PARAM_ID_NEIGHBOR_NODE_ALT, (int32_t)node->alt);
  43:Core/Src/app_uart_handlers.c **** }
  44:Core/Src/app_uart_handlers.c **** 
  45:Core/Src/app_uart_handlers.c **** uint8_t APP_UartRx_GetNeighborCountCached(void)
  46:Core/Src/app_uart_handlers.c **** {
  47:Core/Src/app_uart_handlers.c ****   return s_neighborNodeCount;
  48:Core/Src/app_uart_handlers.c **** }
  49:Core/Src/app_uart_handlers.c **** 
  50:Core/Src/app_uart_handlers.c **** bool APP_UartRx_GetNeighborNodeIdByIndex(uint8_t oneBasedIndex, uint8_t *outMemberId)
  51:Core/Src/app_uart_handlers.c **** {
  52:Core/Src/app_uart_handlers.c ****   uint8_t idx;
  53:Core/Src/app_uart_handlers.c **** 
  54:Core/Src/app_uart_handlers.c ****   if ((oneBasedIndex == 0u) || (outMemberId == NULL))
  55:Core/Src/app_uart_handlers.c ****   {
  56:Core/Src/app_uart_handlers.c ****     return false;
  57:Core/Src/app_uart_handlers.c ****   }
  58:Core/Src/app_uart_handlers.c **** 
  59:Core/Src/app_uart_handlers.c ****   idx = (uint8_t)(oneBasedIndex - 1u);
  60:Core/Src/app_uart_handlers.c ****   if (idx >= s_neighborNodeCount)
  61:Core/Src/app_uart_handlers.c ****   {
  62:Core/Src/app_uart_handlers.c ****     return false;
  63:Core/Src/app_uart_handlers.c ****   }
  64:Core/Src/app_uart_handlers.c **** 
  65:Core/Src/app_uart_handlers.c ****   *outMemberId = s_neighborNodeCache[idx].id;
  66:Core/Src/app_uart_handlers.c ****   return true;
  67:Core/Src/app_uart_handlers.c **** }
  68:Core/Src/app_uart_handlers.c **** 
  69:Core/Src/app_uart_handlers.c **** bool APP_UartRx_LoadNeighborByIndexToParams(uint8_t oneBasedIndex)
  70:Core/Src/app_uart_handlers.c **** {
  71:Core/Src/app_uart_handlers.c ****   uint8_t idx;
  72:Core/Src/app_uart_handlers.c **** 
  73:Core/Src/app_uart_handlers.c ****   if (oneBasedIndex == 0u)
  74:Core/Src/app_uart_handlers.c ****   {
  75:Core/Src/app_uart_handlers.c ****     return false;
  76:Core/Src/app_uart_handlers.c ****   }
  77:Core/Src/app_uart_handlers.c **** 
  78:Core/Src/app_uart_handlers.c ****   idx = (uint8_t)(oneBasedIndex - 1u);
  79:Core/Src/app_uart_handlers.c ****   if (idx >= s_neighborNodeCount)
  80:Core/Src/app_uart_handlers.c ****   {
  81:Core/Src/app_uart_handlers.c ****     return false;
  82:Core/Src/app_uart_handlers.c ****   }
  83:Core/Src/app_uart_handlers.c **** 
  84:Core/Src/app_uart_handlers.c ****   if (gParamMutexHandle != NULL)
  85:Core/Src/app_uart_handlers.c ****   {
  86:Core/Src/app_uart_handlers.c ****     (void)osMutexAcquire(gParamMutexHandle, osWaitForever);
  87:Core/Src/app_uart_handlers.c ****   }
  88:Core/Src/app_uart_handlers.c **** 
  89:Core/Src/app_uart_handlers.c ****   cache_write_neighbor_to_params(&s_neighborNodeCache[idx]);
ARM GAS  /tmp/cc1v4A75.s 			page 3


  90:Core/Src/app_uart_handlers.c **** 
  91:Core/Src/app_uart_handlers.c ****   if (gParamMutexHandle != NULL)
  92:Core/Src/app_uart_handlers.c ****   {
  93:Core/Src/app_uart_handlers.c ****     (void)osMutexRelease(gParamMutexHandle);
  94:Core/Src/app_uart_handlers.c ****   }
  95:Core/Src/app_uart_handlers.c **** 
  96:Core/Src/app_uart_handlers.c ****   return true;
  97:Core/Src/app_uart_handlers.c **** }
  98:Core/Src/app_uart_handlers.c **** 
  99:Core/Src/app_uart_handlers.c **** static uint32_t read_be_u32(const uint8_t *p)
 100:Core/Src/app_uart_handlers.c **** {
  27              		.loc 1 100 1 view -0
  28              		.cfi_startproc
  29              		@ args = 0, pretend = 0, frame = 0
  30              		@ frame_needed = 0, uses_anonymous_args = 0
  31              		@ link register save eliminated.
 101:Core/Src/app_uart_handlers.c ****   return ((uint32_t)p[0] << 24) |
  32              		.loc 1 101 3 view .LVU1
  33              		.loc 1 101 22 is_stmt 0 view .LVU2
  34 0000 0278     		ldrb	r2, [r0]	@ zero_extendqisi2
 102:Core/Src/app_uart_handlers.c ****          ((uint32_t)p[1] << 16) |
  35              		.loc 1 102 22 view .LVU3
  36 0002 4378     		ldrb	r3, [r0, #1]	@ zero_extendqisi2
  37              		.loc 1 102 26 view .LVU4
  38 0004 1B04     		lsls	r3, r3, #16
 101:Core/Src/app_uart_handlers.c ****   return ((uint32_t)p[0] << 24) |
  39              		.loc 1 101 33 view .LVU5
  40 0006 43EA0263 		orr	r3, r3, r2, lsl #24
 103:Core/Src/app_uart_handlers.c ****          ((uint32_t)p[2] << 8)  |
  41              		.loc 1 103 22 view .LVU6
  42 000a 8278     		ldrb	r2, [r0, #2]	@ zero_extendqisi2
 102:Core/Src/app_uart_handlers.c ****          ((uint32_t)p[1] << 16) |
  43              		.loc 1 102 33 view .LVU7
  44 000c 43EA0223 		orr	r3, r3, r2, lsl #8
 104:Core/Src/app_uart_handlers.c ****          ((uint32_t)p[3]);
  45              		.loc 1 104 22 view .LVU8
  46 0010 C078     		ldrb	r0, [r0, #3]	@ zero_extendqisi2
  47              	.LVL1:
 105:Core/Src/app_uart_handlers.c **** }
  48              		.loc 1 105 1 view .LVU9
  49 0012 1843     		orrs	r0, r0, r3
  50 0014 7047     		bx	lr
  51              		.cfi_endproc
  52              	.LFE8:
  54              		.section	.text.read_le_u32,"ax",%progbits
  55              		.align	1
  56              		.syntax unified
  57              		.thumb
  58              		.thumb_func
  59              		.fpu softvfp
  61              	read_le_u32:
  62              	.LVL2:
  63              	.LFB9:
 106:Core/Src/app_uart_handlers.c **** 
 107:Core/Src/app_uart_handlers.c **** static uint32_t read_le_u32(const uint8_t *p)
 108:Core/Src/app_uart_handlers.c **** {
  64              		.loc 1 108 1 is_stmt 1 view -0
ARM GAS  /tmp/cc1v4A75.s 			page 4


  65              		.cfi_startproc
  66              		@ args = 0, pretend = 0, frame = 0
  67              		@ frame_needed = 0, uses_anonymous_args = 0
  68              		@ link register save eliminated.
 109:Core/Src/app_uart_handlers.c ****   return ((uint32_t)p[0]) |
  69              		.loc 1 109 3 view .LVU11
  70              		.loc 1 109 22 is_stmt 0 view .LVU12
  71 0000 0378     		ldrb	r3, [r0]	@ zero_extendqisi2
 110:Core/Src/app_uart_handlers.c ****          ((uint32_t)p[1] << 8) |
  72              		.loc 1 110 22 view .LVU13
  73 0002 4278     		ldrb	r2, [r0, #1]	@ zero_extendqisi2
 109:Core/Src/app_uart_handlers.c ****   return ((uint32_t)p[0]) |
  74              		.loc 1 109 27 view .LVU14
  75 0004 43EA0223 		orr	r3, r3, r2, lsl #8
 111:Core/Src/app_uart_handlers.c ****          ((uint32_t)p[2] << 16) |
  76              		.loc 1 111 22 view .LVU15
  77 0008 8278     		ldrb	r2, [r0, #2]	@ zero_extendqisi2
 110:Core/Src/app_uart_handlers.c ****          ((uint32_t)p[1] << 8) |
  78              		.loc 1 110 32 view .LVU16
  79 000a 43EA0243 		orr	r3, r3, r2, lsl #16
 112:Core/Src/app_uart_handlers.c ****          ((uint32_t)p[3] << 24);
  80              		.loc 1 112 22 view .LVU17
  81 000e C078     		ldrb	r0, [r0, #3]	@ zero_extendqisi2
  82              	.LVL3:
 113:Core/Src/app_uart_handlers.c **** }
  83              		.loc 1 113 1 view .LVU18
  84 0010 43EA0060 		orr	r0, r3, r0, lsl #24
  85 0014 7047     		bx	lr
  86              		.cfi_endproc
  87              	.LFE9:
  89              		.section	.text.read_be_i16,"ax",%progbits
  90              		.align	1
  91              		.syntax unified
  92              		.thumb
  93              		.thumb_func
  94              		.fpu softvfp
  96              	read_be_i16:
  97              	.LVL4:
  98              	.LFB10:
 114:Core/Src/app_uart_handlers.c **** 
 115:Core/Src/app_uart_handlers.c **** static int16_t read_be_i16(const uint8_t *p)
 116:Core/Src/app_uart_handlers.c **** {
  99              		.loc 1 116 1 is_stmt 1 view -0
 100              		.cfi_startproc
 101              		@ args = 0, pretend = 0, frame = 0
 102              		@ frame_needed = 0, uses_anonymous_args = 0
 103              		@ link register save eliminated.
 117:Core/Src/app_uart_handlers.c ****   return (int16_t)(((uint16_t)p[0] << 8) | (uint16_t)p[1]);
 104              		.loc 1 117 3 view .LVU20
 105              		.loc 1 117 32 is_stmt 0 view .LVU21
 106 0000 0378     		ldrb	r3, [r0]	@ zero_extendqisi2
 107              		.loc 1 117 55 view .LVU22
 108 0002 4078     		ldrb	r0, [r0, #1]	@ zero_extendqisi2
 109              	.LVL5:
 110              		.loc 1 117 10 view .LVU23
 111 0004 40EA0320 		orr	r0, r0, r3, lsl #8
 118:Core/Src/app_uart_handlers.c **** }
ARM GAS  /tmp/cc1v4A75.s 			page 5


 112              		.loc 1 118 1 view .LVU24
 113 0008 00B2     		sxth	r0, r0
 114 000a 7047     		bx	lr
 115              		.cfi_endproc
 116              	.LFE10:
 118              		.section	.text.read_le_u16,"ax",%progbits
 119              		.align	1
 120              		.syntax unified
 121              		.thumb
 122              		.thumb_func
 123              		.fpu softvfp
 125              	read_le_u16:
 126              	.LVL6:
 127              	.LFB11:
 119:Core/Src/app_uart_handlers.c **** 
 120:Core/Src/app_uart_handlers.c **** static uint16_t read_le_u16(const uint8_t *p)
 121:Core/Src/app_uart_handlers.c **** {
 128              		.loc 1 121 1 is_stmt 1 view -0
 129              		.cfi_startproc
 130              		@ args = 0, pretend = 0, frame = 0
 131              		@ frame_needed = 0, uses_anonymous_args = 0
 132              		@ link register save eliminated.
 122:Core/Src/app_uart_handlers.c ****   return (uint16_t)((uint16_t)p[0] | ((uint16_t)p[1] << 8));
 133              		.loc 1 122 3 view .LVU26
 134              		.loc 1 122 32 is_stmt 0 view .LVU27
 135 0000 0378     		ldrb	r3, [r0]	@ zero_extendqisi2
 136              		.loc 1 122 50 view .LVU28
 137 0002 4078     		ldrb	r0, [r0, #1]	@ zero_extendqisi2
 138              	.LVL7:
 123:Core/Src/app_uart_handlers.c **** }
 139              		.loc 1 123 1 view .LVU29
 140 0004 43EA0020 		orr	r0, r3, r0, lsl #8
 141 0008 7047     		bx	lr
 142              		.cfi_endproc
 143              	.LFE11:
 145              		.section	.text.read_be_i32,"ax",%progbits
 146              		.align	1
 147              		.syntax unified
 148              		.thumb
 149              		.thumb_func
 150              		.fpu softvfp
 152              	read_be_i32:
 153              	.LVL8:
 154              	.LFB12:
 124:Core/Src/app_uart_handlers.c **** 
 125:Core/Src/app_uart_handlers.c **** static int32_t read_be_i32(const uint8_t *p)
 126:Core/Src/app_uart_handlers.c **** {
 155              		.loc 1 126 1 is_stmt 1 view -0
 156              		.cfi_startproc
 157              		@ args = 0, pretend = 0, frame = 0
 158              		@ frame_needed = 0, uses_anonymous_args = 0
 159              		.loc 1 126 1 is_stmt 0 view .LVU31
 160 0000 08B5     		push	{r3, lr}
 161              	.LCFI0:
 162              		.cfi_def_cfa_offset 8
 163              		.cfi_offset 3, -8
 164              		.cfi_offset 14, -4
ARM GAS  /tmp/cc1v4A75.s 			page 6


 127:Core/Src/app_uart_handlers.c ****   return (int32_t)read_be_u32(p);
 165              		.loc 1 127 3 is_stmt 1 view .LVU32
 166              		.loc 1 127 19 is_stmt 0 view .LVU33
 167 0002 FFF7FEFF 		bl	read_be_u32
 168              	.LVL9:
 128:Core/Src/app_uart_handlers.c **** }
 169              		.loc 1 128 1 view .LVU34
 170 0006 08BD     		pop	{r3, pc}
 171              		.cfi_endproc
 172              	.LFE12:
 174              		.section	.text.parse_ascii_coord_1e6,"ax",%progbits
 175              		.align	1
 176              		.syntax unified
 177              		.thumb
 178              		.thumb_func
 179              		.fpu softvfp
 181              	parse_ascii_coord_1e6:
 182              	.LVL10:
 183              	.LFB13:
 129:Core/Src/app_uart_handlers.c **** 
 130:Core/Src/app_uart_handlers.c **** static bool parse_ascii_coord_1e6(const uint8_t *buf, uint16_t len, int32_t *outVal)
 131:Core/Src/app_uart_handlers.c **** {
 184              		.loc 1 131 1 is_stmt 1 view -0
 185              		.cfi_startproc
 186              		@ args = 0, pretend = 0, frame = 0
 187              		@ frame_needed = 0, uses_anonymous_args = 0
 132:Core/Src/app_uart_handlers.c ****   bool neg = false;
 188              		.loc 1 132 3 view .LVU36
 133:Core/Src/app_uart_handlers.c ****   bool seenDot = false;
 189              		.loc 1 133 3 view .LVU37
 134:Core/Src/app_uart_handlers.c ****   bool hasDigit = false;
 190              		.loc 1 134 3 view .LVU38
 135:Core/Src/app_uart_handlers.c ****   int64_t intPart = 0;
 191              		.loc 1 135 3 view .LVU39
 136:Core/Src/app_uart_handlers.c ****   int64_t fracPart = 0;
 192              		.loc 1 136 3 view .LVU40
 137:Core/Src/app_uart_handlers.c ****   uint8_t fracDigits = 0;
 193              		.loc 1 137 3 view .LVU41
 138:Core/Src/app_uart_handlers.c **** 
 139:Core/Src/app_uart_handlers.c ****   if ((buf == NULL) || (outVal == NULL) || (len == 0u))
 194              		.loc 1 139 3 view .LVU42
 195              		.loc 1 139 6 is_stmt 0 view .LVU43
 196 0000 0028     		cmp	r0, #0
 197 0002 00F0DE80 		beq	.L25
 131:Core/Src/app_uart_handlers.c ****   bool neg = false;
 198              		.loc 1 131 1 discriminator 1 view .LVU44
 199 0006 2DE9F04F 		push	{r4, r5, r6, r7, r8, r9, r10, fp, lr}
 200              	.LCFI1:
 201              		.cfi_def_cfa_offset 36
 202              		.cfi_offset 4, -36
 203              		.cfi_offset 5, -32
 204              		.cfi_offset 6, -28
 205              		.cfi_offset 7, -24
 206              		.cfi_offset 8, -20
 207              		.cfi_offset 9, -16
 208              		.cfi_offset 10, -12
 209              		.cfi_offset 11, -8
ARM GAS  /tmp/cc1v4A75.s 			page 7


 210              		.cfi_offset 14, -4
 211 000a 0D46     		mov	r5, r1
 212 000c 8246     		mov	r10, r0
 213              		.loc 1 139 21 discriminator 1 view .LVU45
 214 000e 002A     		cmp	r2, #0
 215 0010 00F0D980 		beq	.L26
 216              		.loc 1 139 41 discriminator 2 view .LVU46
 217 0014 0029     		cmp	r1, #0
 218 0016 00F0D880 		beq	.L27
 140:Core/Src/app_uart_handlers.c ****   {
 141:Core/Src/app_uart_handlers.c ****     return false;
 142:Core/Src/app_uart_handlers.c ****   }
 143:Core/Src/app_uart_handlers.c **** 
 144:Core/Src/app_uart_handlers.c ****   uint16_t i = 0u;
 219              		.loc 1 144 12 view .LVU47
 220 001a 4FF0000C 		mov	ip, #0
 221 001e 03E0     		b	.L9
 222              	.LVL11:
 223              	.L10:
 224              	.LBB2:
 145:Core/Src/app_uart_handlers.c ****   while (i < len)
 146:Core/Src/app_uart_handlers.c ****   {
 147:Core/Src/app_uart_handlers.c ****     uint8_t c = buf[i];
 148:Core/Src/app_uart_handlers.c ****     if ((c == ' ') || (c == '\t') || (c == '\r') || (c == '\n'))
 149:Core/Src/app_uart_handlers.c ****     {
 150:Core/Src/app_uart_handlers.c ****       ++i;
 225              		.loc 1 150 7 is_stmt 1 view .LVU48
 226 0020 0CF1010C 		add	ip, ip, #1
 227              	.LVL12:
 228              		.loc 1 150 7 is_stmt 0 view .LVU49
 229 0024 1FFA8CFC 		uxth	ip, ip
 230              	.LVL13:
 151:Core/Src/app_uart_handlers.c ****       continue;
 231              		.loc 1 151 7 is_stmt 1 view .LVU50
 232              	.L9:
 233              		.loc 1 151 7 is_stmt 0 view .LVU51
 234              	.LBE2:
 145:Core/Src/app_uart_handlers.c ****   while (i < len)
 235              		.loc 1 145 9 is_stmt 1 view .LVU52
 236 0028 AC45     		cmp	ip, r5
 237 002a 09D2     		bcs	.L11
 238              	.LBB3:
 147:Core/Src/app_uart_handlers.c ****     if ((c == ' ') || (c == '\t') || (c == '\r') || (c == '\n'))
 239              		.loc 1 147 5 view .LVU53
 147:Core/Src/app_uart_handlers.c ****     if ((c == ' ') || (c == '\t') || (c == '\r') || (c == '\n'))
 240              		.loc 1 147 13 is_stmt 0 view .LVU54
 241 002c 1AF80C30 		ldrb	r3, [r10, ip]	@ zero_extendqisi2
 242              	.LVL14:
 148:Core/Src/app_uart_handlers.c ****     {
 243              		.loc 1 148 5 is_stmt 1 view .LVU55
 148:Core/Src/app_uart_handlers.c ****     {
 244              		.loc 1 148 8 is_stmt 0 view .LVU56
 245 0030 202B     		cmp	r3, #32
 246 0032 F5D0     		beq	.L10
 148:Core/Src/app_uart_handlers.c ****     {
 247              		.loc 1 148 20 discriminator 1 view .LVU57
 248 0034 092B     		cmp	r3, #9
ARM GAS  /tmp/cc1v4A75.s 			page 8


 249 0036 F3D0     		beq	.L10
 148:Core/Src/app_uart_handlers.c ****     {
 250              		.loc 1 148 35 discriminator 2 view .LVU58
 251 0038 0D2B     		cmp	r3, #13
 252 003a F1D0     		beq	.L10
 148:Core/Src/app_uart_handlers.c ****     {
 253              		.loc 1 148 50 discriminator 3 view .LVU59
 254 003c 0A2B     		cmp	r3, #10
 255 003e EFD0     		beq	.L10
 256              	.LVL15:
 257              	.L11:
 148:Core/Src/app_uart_handlers.c ****     {
 258              		.loc 1 148 50 discriminator 3 view .LVU60
 259              	.LBE3:
 152:Core/Src/app_uart_handlers.c ****     }
 153:Core/Src/app_uart_handlers.c ****     break;
 154:Core/Src/app_uart_handlers.c ****   }
 155:Core/Src/app_uart_handlers.c **** 
 156:Core/Src/app_uart_handlers.c ****   if ((i < len) && (buf[i] == '-'))
 260              		.loc 1 156 3 is_stmt 1 view .LVU61
 261              		.loc 1 156 6 is_stmt 0 view .LVU62
 262 0040 AC45     		cmp	ip, r5
 263 0042 03D2     		bcs	.L13
 264              		.loc 1 156 24 discriminator 1 view .LVU63
 265 0044 1AF80C30 		ldrb	r3, [r10, ip]	@ zero_extendqisi2
 266              		.loc 1 156 17 discriminator 1 view .LVU64
 267 0048 2D2B     		cmp	r3, #45
 268 004a 08D0     		beq	.L38
 269              	.L13:
 157:Core/Src/app_uart_handlers.c ****   {
 158:Core/Src/app_uart_handlers.c ****     neg = true;
 159:Core/Src/app_uart_handlers.c ****     ++i;
 160:Core/Src/app_uart_handlers.c ****   }
 161:Core/Src/app_uart_handlers.c ****   else if ((i < len) && (buf[i] == '+'))
 270              		.loc 1 161 8 is_stmt 1 view .LVU65
 271              		.loc 1 161 11 is_stmt 0 view .LVU66
 272 004c AC45     		cmp	ip, r5
 273 004e 61D2     		bcs	.L28
 274              		.loc 1 161 29 discriminator 1 view .LVU67
 275 0050 1AF80C30 		ldrb	r3, [r10, ip]	@ zero_extendqisi2
 276              		.loc 1 161 22 discriminator 1 view .LVU68
 277 0054 2B2B     		cmp	r3, #43
 278 0056 09D0     		beq	.L39
 132:Core/Src/app_uart_handlers.c ****   bool seenDot = false;
 279              		.loc 1 132 8 view .LVU69
 280 0058 4FF00008 		mov	r8, #0
 281 005c 5CE0     		b	.L14
 282              	.L38:
 158:Core/Src/app_uart_handlers.c ****     ++i;
 283              		.loc 1 158 5 is_stmt 1 view .LVU70
 284              	.LVL16:
 159:Core/Src/app_uart_handlers.c ****   }
 285              		.loc 1 159 5 view .LVU71
 286 005e 0CF1010C 		add	ip, ip, #1
 287              	.LVL17:
 159:Core/Src/app_uart_handlers.c ****   }
 288              		.loc 1 159 5 is_stmt 0 view .LVU72
ARM GAS  /tmp/cc1v4A75.s 			page 9


 289 0062 1FFA8CFC 		uxth	ip, ip
 290              	.LVL18:
 158:Core/Src/app_uart_handlers.c ****     ++i;
 291              		.loc 1 158 9 view .LVU73
 292 0066 4FF00108 		mov	r8, #1
 159:Core/Src/app_uart_handlers.c ****   }
 293              		.loc 1 159 5 view .LVU74
 294 006a 55E0     		b	.L14
 295              	.LVL19:
 296              	.L39:
 162:Core/Src/app_uart_handlers.c ****   {
 163:Core/Src/app_uart_handlers.c ****     ++i;
 297              		.loc 1 163 5 is_stmt 1 view .LVU75
 298 006c 0CF1010C 		add	ip, ip, #1
 299              	.LVL20:
 300              		.loc 1 163 5 is_stmt 0 view .LVU76
 301 0070 1FFA8CFC 		uxth	ip, ip
 302              	.LVL21:
 132:Core/Src/app_uart_handlers.c ****   bool seenDot = false;
 303              		.loc 1 132 8 view .LVU77
 304 0074 4FF00008 		mov	r8, #0
 305 0078 4EE0     		b	.L14
 306              	.LVL22:
 307              	.L40:
 308              	.LBB4:
 164:Core/Src/app_uart_handlers.c ****   }
 165:Core/Src/app_uart_handlers.c **** 
 166:Core/Src/app_uart_handlers.c ****   for (; i < len; ++i)
 167:Core/Src/app_uart_handlers.c ****   {
 168:Core/Src/app_uart_handlers.c ****     uint8_t c = buf[i];
 169:Core/Src/app_uart_handlers.c **** 
 170:Core/Src/app_uart_handlers.c ****     if ((c == '\0') || (c == ' ') || (c == '\t') || (c == '\r') || (c == '\n'))
 171:Core/Src/app_uart_handlers.c ****     {
 172:Core/Src/app_uart_handlers.c ****       break;
 173:Core/Src/app_uart_handlers.c ****     }
 174:Core/Src/app_uart_handlers.c **** 
 175:Core/Src/app_uart_handlers.c ****     if ((c == '.') && (!seenDot))
 309              		.loc 1 175 20 discriminator 1 view .LVU78
 310 007a B9F1000F 		cmp	r9, #0
 311 007e 2CD1     		bne	.L16
 176:Core/Src/app_uart_handlers.c ****     {
 177:Core/Src/app_uart_handlers.c ****       seenDot = true;
 312              		.loc 1 177 15 view .LVU79
 313 0080 4FF00109 		mov	r9, #1
 314              	.LVL23:
 315              		.loc 1 177 15 view .LVU80
 316 0084 16E0     		b	.L17
 317              	.LVL24:
 318              	.L18:
 178:Core/Src/app_uart_handlers.c ****       continue;
 179:Core/Src/app_uart_handlers.c ****     }
 180:Core/Src/app_uart_handlers.c **** 
 181:Core/Src/app_uart_handlers.c ****     if ((c < '0') || (c > '9'))
 182:Core/Src/app_uart_handlers.c ****     {
 183:Core/Src/app_uart_handlers.c ****       break;
 184:Core/Src/app_uart_handlers.c ****     }
 185:Core/Src/app_uart_handlers.c **** 
ARM GAS  /tmp/cc1v4A75.s 			page 10


 186:Core/Src/app_uart_handlers.c ****     hasDigit = true;
 187:Core/Src/app_uart_handlers.c ****     if (!seenDot)
 188:Core/Src/app_uart_handlers.c ****     {
 189:Core/Src/app_uart_handlers.c ****       intPart = (intPart * 10) + (int64_t)(c - '0');
 190:Core/Src/app_uart_handlers.c ****     }
 191:Core/Src/app_uart_handlers.c ****     else if (fracDigits < 6u)
 319              		.loc 1 191 10 is_stmt 1 view .LVU81
 320              		.loc 1 191 13 is_stmt 0 view .LVU82
 321 0086 BEF1050F 		cmp	lr, #5
 322 008a 41D8     		bhi	.L31
 192:Core/Src/app_uart_handlers.c ****     {
 193:Core/Src/app_uart_handlers.c ****       fracPart = (fracPart * 10) + (int64_t)(c - '0');
 323              		.loc 1 193 7 is_stmt 1 view .LVU83
 324              		.loc 1 193 28 is_stmt 0 view .LVU84
 325 008c B000     		lsls	r0, r6, #2
 326 008e 40EA9170 		orr	r0, r0, r1, lsr #30
 327 0092 4FEA810B 		lsl	fp, r1, #2
 328 0096 1BEB0101 		adds	r1, fp, r1
 329              	.LVL25:
 330              		.loc 1 193 28 view .LVU85
 331 009a 46EB0006 		adc	r6, r6, r0
 332 009e 4918     		adds	r1, r1, r1
 333 00a0 7641     		adcs	r6, r6, r6
 334              		.loc 1 193 48 view .LVU86
 335 00a2 303B     		subs	r3, r3, #48
 336              	.LVL26:
 337              		.loc 1 193 16 view .LVU87
 338 00a4 C918     		adds	r1, r1, r3
 339 00a6 46EBE376 		adc	r6, r6, r3, asr #31
 340              	.LVL27:
 194:Core/Src/app_uart_handlers.c ****       ++fracDigits;
 341              		.loc 1 194 7 is_stmt 1 view .LVU88
 342 00aa 0EF1010E 		add	lr, lr, #1
 343              	.LVL28:
 344              		.loc 1 194 7 is_stmt 0 view .LVU89
 345 00ae 5FFA8EFE 		uxtb	lr, lr
 346              	.LVL29:
 186:Core/Src/app_uart_handlers.c ****     if (!seenDot)
 347              		.loc 1 186 14 view .LVU90
 348 00b2 4846     		mov	r0, r9
 349              	.LVL30:
 350              	.L17:
 186:Core/Src/app_uart_handlers.c ****     if (!seenDot)
 351              		.loc 1 186 14 view .LVU91
 352              	.LBE4:
 166:Core/Src/app_uart_handlers.c ****   {
 353              		.loc 1 166 19 is_stmt 1 view .LVU92
 354 00b4 0CF1010C 		add	ip, ip, #1
 355              	.LVL31:
 166:Core/Src/app_uart_handlers.c ****   {
 356              		.loc 1 166 19 is_stmt 0 view .LVU93
 357 00b8 1FFA8CFC 		uxth	ip, ip
 358              	.LVL32:
 359              	.L19:
 166:Core/Src/app_uart_handlers.c ****   {
 360              		.loc 1 166 10 is_stmt 1 discriminator 1 view .LVU94
 166:Core/Src/app_uart_handlers.c ****   {
ARM GAS  /tmp/cc1v4A75.s 			page 11


 361              		.loc 1 166 3 is_stmt 0 discriminator 1 view .LVU95
 362 00bc AC45     		cmp	ip, r5
 363 00be 34D2     		bcs	.L15
 364              	.LBB5:
 168:Core/Src/app_uart_handlers.c **** 
 365              		.loc 1 168 5 is_stmt 1 view .LVU96
 168:Core/Src/app_uart_handlers.c **** 
 366              		.loc 1 168 13 is_stmt 0 view .LVU97
 367 00c0 1AF80C30 		ldrb	r3, [r10, ip]	@ zero_extendqisi2
 368              	.LVL33:
 170:Core/Src/app_uart_handlers.c ****     {
 369              		.loc 1 170 5 is_stmt 1 view .LVU98
 170:Core/Src/app_uart_handlers.c ****     {
 370              		.loc 1 170 8 is_stmt 0 view .LVU99
 371 00c4 8BB3     		cbz	r3, .L15
 170:Core/Src/app_uart_handlers.c ****     {
 372              		.loc 1 170 21 discriminator 1 view .LVU100
 373 00c6 202B     		cmp	r3, #32
 374 00c8 2FD0     		beq	.L15
 170:Core/Src/app_uart_handlers.c ****     {
 375              		.loc 1 170 35 discriminator 2 view .LVU101
 376 00ca 092B     		cmp	r3, #9
 377 00cc 2DD0     		beq	.L15
 170:Core/Src/app_uart_handlers.c ****     {
 378              		.loc 1 170 50 discriminator 3 view .LVU102
 379 00ce 0D2B     		cmp	r3, #13
 380 00d0 2BD0     		beq	.L15
 170:Core/Src/app_uart_handlers.c ****     {
 381              		.loc 1 170 65 discriminator 4 view .LVU103
 382 00d2 0A2B     		cmp	r3, #10
 383 00d4 29D0     		beq	.L15
 175:Core/Src/app_uart_handlers.c ****     {
 384              		.loc 1 175 5 is_stmt 1 view .LVU104
 175:Core/Src/app_uart_handlers.c ****     {
 385              		.loc 1 175 8 is_stmt 0 view .LVU105
 386 00d6 2E2B     		cmp	r3, #46
 387 00d8 CFD0     		beq	.L40
 388              	.L16:
 181:Core/Src/app_uart_handlers.c ****     {
 389              		.loc 1 181 5 is_stmt 1 view .LVU106
 181:Core/Src/app_uart_handlers.c ****     {
 390              		.loc 1 181 19 is_stmt 0 view .LVU107
 391 00da A3F1300B 		sub	fp, r3, #48
 392 00de 5FFA8BFB 		uxtb	fp, fp
 181:Core/Src/app_uart_handlers.c ****     {
 393              		.loc 1 181 8 view .LVU108
 394 00e2 BBF1090F 		cmp	fp, #9
 395 00e6 20D8     		bhi	.L15
 186:Core/Src/app_uart_handlers.c ****     if (!seenDot)
 396              		.loc 1 186 5 is_stmt 1 view .LVU109
 397              	.LVL34:
 187:Core/Src/app_uart_handlers.c ****     {
 398              		.loc 1 187 5 view .LVU110
 187:Core/Src/app_uart_handlers.c ****     {
 399              		.loc 1 187 8 is_stmt 0 view .LVU111
 400 00e8 B9F1000F 		cmp	r9, #0
 401 00ec CBD1     		bne	.L18
ARM GAS  /tmp/cc1v4A75.s 			page 12


 189:Core/Src/app_uart_handlers.c ****     }
 402              		.loc 1 189 7 is_stmt 1 view .LVU112
 189:Core/Src/app_uart_handlers.c ****     }
 403              		.loc 1 189 26 is_stmt 0 view .LVU113
 404 00ee B800     		lsls	r0, r7, #2
 405 00f0 40EA9470 		orr	r0, r0, r4, lsr #30
 406 00f4 4FEA840B 		lsl	fp, r4, #2
 407 00f8 1BEB0404 		adds	r4, fp, r4
 408              	.LVL35:
 189:Core/Src/app_uart_handlers.c ****     }
 409              		.loc 1 189 26 view .LVU114
 410 00fc 47EB0007 		adc	r7, r7, r0
 411 0100 2419     		adds	r4, r4, r4
 412 0102 7F41     		adcs	r7, r7, r7
 189:Core/Src/app_uart_handlers.c ****     }
 413              		.loc 1 189 46 view .LVU115
 414 0104 303B     		subs	r3, r3, #48
 415              	.LVL36:
 189:Core/Src/app_uart_handlers.c ****     }
 416              		.loc 1 189 15 view .LVU116
 417 0106 E418     		adds	r4, r4, r3
 418 0108 47EBE377 		adc	r7, r7, r3, asr #31
 419              	.LVL37:
 186:Core/Src/app_uart_handlers.c ****     if (!seenDot)
 420              		.loc 1 186 14 view .LVU117
 421 010c 0120     		movs	r0, #1
 422 010e D1E7     		b	.L17
 423              	.LVL38:
 424              	.L31:
 186:Core/Src/app_uart_handlers.c ****     if (!seenDot)
 425              		.loc 1 186 14 view .LVU118
 426 0110 4846     		mov	r0, r9
 427 0112 CFE7     		b	.L17
 428              	.LVL39:
 429              	.L28:
 186:Core/Src/app_uart_handlers.c ****     if (!seenDot)
 430              		.loc 1 186 14 view .LVU119
 431              	.LBE5:
 132:Core/Src/app_uart_handlers.c ****   bool seenDot = false;
 432              		.loc 1 132 8 view .LVU120
 433 0114 4FF00008 		mov	r8, #0
 434              	.LVL40:
 435              	.L14:
 132:Core/Src/app_uart_handlers.c ****   bool seenDot = false;
 436              		.loc 1 132 8 discriminator 1 view .LVU121
 437 0118 4FF0000E 		mov	lr, #0
 438 011c 7146     		mov	r1, lr
 439              	.LVL41:
 132:Core/Src/app_uart_handlers.c ****   bool seenDot = false;
 440              		.loc 1 132 8 discriminator 1 view .LVU122
 441 011e 7646     		mov	r6, lr
 442 0120 7446     		mov	r4, lr
 443 0122 7746     		mov	r7, lr
 444 0124 7046     		mov	r0, lr
 445              	.LVL42:
 132:Core/Src/app_uart_handlers.c ****   bool seenDot = false;
 446              		.loc 1 132 8 discriminator 1 view .LVU123
ARM GAS  /tmp/cc1v4A75.s 			page 13


 447 0126 F146     		mov	r9, lr
 448 0128 C8E7     		b	.L19
 449              	.LVL43:
 450              	.L15:
 195:Core/Src/app_uart_handlers.c ****     }
 196:Core/Src/app_uart_handlers.c ****   }
 197:Core/Src/app_uart_handlers.c **** 
 198:Core/Src/app_uart_handlers.c ****   if (!hasDigit)
 451              		.loc 1 198 3 is_stmt 1 view .LVU124
 452              		.loc 1 198 6 is_stmt 0 view .LVU125
 453 012a 80B9     		cbnz	r0, .L21
 454 012c 47E0     		b	.L8
 455              	.LVL44:
 456              	.L22:
 199:Core/Src/app_uart_handlers.c ****   {
 200:Core/Src/app_uart_handlers.c ****     return false;
 201:Core/Src/app_uart_handlers.c ****   }
 202:Core/Src/app_uart_handlers.c **** 
 203:Core/Src/app_uart_handlers.c ****   while (fracDigits < 6u)
 204:Core/Src/app_uart_handlers.c ****   {
 205:Core/Src/app_uart_handlers.c ****     fracPart *= 10;
 457              		.loc 1 205 5 is_stmt 1 view .LVU126
 458              		.loc 1 205 14 is_stmt 0 view .LVU127
 459 012e B300     		lsls	r3, r6, #2
 460 0130 43EA9173 		orr	r3, r3, r1, lsr #30
 461 0134 4FEA810C 		lsl	ip, r1, #2
 462 0138 1CEB0101 		adds	r1, ip, r1
 463              	.LVL45:
 464              		.loc 1 205 14 view .LVU128
 465 013c 46EB0303 		adc	r3, r6, r3
 466 0140 4918     		adds	r1, r1, r1
 467 0142 43EB0306 		adc	r6, r3, r3
 468              	.LVL46:
 206:Core/Src/app_uart_handlers.c ****     ++fracDigits;
 469              		.loc 1 206 5 is_stmt 1 view .LVU129
 470 0146 0EF1010E 		add	lr, lr, #1
 471              	.LVL47:
 472              		.loc 1 206 5 is_stmt 0 view .LVU130
 473 014a 5FFA8EFE 		uxtb	lr, lr
 474              	.LVL48:
 475              	.L21:
 203:Core/Src/app_uart_handlers.c ****   {
 476              		.loc 1 203 9 is_stmt 1 view .LVU131
 477 014e BEF1050F 		cmp	lr, #5
 478 0152 ECD9     		bls	.L22
 207:Core/Src/app_uart_handlers.c ****   }
 208:Core/Src/app_uart_handlers.c **** 
 209:Core/Src/app_uart_handlers.c ****   int64_t scaled = (intPart * 1000000LL) + fracPart;
 479              		.loc 1 209 3 view .LVU132
 480              		.loc 1 209 29 is_stmt 0 view .LVU133
 481 0154 7B01     		lsls	r3, r7, #5
 482 0156 43EAD463 		orr	r3, r3, r4, lsr #27
 483 015a 6501     		lsls	r5, r4, #5
 484 015c 2D1B     		subs	r5, r5, r4
 485 015e 63EB0703 		sbc	r3, r3, r7
 486 0162 5B02     		lsls	r3, r3, #9
 487 0164 43EAD553 		orr	r3, r3, r5, lsr #23
ARM GAS  /tmp/cc1v4A75.s 			page 14


 488 0168 6D02     		lsls	r5, r5, #9
 489 016a 15EB040C 		adds	ip, r5, r4
 490 016e 47EB0303 		adc	r3, r7, r3
 491 0172 4FEA831E 		lsl	lr, r3, #6
 492              	.LVL49:
 493              		.loc 1 209 29 view .LVU134
 494 0176 4EEA9C6E 		orr	lr, lr, ip, lsr #26
 495 017a 4FEA8C15 		lsl	r5, ip, #6
 496 017e B5EB0C05 		subs	r5, r5, ip
 497 0182 6EEB0303 		sbc	r3, lr, r3
 498 0186 2C19     		adds	r4, r5, r4
 499              	.LVL50:
 500              		.loc 1 209 29 view .LVU135
 501 0188 47EB0303 		adc	r3, r7, r3
 502              		.loc 1 209 11 view .LVU136
 503 018c 6118     		adds	r1, r4, r1
 504              	.LVL51:
 505              		.loc 1 209 11 view .LVU137
 506 018e 43EB0603 		adc	r3, r3, r6
 507              	.LVL52:
 210:Core/Src/app_uart_handlers.c ****   if (neg)
 508              		.loc 1 210 3 is_stmt 1 view .LVU138
 509              		.loc 1 210 6 is_stmt 0 view .LVU139
 510 0192 B8F1000F 		cmp	r8, #0
 511 0196 02D0     		beq	.L23
 211:Core/Src/app_uart_handlers.c ****   {
 212:Core/Src/app_uart_handlers.c ****     scaled = -scaled;
 512              		.loc 1 212 5 is_stmt 1 view .LVU140
 513              		.loc 1 212 12 is_stmt 0 view .LVU141
 514 0198 4942     		negs	r1, r1
 515              	.LVL53:
 516              		.loc 1 212 12 view .LVU142
 517 019a 63EB4303 		sbc	r3, r3, r3, lsl #1
 518              	.LVL54:
 519              	.L23:
 213:Core/Src/app_uart_handlers.c ****   }
 214:Core/Src/app_uart_handlers.c **** 
 215:Core/Src/app_uart_handlers.c ****   if (scaled > 2147483647LL)
 520              		.loc 1 215 3 is_stmt 1 view .LVU143
 521              		.loc 1 215 6 is_stmt 0 view .LVU144
 522 019e B1F1004F 		cmp	r1, #-2147483648
 523 01a2 73F10004 		sbcs	r4, r3, #0
 524 01a6 07DA     		bge	.L32
 216:Core/Src/app_uart_handlers.c ****   {
 217:Core/Src/app_uart_handlers.c ****     scaled = 2147483647LL;
 218:Core/Src/app_uart_handlers.c ****   }
 219:Core/Src/app_uart_handlers.c ****   else if (scaled < (-2147483647LL - 1LL))
 525              		.loc 1 219 8 is_stmt 1 view .LVU145
 526              		.loc 1 219 11 is_stmt 0 view .LVU146
 527 01a8 B1F1004F 		cmp	r1, #-2147483648
 528 01ac 73F1FF33 		sbcs	r3, r3, #-1
 529 01b0 04DA     		bge	.L24
 220:Core/Src/app_uart_handlers.c ****   {
 221:Core/Src/app_uart_handlers.c ****     scaled = (-2147483647LL - 1LL);
 530              		.loc 1 221 12 view .LVU147
 531 01b2 4FF00041 		mov	r1, #-2147483648
 532              		.loc 1 221 12 view .LVU148
ARM GAS  /tmp/cc1v4A75.s 			page 15


 533 01b6 01E0     		b	.L24
 534              	.L32:
 217:Core/Src/app_uart_handlers.c ****   }
 535              		.loc 1 217 12 view .LVU149
 536 01b8 6FF00041 		mvn	r1, #-2147483648
 537              	.L24:
 222:Core/Src/app_uart_handlers.c ****   }
 223:Core/Src/app_uart_handlers.c **** 
 224:Core/Src/app_uart_handlers.c ****   *outVal = (int32_t)scaled;
 538              		.loc 1 224 3 is_stmt 1 view .LVU150
 539              		.loc 1 224 11 is_stmt 0 view .LVU151
 540 01bc 1160     		str	r1, [r2]
 225:Core/Src/app_uart_handlers.c ****   return true;
 541              		.loc 1 225 3 is_stmt 1 view .LVU152
 542              	.LVL55:
 543              	.L8:
 226:Core/Src/app_uart_handlers.c **** }
 544              		.loc 1 226 1 is_stmt 0 view .LVU153
 545 01be BDE8F08F 		pop	{r4, r5, r6, r7, r8, r9, r10, fp, pc}
 546              	.LVL56:
 547              	.L25:
 548              	.LCFI2:
 549              		.cfi_def_cfa_offset 0
 550              		.cfi_restore 4
 551              		.cfi_restore 5
 552              		.cfi_restore 6
 553              		.cfi_restore 7
 554              		.cfi_restore 8
 555              		.cfi_restore 9
 556              		.cfi_restore 10
 557              		.cfi_restore 11
 558              		.cfi_restore 14
 141:Core/Src/app_uart_handlers.c ****   }
 559              		.loc 1 141 12 view .LVU154
 560 01c2 0020     		movs	r0, #0
 561              	.LVL57:
 562              		.loc 1 226 1 view .LVU155
 563 01c4 7047     		bx	lr
 564              	.LVL58:
 565              	.L26:
 566              	.LCFI3:
 567              		.cfi_def_cfa_offset 36
 568              		.cfi_offset 4, -36
 569              		.cfi_offset 5, -32
 570              		.cfi_offset 6, -28
 571              		.cfi_offset 7, -24
 572              		.cfi_offset 8, -20
 573              		.cfi_offset 9, -16
 574              		.cfi_offset 10, -12
 575              		.cfi_offset 11, -8
 576              		.cfi_offset 14, -4
 141:Core/Src/app_uart_handlers.c ****   }
 577              		.loc 1 141 12 view .LVU156
 578 01c6 0020     		movs	r0, #0
 579              	.LVL59:
 141:Core/Src/app_uart_handlers.c ****   }
 580              		.loc 1 141 12 view .LVU157
ARM GAS  /tmp/cc1v4A75.s 			page 16


 581 01c8 F9E7     		b	.L8
 582              	.LVL60:
 583              	.L27:
 141:Core/Src/app_uart_handlers.c ****   }
 584              		.loc 1 141 12 view .LVU158
 585 01ca 0020     		movs	r0, #0
 586              	.LVL61:
 141:Core/Src/app_uart_handlers.c ****   }
 587              		.loc 1 141 12 view .LVU159
 588 01cc F7E7     		b	.L8
 589              		.cfi_endproc
 590              	.LFE13:
 592              		.section	.text.uart_baud_from_idx,"ax",%progbits
 593              		.align	1
 594              		.syntax unified
 595              		.thumb
 596              		.thumb_func
 597              		.fpu softvfp
 599              	uart_baud_from_idx:
 600              	.LVL62:
 601              	.LFB14:
 227:Core/Src/app_uart_handlers.c **** 
 228:Core/Src/app_uart_handlers.c **** static int32_t uart_baud_from_idx(uint8_t idx)
 229:Core/Src/app_uart_handlers.c **** {
 602              		.loc 1 229 1 is_stmt 1 view -0
 603              		.cfi_startproc
 604              		@ args = 0, pretend = 0, frame = 0
 605              		@ frame_needed = 0, uses_anonymous_args = 0
 606              		@ link register save eliminated.
 230:Core/Src/app_uart_handlers.c ****   static const int32_t baudMap[] = {9600, 19200, 38400, 57600, 115200, 256000, 460800, 921600};
 607              		.loc 1 230 3 view .LVU161
 231:Core/Src/app_uart_handlers.c ****   if (idx < (uint8_t)(sizeof(baudMap) / sizeof(baudMap[0])))
 608              		.loc 1 231 3 view .LVU162
 609              		.loc 1 231 6 is_stmt 0 view .LVU163
 610 0000 0728     		cmp	r0, #7
 611 0002 02D9     		bls	.L44
 232:Core/Src/app_uart_handlers.c ****   {
 233:Core/Src/app_uart_handlers.c ****     return baudMap[idx];
 234:Core/Src/app_uart_handlers.c ****   }
 235:Core/Src/app_uart_handlers.c ****   return 115200;
 612              		.loc 1 235 10 view .LVU164
 613 0004 4FF4E130 		mov	r0, #115200
 614              	.LVL63:
 236:Core/Src/app_uart_handlers.c **** }
 615              		.loc 1 236 1 view .LVU165
 616 0008 7047     		bx	lr
 617              	.LVL64:
 618              	.L44:
 233:Core/Src/app_uart_handlers.c ****   }
 619              		.loc 1 233 5 is_stmt 1 view .LVU166
 233:Core/Src/app_uart_handlers.c ****   }
 620              		.loc 1 233 19 is_stmt 0 view .LVU167
 621 000a 024B     		ldr	r3, .L45
 622 000c 53F82000 		ldr	r0, [r3, r0, lsl #2]
 623              	.LVL65:
 233:Core/Src/app_uart_handlers.c ****   }
 624              		.loc 1 233 19 view .LVU168
ARM GAS  /tmp/cc1v4A75.s 			page 17


 625 0010 7047     		bx	lr
 626              	.L46:
 627 0012 00BF     		.align	2
 628              	.L45:
 629 0014 00000000 		.word	.LANCHOR0
 630              		.cfi_endproc
 631              	.LFE14:
 633              		.section	.text.parse_name_token,"ax",%progbits
 634              		.align	1
 635              		.syntax unified
 636              		.thumb
 637              		.thumb_func
 638              		.fpu softvfp
 640              	parse_name_token:
 641              	.LVL66:
 642              	.LFB15:
 237:Core/Src/app_uart_handlers.c **** 
 238:Core/Src/app_uart_handlers.c **** static int32_t parse_name_token(const uint8_t *name, uint16_t len, uint8_t fallback)
 239:Core/Src/app_uart_handlers.c **** {
 643              		.loc 1 239 1 is_stmt 1 view -0
 644              		.cfi_startproc
 645              		@ args = 0, pretend = 0, frame = 0
 646              		@ frame_needed = 0, uses_anonymous_args = 0
 240:Core/Src/app_uart_handlers.c ****   uint32_t token = 0u;
 647              		.loc 1 240 3 view .LVU170
 241:Core/Src/app_uart_handlers.c ****   bool hasDigit = false;
 648              		.loc 1 241 3 view .LVU171
 242:Core/Src/app_uart_handlers.c **** 
 243:Core/Src/app_uart_handlers.c ****   if ((name == NULL) || (len == 0u))
 649              		.loc 1 243 3 view .LVU172
 650              		.loc 1 243 6 is_stmt 0 view .LVU173
 651 0000 28B3     		cbz	r0, .L58
 239:Core/Src/app_uart_handlers.c ****   uint32_t token = 0u;
 652              		.loc 1 239 1 discriminator 1 view .LVU174
 653 0002 30B5     		push	{r4, r5, lr}
 654              	.LCFI4:
 655              		.cfi_def_cfa_offset 12
 656              		.cfi_offset 4, -12
 657              		.cfi_offset 5, -8
 658              		.cfi_offset 14, -4
 659 0004 0446     		mov	r4, r0
 660              		.loc 1 243 22 discriminator 1 view .LVU175
 661 0006 19B1     		cbz	r1, .L61
 662              	.LBB6:
 244:Core/Src/app_uart_handlers.c ****   {
 245:Core/Src/app_uart_handlers.c ****     return (int32_t)fallback;
 246:Core/Src/app_uart_handlers.c ****   }
 247:Core/Src/app_uart_handlers.c **** 
 248:Core/Src/app_uart_handlers.c ****   for (uint16_t i = 0u; i < len; ++i)
 663              		.loc 1 248 17 view .LVU176
 664 0008 0023     		movs	r3, #0
 665              	.LBE6:
 241:Core/Src/app_uart_handlers.c **** 
 666              		.loc 1 241 8 view .LVU177
 667 000a 1D46     		mov	r5, r3
 240:Core/Src/app_uart_handlers.c ****   bool hasDigit = false;
 668              		.loc 1 240 12 view .LVU178
ARM GAS  /tmp/cc1v4A75.s 			page 18


 669 000c 1846     		mov	r0, r3
 670              	.LVL67:
 240:Core/Src/app_uart_handlers.c ****   bool hasDigit = false;
 671              		.loc 1 240 12 view .LVU179
 672 000e 03E0     		b	.L49
 673              	.LVL68:
 674              	.L61:
 245:Core/Src/app_uart_handlers.c ****   }
 675              		.loc 1 245 5 is_stmt 1 view .LVU180
 245:Core/Src/app_uart_handlers.c ****   }
 676              		.loc 1 245 12 is_stmt 0 view .LVU181
 677 0010 1046     		mov	r0, r2
 678              	.LVL69:
 679              	.L47:
 249:Core/Src/app_uart_handlers.c ****   {
 250:Core/Src/app_uart_handlers.c ****     uint8_t c = name[i];
 251:Core/Src/app_uart_handlers.c ****     if ((c >= '0') && (c <= '9'))
 252:Core/Src/app_uart_handlers.c ****     {
 253:Core/Src/app_uart_handlers.c ****       hasDigit = true;
 254:Core/Src/app_uart_handlers.c ****       token = (token * 10u) + (uint32_t)(c - '0');
 255:Core/Src/app_uart_handlers.c ****       if (token > 2147483647u)
 256:Core/Src/app_uart_handlers.c ****       {
 257:Core/Src/app_uart_handlers.c ****         token = 2147483647u;
 258:Core/Src/app_uart_handlers.c ****         break;
 259:Core/Src/app_uart_handlers.c ****       }
 260:Core/Src/app_uart_handlers.c ****     }
 261:Core/Src/app_uart_handlers.c ****   }
 262:Core/Src/app_uart_handlers.c **** 
 263:Core/Src/app_uart_handlers.c ****   if (!hasDigit)
 264:Core/Src/app_uart_handlers.c ****   {
 265:Core/Src/app_uart_handlers.c ****     token = (uint32_t)fallback;
 266:Core/Src/app_uart_handlers.c ****   }
 267:Core/Src/app_uart_handlers.c **** 
 268:Core/Src/app_uart_handlers.c ****   return (int32_t)token;
 269:Core/Src/app_uart_handlers.c **** }
 680              		.loc 1 269 1 view .LVU182
 681 0012 30BD     		pop	{r4, r5, pc}
 682              	.LVL70:
 683              	.L51:
 684              	.LBB8:
 248:Core/Src/app_uart_handlers.c ****   {
 685              		.loc 1 248 34 is_stmt 1 discriminator 2 view .LVU183
 686 0014 0133     		adds	r3, r3, #1
 687              	.LVL71:
 248:Core/Src/app_uart_handlers.c ****   {
 688              		.loc 1 248 34 is_stmt 0 discriminator 2 view .LVU184
 689 0016 9BB2     		uxth	r3, r3
 690              	.LVL72:
 691              	.L49:
 248:Core/Src/app_uart_handlers.c ****   {
 692              		.loc 1 248 25 is_stmt 1 discriminator 1 view .LVU185
 248:Core/Src/app_uart_handlers.c ****   {
 693              		.loc 1 248 3 is_stmt 0 discriminator 1 view .LVU186
 694 0018 8B42     		cmp	r3, r1
 695 001a 14D2     		bcs	.L52
 696              	.LBB7:
 250:Core/Src/app_uart_handlers.c ****     if ((c >= '0') && (c <= '9'))
ARM GAS  /tmp/cc1v4A75.s 			page 19


 697              		.loc 1 250 5 is_stmt 1 view .LVU187
 250:Core/Src/app_uart_handlers.c ****     if ((c >= '0') && (c <= '9'))
 698              		.loc 1 250 13 is_stmt 0 view .LVU188
 699 001c 14F803E0 		ldrb	lr, [r4, r3]	@ zero_extendqisi2
 700              	.LVL73:
 251:Core/Src/app_uart_handlers.c ****     {
 701              		.loc 1 251 5 is_stmt 1 view .LVU189
 251:Core/Src/app_uart_handlers.c ****     {
 702              		.loc 1 251 20 is_stmt 0 view .LVU190
 703 0020 AEF1300C 		sub	ip, lr, #48
 704 0024 5FFA8CFC 		uxtb	ip, ip
 251:Core/Src/app_uart_handlers.c ****     {
 705              		.loc 1 251 8 view .LVU191
 706 0028 BCF1090F 		cmp	ip, #9
 707 002c F2D8     		bhi	.L51
 253:Core/Src/app_uart_handlers.c ****       token = (token * 10u) + (uint32_t)(c - '0');
 708              		.loc 1 253 7 is_stmt 1 view .LVU192
 709              	.LVL74:
 254:Core/Src/app_uart_handlers.c ****       if (token > 2147483647u)
 710              		.loc 1 254 7 view .LVU193
 254:Core/Src/app_uart_handlers.c ****       if (token > 2147483647u)
 711              		.loc 1 254 22 is_stmt 0 view .LVU194
 712 002e 00EB8000 		add	r0, r0, r0, lsl #2
 713              	.LVL75:
 254:Core/Src/app_uart_handlers.c ****       if (token > 2147483647u)
 714              		.loc 1 254 29 view .LVU195
 715 0032 0EEB400E 		add	lr, lr, r0, lsl #1
 716              	.LVL76:
 255:Core/Src/app_uart_handlers.c ****       {
 717              		.loc 1 255 7 is_stmt 1 view .LVU196
 255:Core/Src/app_uart_handlers.c ****       {
 718              		.loc 1 255 10 is_stmt 0 view .LVU197
 719 0036 BEF13000 		subs	r0, lr, #48
 720              	.LVL77:
 255:Core/Src/app_uart_handlers.c ****       {
 721              		.loc 1 255 10 view .LVU198
 722 003a 01D4     		bmi	.L56
 253:Core/Src/app_uart_handlers.c ****       token = (token * 10u) + (uint32_t)(c - '0');
 723              		.loc 1 253 16 view .LVU199
 724 003c 0125     		movs	r5, #1
 725 003e E9E7     		b	.L51
 726              	.L56:
 727 0040 0125     		movs	r5, #1
 257:Core/Src/app_uart_handlers.c ****         break;
 728              		.loc 1 257 15 view .LVU200
 729 0042 6FF00040 		mvn	r0, #-2147483648
 730              	.LVL78:
 731              	.L52:
 257:Core/Src/app_uart_handlers.c ****         break;
 732              		.loc 1 257 15 view .LVU201
 733              	.LBE7:
 734              	.LBE8:
 263:Core/Src/app_uart_handlers.c ****   {
 735              		.loc 1 263 3 is_stmt 1 view .LVU202
 263:Core/Src/app_uart_handlers.c ****   {
 736              		.loc 1 263 6 is_stmt 0 view .LVU203
 737 0046 002D     		cmp	r5, #0
ARM GAS  /tmp/cc1v4A75.s 			page 20


 738 0048 E3D1     		bne	.L47
 265:Core/Src/app_uart_handlers.c ****   }
 739              		.loc 1 265 5 is_stmt 1 view .LVU204
 265:Core/Src/app_uart_handlers.c ****   }
 740              		.loc 1 265 11 is_stmt 0 view .LVU205
 741 004a 1046     		mov	r0, r2
 742              	.LVL79:
 268:Core/Src/app_uart_handlers.c **** }
 743              		.loc 1 268 3 is_stmt 1 view .LVU206
 268:Core/Src/app_uart_handlers.c **** }
 744              		.loc 1 268 10 is_stmt 0 view .LVU207
 745 004c E1E7     		b	.L47
 746              	.LVL80:
 747              	.L58:
 748              	.LCFI5:
 749              		.cfi_def_cfa_offset 0
 750              		.cfi_restore 4
 751              		.cfi_restore 5
 752              		.cfi_restore 14
 245:Core/Src/app_uart_handlers.c ****   }
 753              		.loc 1 245 5 is_stmt 1 view .LVU208
 245:Core/Src/app_uart_handlers.c ****   }
 754              		.loc 1 245 12 is_stmt 0 view .LVU209
 755 004e 1046     		mov	r0, r2
 756              	.LVL81:
 757              		.loc 1 269 1 view .LVU210
 758 0050 7047     		bx	lr
 759              		.cfi_endproc
 760              	.LFE15:
 762              		.section	.text.cache_write_neighbor_to_params,"ax",%progbits
 763              		.align	1
 764              		.syntax unified
 765              		.thumb
 766              		.thumb_func
 767              		.fpu softvfp
 769              	cache_write_neighbor_to_params:
 770              	.LVL82:
 771              	.LFB4:
  29:Core/Src/app_uart_handlers.c ****   if (node == NULL)
 772              		.loc 1 29 1 is_stmt 1 view -0
 773              		.cfi_startproc
 774              		@ args = 0, pretend = 0, frame = 0
 775              		@ frame_needed = 0, uses_anonymous_args = 0
  30:Core/Src/app_uart_handlers.c ****   {
 776              		.loc 1 30 3 view .LVU212
  30:Core/Src/app_uart_handlers.c ****   {
 777              		.loc 1 30 6 is_stmt 0 view .LVU213
 778 0000 18B3     		cbz	r0, .L65
  29:Core/Src/app_uart_handlers.c ****   if (node == NULL)
 779              		.loc 1 29 1 view .LVU214
 780 0002 10B5     		push	{r4, lr}
 781              	.LCFI6:
 782              		.cfi_def_cfa_offset 8
 783              		.cfi_offset 4, -8
 784              		.cfi_offset 14, -4
 785 0004 0446     		mov	r4, r0
  35:Core/Src/app_uart_handlers.c ****   (void)APP_ParamDict_SetValueUnsafe(PARAM_ID_NEIGHBOR_NODE_IP, (int32_t)node->ip);
ARM GAS  /tmp/cc1v4A75.s 			page 21


 786              		.loc 1 35 3 is_stmt 1 view .LVU215
  35:Core/Src/app_uart_handlers.c ****   (void)APP_ParamDict_SetValueUnsafe(PARAM_ID_NEIGHBOR_NODE_IP, (int32_t)node->ip);
 787              		.loc 1 35 9 is_stmt 0 view .LVU216
 788 0006 0178     		ldrb	r1, [r0]	@ zero_extendqisi2
 789 0008 5220     		movs	r0, #82
 790              	.LVL83:
  35:Core/Src/app_uart_handlers.c ****   (void)APP_ParamDict_SetValueUnsafe(PARAM_ID_NEIGHBOR_NODE_IP, (int32_t)node->ip);
 791              		.loc 1 35 9 view .LVU217
 792 000a FFF7FEFF 		bl	APP_ParamDict_SetValueUnsafe
 793              	.LVL84:
  36:Core/Src/app_uart_handlers.c ****   (void)APP_ParamDict_SetValueUnsafe(PARAM_ID_NEIGHBOR_NODE_HOPS, (int32_t)node->hops);
 794              		.loc 1 36 3 is_stmt 1 view .LVU218
  36:Core/Src/app_uart_handlers.c ****   (void)APP_ParamDict_SetValueUnsafe(PARAM_ID_NEIGHBOR_NODE_HOPS, (int32_t)node->hops);
 795              		.loc 1 36 9 is_stmt 0 view .LVU219
 796 000e 6168     		ldr	r1, [r4, #4]
 797 0010 5320     		movs	r0, #83
 798 0012 FFF7FEFF 		bl	APP_ParamDict_SetValueUnsafe
 799              	.LVL85:
  37:Core/Src/app_uart_handlers.c ****   (void)APP_ParamDict_SetValueUnsafe(PARAM_ID_NEIGHBOR_RSSI, (int32_t)node->rssi);
 800              		.loc 1 37 3 is_stmt 1 view .LVU220
  37:Core/Src/app_uart_handlers.c ****   (void)APP_ParamDict_SetValueUnsafe(PARAM_ID_NEIGHBOR_RSSI, (int32_t)node->rssi);
 801              		.loc 1 37 9 is_stmt 0 view .LVU221
 802 0016 217A     		ldrb	r1, [r4, #8]	@ zero_extendqisi2
 803 0018 5420     		movs	r0, #84
 804 001a FFF7FEFF 		bl	APP_ParamDict_SetValueUnsafe
 805              	.LVL86:
  38:Core/Src/app_uart_handlers.c ****   (void)APP_ParamDict_SetValueUnsafe(PARAM_ID_NEIGHBOR_NODE_DELAY, (int32_t)node->delay);
 806              		.loc 1 38 3 is_stmt 1 view .LVU222
  38:Core/Src/app_uart_handlers.c ****   (void)APP_ParamDict_SetValueUnsafe(PARAM_ID_NEIGHBOR_NODE_DELAY, (int32_t)node->delay);
 807              		.loc 1 38 9 is_stmt 0 view .LVU223
 808 001e 94F90910 		ldrsb	r1, [r4, #9]
 809 0022 5120     		movs	r0, #81
 810 0024 FFF7FEFF 		bl	APP_ParamDict_SetValueUnsafe
 811              	.LVL87:
  39:Core/Src/app_uart_handlers.c ****   (void)APP_ParamDict_SetValueUnsafe(PARAM_ID_NEIGHBOR_NODE_LON, node->lon);
 812              		.loc 1 39 3 is_stmt 1 view .LVU224
  39:Core/Src/app_uart_handlers.c ****   (void)APP_ParamDict_SetValueUnsafe(PARAM_ID_NEIGHBOR_NODE_LON, node->lon);
 813              		.loc 1 39 9 is_stmt 0 view .LVU225
 814 0028 6189     		ldrh	r1, [r4, #10]
 815 002a 5520     		movs	r0, #85
 816 002c FFF7FEFF 		bl	APP_ParamDict_SetValueUnsafe
 817              	.LVL88:
  40:Core/Src/app_uart_handlers.c ****   (void)APP_ParamDict_SetValueUnsafe(PARAM_ID_NEIGHBOR_NODE_LAT, node->lat);
 818              		.loc 1 40 3 is_stmt 1 view .LVU226
  40:Core/Src/app_uart_handlers.c ****   (void)APP_ParamDict_SetValueUnsafe(PARAM_ID_NEIGHBOR_NODE_LAT, node->lat);
 819              		.loc 1 40 9 is_stmt 0 view .LVU227
 820 0030 E168     		ldr	r1, [r4, #12]
 821 0032 5620     		movs	r0, #86
 822 0034 FFF7FEFF 		bl	APP_ParamDict_SetValueUnsafe
 823              	.LVL89:
  41:Core/Src/app_uart_handlers.c ****   (void)APP_ParamDict_SetValueUnsafe(PARAM_ID_NEIGHBOR_NODE_ALT, (int32_t)node->alt);
 824              		.loc 1 41 3 is_stmt 1 view .LVU228
  41:Core/Src/app_uart_handlers.c ****   (void)APP_ParamDict_SetValueUnsafe(PARAM_ID_NEIGHBOR_NODE_ALT, (int32_t)node->alt);
 825              		.loc 1 41 9 is_stmt 0 view .LVU229
 826 0038 2169     		ldr	r1, [r4, #16]
 827 003a 5720     		movs	r0, #87
 828 003c FFF7FEFF 		bl	APP_ParamDict_SetValueUnsafe
ARM GAS  /tmp/cc1v4A75.s 			page 22


 829              	.LVL90:
  42:Core/Src/app_uart_handlers.c **** }
 830              		.loc 1 42 3 is_stmt 1 view .LVU230
  42:Core/Src/app_uart_handlers.c **** }
 831              		.loc 1 42 9 is_stmt 0 view .LVU231
 832 0040 A18A     		ldrh	r1, [r4, #20]
 833 0042 5820     		movs	r0, #88
 834 0044 FFF7FEFF 		bl	APP_ParamDict_SetValueUnsafe
 835              	.LVL91:
  43:Core/Src/app_uart_handlers.c **** 
 836              		.loc 1 43 1 view .LVU232
 837 0048 10BD     		pop	{r4, pc}
 838              	.LVL92:
 839              	.L65:
 840              	.LCFI7:
 841              		.cfi_def_cfa_offset 0
 842              		.cfi_restore 4
 843              		.cfi_restore 14
  43:Core/Src/app_uart_handlers.c **** 
 844              		.loc 1 43 1 view .LVU233
 845 004a 7047     		bx	lr
 846              		.cfi_endproc
 847              	.LFE4:
 849              		.section	.text.handle_cmd_0x02,"ax",%progbits
 850              		.align	1
 851              		.syntax unified
 852              		.thumb
 853              		.thumb_func
 854              		.fpu softvfp
 856              	handle_cmd_0x02:
 857              	.LVL93:
 858              	.LFB16:
 270:Core/Src/app_uart_handlers.c **** 
 271:Core/Src/app_uart_handlers.c **** /* 0x02: 参数写入应答
 272:Core/Src/app_uart_handlers.c ****  * - msgType: 0x00=成功, 0x01=失败
 273:Core/Src/app_uart_handlers.c ****  * - payload[0] (可选): 被应答命令字
 274:Core/Src/app_uart_handlers.c ****  */
 275:Core/Src/app_uart_handlers.c **** static void handle_cmd_0x02(uint8_t msgType, const uint8_t *payload, uint16_t payloadLen)
 276:Core/Src/app_uart_handlers.c **** {
 859              		.loc 1 276 1 is_stmt 1 view -0
 860              		.cfi_startproc
 861              		@ args = 0, pretend = 0, frame = 0
 862              		@ frame_needed = 0, uses_anonymous_args = 0
 863              		.loc 1 276 1 is_stmt 0 view .LVU235
 864 0000 38B5     		push	{r3, r4, r5, lr}
 865              	.LCFI8:
 866              		.cfi_def_cfa_offset 16
 867              		.cfi_offset 3, -16
 868              		.cfi_offset 4, -12
 869              		.cfi_offset 5, -8
 870              		.cfi_offset 14, -4
 277:Core/Src/app_uart_handlers.c ****   int32_t ackState = 0;
 871              		.loc 1 277 3 is_stmt 1 view .LVU236
 872              	.LVL94:
 278:Core/Src/app_uart_handlers.c ****   int32_t ackCmd = 0x01;
 873              		.loc 1 278 3 view .LVU237
 279:Core/Src/app_uart_handlers.c **** 
ARM GAS  /tmp/cc1v4A75.s 			page 23


 280:Core/Src/app_uart_handlers.c ****   if (msgType == 0x00u)
 874              		.loc 1 280 3 view .LVU238
 875              		.loc 1 280 6 is_stmt 0 view .LVU239
 876 0002 18B1     		cbz	r0, .L73
 281:Core/Src/app_uart_handlers.c ****   {
 282:Core/Src/app_uart_handlers.c ****     ackState = 1;
 283:Core/Src/app_uart_handlers.c ****   }
 284:Core/Src/app_uart_handlers.c ****   else if (msgType == 0x01u)
 877              		.loc 1 284 8 is_stmt 1 view .LVU240
 878              		.loc 1 284 11 is_stmt 0 view .LVU241
 879 0004 0128     		cmp	r0, #1
 880 0006 06D0     		beq	.L74
 277:Core/Src/app_uart_handlers.c ****   int32_t ackCmd = 0x01;
 881              		.loc 1 277 11 view .LVU242
 882 0008 0025     		movs	r5, #0
 883 000a 00E0     		b	.L69
 884              	.L73:
 282:Core/Src/app_uart_handlers.c ****   }
 885              		.loc 1 282 14 view .LVU243
 886 000c 0125     		movs	r5, #1
 887              	.L69:
 888              	.LVL95:
 285:Core/Src/app_uart_handlers.c ****   {
 286:Core/Src/app_uart_handlers.c ****     ackState = 2;
 287:Core/Src/app_uart_handlers.c ****   }
 288:Core/Src/app_uart_handlers.c **** 
 289:Core/Src/app_uart_handlers.c ****   if ((payload != NULL) && (payloadLen >= 1u))
 889              		.loc 1 289 3 is_stmt 1 view .LVU244
 890              		.loc 1 289 6 is_stmt 0 view .LVU245
 891 000e 21B1     		cbz	r1, .L75
 892              		.loc 1 289 25 discriminator 1 view .LVU246
 893 0010 2AB1     		cbz	r2, .L76
 290:Core/Src/app_uart_handlers.c ****   {
 291:Core/Src/app_uart_handlers.c ****     ackCmd = (int32_t)payload[0];
 894              		.loc 1 291 5 is_stmt 1 view .LVU247
 895              		.loc 1 291 30 is_stmt 0 view .LVU248
 896 0012 0C78     		ldrb	r4, [r1]	@ zero_extendqisi2
 897              	.LVL96:
 898              		.loc 1 291 30 view .LVU249
 899 0014 04E0     		b	.L70
 900              	.LVL97:
 901              	.L74:
 286:Core/Src/app_uart_handlers.c ****   }
 902              		.loc 1 286 14 view .LVU250
 903 0016 0225     		movs	r5, #2
 904 0018 F9E7     		b	.L69
 905              	.LVL98:
 906              	.L75:
 278:Core/Src/app_uart_handlers.c **** 
 907              		.loc 1 278 11 view .LVU251
 908 001a 0124     		movs	r4, #1
 909 001c 00E0     		b	.L70
 910              	.L76:
 911 001e 0124     		movs	r4, #1
 912              	.LVL99:
 913              	.L70:
 292:Core/Src/app_uart_handlers.c ****   }
ARM GAS  /tmp/cc1v4A75.s 			page 24


 293:Core/Src/app_uart_handlers.c **** 
 294:Core/Src/app_uart_handlers.c ****   if (gParamMutexHandle != NULL)
 914              		.loc 1 294 3 is_stmt 1 view .LVU252
 915              		.loc 1 294 25 is_stmt 0 view .LVU253
 916 0020 0B4B     		ldr	r3, .L78
 917 0022 1868     		ldr	r0, [r3]
 918              	.LVL100:
 919              		.loc 1 294 6 view .LVU254
 920 0024 18B1     		cbz	r0, .L71
 295:Core/Src/app_uart_handlers.c ****   {
 296:Core/Src/app_uart_handlers.c ****     (void)osMutexAcquire(gParamMutexHandle, osWaitForever);
 921              		.loc 1 296 5 is_stmt 1 view .LVU255
 922              		.loc 1 296 11 is_stmt 0 view .LVU256
 923 0026 4FF0FF31 		mov	r1, #-1
 924              	.LVL101:
 925              		.loc 1 296 11 view .LVU257
 926 002a FFF7FEFF 		bl	osMutexAcquire
 927              	.LVL102:
 928              	.L71:
 297:Core/Src/app_uart_handlers.c ****   }
 298:Core/Src/app_uart_handlers.c **** 
 299:Core/Src/app_uart_handlers.c ****   (void)APP_ParamDict_SetValueUnsafe(PARAM_ID_UART_ACK_STATE, ackState);
 929              		.loc 1 299 3 is_stmt 1 view .LVU258
 930              		.loc 1 299 9 is_stmt 0 view .LVU259
 931 002e 2946     		mov	r1, r5
 932 0030 5A20     		movs	r0, #90
 933 0032 FFF7FEFF 		bl	APP_ParamDict_SetValueUnsafe
 934              	.LVL103:
 300:Core/Src/app_uart_handlers.c ****   (void)APP_ParamDict_SetValueUnsafe(PARAM_ID_UART_ACK_CMD, ackCmd);
 935              		.loc 1 300 3 is_stmt 1 view .LVU260
 936              		.loc 1 300 9 is_stmt 0 view .LVU261
 937 0036 2146     		mov	r1, r4
 938 0038 5B20     		movs	r0, #91
 939 003a FFF7FEFF 		bl	APP_ParamDict_SetValueUnsafe
 940              	.LVL104:
 301:Core/Src/app_uart_handlers.c **** 
 302:Core/Src/app_uart_handlers.c ****   if (gParamMutexHandle != NULL)
 941              		.loc 1 302 3 is_stmt 1 view .LVU262
 942              		.loc 1 302 25 is_stmt 0 view .LVU263
 943 003e 044B     		ldr	r3, .L78
 944 0040 1868     		ldr	r0, [r3]
 945              		.loc 1 302 6 view .LVU264
 946 0042 08B1     		cbz	r0, .L72
 303:Core/Src/app_uart_handlers.c ****   {
 304:Core/Src/app_uart_handlers.c ****     (void)osMutexRelease(gParamMutexHandle);
 947              		.loc 1 304 5 is_stmt 1 view .LVU265
 948              		.loc 1 304 11 is_stmt 0 view .LVU266
 949 0044 FFF7FEFF 		bl	osMutexRelease
 950              	.LVL105:
 951              	.L72:
 305:Core/Src/app_uart_handlers.c ****   }
 306:Core/Src/app_uart_handlers.c **** 
 307:Core/Src/app_uart_handlers.c ****   APP_Menu_RefreshCurrent();
 952              		.loc 1 307 3 is_stmt 1 view .LVU267
 953 0048 FFF7FEFF 		bl	APP_Menu_RefreshCurrent
 954              	.LVL106:
 308:Core/Src/app_uart_handlers.c **** }
ARM GAS  /tmp/cc1v4A75.s 			page 25


 955              		.loc 1 308 1 is_stmt 0 view .LVU268
 956 004c 38BD     		pop	{r3, r4, r5, pc}
 957              	.LVL107:
 958              	.L79:
 959              		.loc 1 308 1 view .LVU269
 960 004e 00BF     		.align	2
 961              	.L78:
 962 0050 00000000 		.word	gParamMutexHandle
 963              		.cfi_endproc
 964              	.LFE16:
 966              		.section	.text.handle_cmd_0x05,"ax",%progbits
 967              		.align	1
 968              		.syntax unified
 969              		.thumb
 970              		.thumb_func
 971              		.fpu softvfp
 973              	handle_cmd_0x05:
 974              	.LVL108:
 975              	.LFB18:
 309:Core/Src/app_uart_handlers.c **** 
 310:Core/Src/app_uart_handlers.c **** /* 0x08: 开机显示参数
 311:Core/Src/app_uart_handlers.c ****  * payload 固定顺序（按图片/协议表定义）：
 312:Core/Src/app_uart_handlers.c ****  * [0..2]   当前时间: hour/min/sec (3 * uint1)
 313:Core/Src/app_uart_handlers.c ****  * [3]      入网状态
 314:Core/Src/app_uart_handlers.c ****  * [4]      波形档位
 315:Core/Src/app_uart_handlers.c ****  * [5]      信号带宽
 316:Core/Src/app_uart_handlers.c ****  * [6]      跳频方式
 317:Core/Src/app_uart_handlers.c ****  * [7..10]  点频工作频点 (1000uint4)
 318:Core/Src/app_uart_handlers.c ****  * [11..14] 自适应选频1 (1000uint4)
 319:Core/Src/app_uart_handlers.c ****  * [15..18] 自适应选频2 (1000uint4)
 320:Core/Src/app_uart_handlers.c ****  * [19..22] 自适应选频3 (1000uint4)
 321:Core/Src/app_uart_handlers.c ****  * [23..26] 自适应选频4 (1000uint4)
 322:Core/Src/app_uart_handlers.c ****  * [27]     空域滤波
 323:Core/Src/app_uart_handlers.c ****  * [28]     内外同步模式
 324:Core/Src/app_uart_handlers.c ****  * [29]     发射功率
 325:Core/Src/app_uart_handlers.c ****  * [30]     发射功率衰减量
 326:Core/Src/app_uart_handlers.c ****  */
 327:Core/Src/app_uart_handlers.c **** static void handle_cmd_0x08(const uint8_t *payload, uint16_t payloadLen)
 328:Core/Src/app_uart_handlers.c **** {
 329:Core/Src/app_uart_handlers.c ****   bool protectAdapt;
 330:Core/Src/app_uart_handlers.c **** 
 331:Core/Src/app_uart_handlers.c ****   if ((payload == NULL) || (payloadLen == 0u))
 332:Core/Src/app_uart_handlers.c ****   {
 333:Core/Src/app_uart_handlers.c ****     return;
 334:Core/Src/app_uart_handlers.c ****   }
 335:Core/Src/app_uart_handlers.c **** 
 336:Core/Src/app_uart_handlers.c ****   if (gParamMutexHandle != NULL)
 337:Core/Src/app_uart_handlers.c ****   {
 338:Core/Src/app_uart_handlers.c ****     (void)osMutexAcquire(gParamMutexHandle, osWaitForever);
 339:Core/Src/app_uart_handlers.c ****   }
 340:Core/Src/app_uart_handlers.c **** 
 341:Core/Src/app_uart_handlers.c ****   protectAdapt = (APP_Menu_IsAdaptHopProtectActive() != 0u);
 342:Core/Src/app_uart_handlers.c **** 
 343:Core/Src/app_uart_handlers.c ****   if (payloadLen >= 1u)
 344:Core/Src/app_uart_handlers.c ****   {
 345:Core/Src/app_uart_handlers.c ****     (void)APP_ParamDict_SetValueUnsafe(PARAM_ID_TIME_HOUR, (int32_t)payload[0]);
 346:Core/Src/app_uart_handlers.c ****   }
ARM GAS  /tmp/cc1v4A75.s 			page 26


 347:Core/Src/app_uart_handlers.c ****   if (payloadLen >= 2u)
 348:Core/Src/app_uart_handlers.c ****   {
 349:Core/Src/app_uart_handlers.c ****     (void)APP_ParamDict_SetValueUnsafe(PARAM_ID_TIME_MINUTE, (int32_t)payload[1]);
 350:Core/Src/app_uart_handlers.c ****   }
 351:Core/Src/app_uart_handlers.c ****   if (payloadLen >= 3u)
 352:Core/Src/app_uart_handlers.c ****   {
 353:Core/Src/app_uart_handlers.c ****     (void)APP_ParamDict_SetValueUnsafe(PARAM_ID_TIME_SECOND, (int32_t)payload[2]);
 354:Core/Src/app_uart_handlers.c ****   }
 355:Core/Src/app_uart_handlers.c ****   if (payloadLen >= 4u)
 356:Core/Src/app_uart_handlers.c ****   {
 357:Core/Src/app_uart_handlers.c ****     (void)APP_ParamDict_SetValueUnsafe(PARAM_ID_NET_JOIN_STATE, (int32_t)payload[3]);
 358:Core/Src/app_uart_handlers.c ****   }
 359:Core/Src/app_uart_handlers.c ****   if (payloadLen >= 5u)
 360:Core/Src/app_uart_handlers.c ****   {
 361:Core/Src/app_uart_handlers.c ****     (void)APP_ParamDict_SetValueUnsafe(PARAM_ID_WAVEFORM_GEAR, (int32_t)payload[4]);
 362:Core/Src/app_uart_handlers.c ****   }
 363:Core/Src/app_uart_handlers.c ****   if (payloadLen >= 6u)
 364:Core/Src/app_uart_handlers.c ****   {
 365:Core/Src/app_uart_handlers.c ****     (void)APP_ParamDict_SetValueUnsafe(PARAM_ID_SIGNAL_BANDWIDTH, (int32_t)payload[5]);
 366:Core/Src/app_uart_handlers.c ****   }
 367:Core/Src/app_uart_handlers.c ****   if (payloadLen >= 7u)
 368:Core/Src/app_uart_handlers.c ****   {
 369:Core/Src/app_uart_handlers.c ****     uint8_t reportedHop = payload[6];
 370:Core/Src/app_uart_handlers.c ****     if ((!protectAdapt) || (reportedHop == 1u))
 371:Core/Src/app_uart_handlers.c ****     {
 372:Core/Src/app_uart_handlers.c ****       (void)APP_ParamDict_SetValueUnsafe(PARAM_ID_FREQ_HOP_MODE, (int32_t)reportedHop);
 373:Core/Src/app_uart_handlers.c ****       if (protectAdapt && (reportedHop == 1u))
 374:Core/Src/app_uart_handlers.c ****       {
 375:Core/Src/app_uart_handlers.c ****         APP_Menu_ClearAdaptHopProtect();
 376:Core/Src/app_uart_handlers.c ****         protectAdapt = false;
 377:Core/Src/app_uart_handlers.c ****       }
 378:Core/Src/app_uart_handlers.c ****     }
 379:Core/Src/app_uart_handlers.c ****   }
 380:Core/Src/app_uart_handlers.c ****   if (payloadLen >= 11u)
 381:Core/Src/app_uart_handlers.c ****   {
 382:Core/Src/app_uart_handlers.c ****     (void)APP_ParamDict_SetValueUnsafe(PARAM_ID_FIXED_FREQ, (int32_t)read_le_u32(&payload[7]));
 383:Core/Src/app_uart_handlers.c ****   }
 384:Core/Src/app_uart_handlers.c ****   if ((payloadLen >= 15u) && (!protectAdapt))
 385:Core/Src/app_uart_handlers.c ****   {
 386:Core/Src/app_uart_handlers.c ****     (void)APP_ParamDict_SetValueUnsafe(PARAM_ID_ADAPT_FREQ1, (int32_t)read_le_u32(&payload[11]));
 387:Core/Src/app_uart_handlers.c ****   }
 388:Core/Src/app_uart_handlers.c ****   if ((payloadLen >= 19u) && (!protectAdapt))
 389:Core/Src/app_uart_handlers.c ****   {
 390:Core/Src/app_uart_handlers.c ****     (void)APP_ParamDict_SetValueUnsafe(PARAM_ID_ADAPT_FREQ2, (int32_t)read_le_u32(&payload[15]));
 391:Core/Src/app_uart_handlers.c ****   }
 392:Core/Src/app_uart_handlers.c ****   if ((payloadLen >= 23u) && (!protectAdapt))
 393:Core/Src/app_uart_handlers.c ****   {
 394:Core/Src/app_uart_handlers.c ****     (void)APP_ParamDict_SetValueUnsafe(PARAM_ID_ADAPT_FREQ3, (int32_t)read_le_u32(&payload[19]));
 395:Core/Src/app_uart_handlers.c ****   }
 396:Core/Src/app_uart_handlers.c ****   if ((payloadLen >= 27u) && (!protectAdapt))
 397:Core/Src/app_uart_handlers.c ****   {
 398:Core/Src/app_uart_handlers.c ****     (void)APP_ParamDict_SetValueUnsafe(PARAM_ID_ADAPT_FREQ4, (int32_t)read_le_u32(&payload[23]));
 399:Core/Src/app_uart_handlers.c ****   }
 400:Core/Src/app_uart_handlers.c ****   if (payloadLen >= 28u)
 401:Core/Src/app_uart_handlers.c ****   {
 402:Core/Src/app_uart_handlers.c ****     (void)APP_ParamDict_SetValueUnsafe(PARAM_ID_SPATIAL_FILTER, (int32_t)payload[27]);
 403:Core/Src/app_uart_handlers.c ****   }
ARM GAS  /tmp/cc1v4A75.s 			page 27


 404:Core/Src/app_uart_handlers.c ****   if (payloadLen >= 29u)
 405:Core/Src/app_uart_handlers.c ****   {
 406:Core/Src/app_uart_handlers.c ****     (void)APP_ParamDict_SetValueUnsafe(PARAM_ID_SYNC_MODE, (int32_t)payload[28]);
 407:Core/Src/app_uart_handlers.c ****   }
 408:Core/Src/app_uart_handlers.c ****   if (payloadLen >= 30u)
 409:Core/Src/app_uart_handlers.c ****   {
 410:Core/Src/app_uart_handlers.c ****     (void)APP_ParamDict_SetValueUnsafe(PARAM_ID_TX_POWER, (int32_t)payload[29]);
 411:Core/Src/app_uart_handlers.c ****   }
 412:Core/Src/app_uart_handlers.c ****   if (payloadLen >= 31u)
 413:Core/Src/app_uart_handlers.c ****   {
 414:Core/Src/app_uart_handlers.c ****     (void)APP_ParamDict_SetValueUnsafe(PARAM_ID_TX_POWER_ATTEN, (int32_t)payload[30]);
 415:Core/Src/app_uart_handlers.c ****   }
 416:Core/Src/app_uart_handlers.c **** 
 417:Core/Src/app_uart_handlers.c ****   if (gParamMutexHandle != NULL)
 418:Core/Src/app_uart_handlers.c ****   {
 419:Core/Src/app_uart_handlers.c ****     (void)osMutexRelease(gParamMutexHandle);
 420:Core/Src/app_uart_handlers.c ****   }
 421:Core/Src/app_uart_handlers.c **** 
 422:Core/Src/app_uart_handlers.c ****   APP_Menu_RefreshCurrent();
 423:Core/Src/app_uart_handlers.c **** }
 424:Core/Src/app_uart_handlers.c **** 
 425:Core/Src/app_uart_handlers.c **** /* 0x05: 设备基础信息
 426:Core/Src/app_uart_handlers.c ****  * 兼容两种来源：
 427:Core/Src/app_uart_handlers.c ****  * 1) 新版（ui_practice_test::Send_0x05）完整 DeviceConfig（61B）
 428:Core/Src/app_uart_handlers.c ****  * 2) 旧版简化映射（IP+i32经纬度+i16高度+sat）
 429:Core/Src/app_uart_handlers.c ****  */
 430:Core/Src/app_uart_handlers.c **** static void handle_cmd_0x05(const uint8_t *payload, uint16_t payloadLen)
 431:Core/Src/app_uart_handlers.c **** {
 976              		.loc 1 431 1 is_stmt 1 view -0
 977              		.cfi_startproc
 978              		@ args = 0, pretend = 0, frame = 8
 979              		@ frame_needed = 0, uses_anonymous_args = 0
 432:Core/Src/app_uart_handlers.c ****   if ((payload == NULL) || (payloadLen < 4u))
 980              		.loc 1 432 3 view .LVU271
 981              		.loc 1 432 6 is_stmt 0 view .LVU272
 982 0000 0028     		cmp	r0, #0
 983 0002 00F0F680 		beq	.L94
 431:Core/Src/app_uart_handlers.c ****   if ((payload == NULL) || (payloadLen < 4u))
 984              		.loc 1 431 1 discriminator 1 view .LVU273
 985 0006 F0B5     		push	{r4, r5, r6, r7, lr}
 986              	.LCFI9:
 987              		.cfi_def_cfa_offset 20
 988              		.cfi_offset 4, -20
 989              		.cfi_offset 5, -16
 990              		.cfi_offset 6, -12
 991              		.cfi_offset 7, -8
 992              		.cfi_offset 14, -4
 993 0008 83B0     		sub	sp, sp, #12
 994              	.LCFI10:
 995              		.cfi_def_cfa_offset 32
 996 000a 0D46     		mov	r5, r1
 997 000c 0446     		mov	r4, r0
 998              		.loc 1 432 25 discriminator 1 view .LVU274
 999 000e 0329     		cmp	r1, #3
 1000 0010 40F2B580 		bls	.L80
 433:Core/Src/app_uart_handlers.c ****   {
 434:Core/Src/app_uart_handlers.c ****     return;
ARM GAS  /tmp/cc1v4A75.s 			page 28


 435:Core/Src/app_uart_handlers.c ****   }
 436:Core/Src/app_uart_handlers.c **** 
 437:Core/Src/app_uart_handlers.c ****   if (gParamMutexHandle != NULL)
 1001              		.loc 1 437 3 is_stmt 1 view .LVU275
 1002              		.loc 1 437 25 is_stmt 0 view .LVU276
 1003 0014 774B     		ldr	r3, .L102
 1004 0016 1868     		ldr	r0, [r3]
 1005              	.LVL109:
 1006              		.loc 1 437 6 view .LVU277
 1007 0018 18B1     		cbz	r0, .L82
 438:Core/Src/app_uart_handlers.c ****   {
 439:Core/Src/app_uart_handlers.c ****     (void)osMutexAcquire(gParamMutexHandle, osWaitForever);
 1008              		.loc 1 439 5 is_stmt 1 view .LVU278
 1009              		.loc 1 439 11 is_stmt 0 view .LVU279
 1010 001a 4FF0FF31 		mov	r1, #-1
 1011              	.LVL110:
 1012              		.loc 1 439 11 view .LVU280
 1013 001e FFF7FEFF 		bl	osMutexAcquire
 1014              	.LVL111:
 1015              	.L82:
 440:Core/Src/app_uart_handlers.c ****   }
 441:Core/Src/app_uart_handlers.c **** 
 442:Core/Src/app_uart_handlers.c ****   if (payloadLen >= 61u)
 1016              		.loc 1 442 3 is_stmt 1 view .LVU281
 1017              		.loc 1 442 6 is_stmt 0 view .LVU282
 1018 0022 3C2D     		cmp	r5, #60
 1019 0024 40F2B780 		bls	.L83
 1020              	.LBB9:
 443:Core/Src/app_uart_handlers.c ****   {
 444:Core/Src/app_uart_handlers.c ****     int32_t lon = 0;
 1021              		.loc 1 444 5 is_stmt 1 view .LVU283
 1022              		.loc 1 444 13 is_stmt 0 view .LVU284
 1023 0028 0023     		movs	r3, #0
 1024 002a 0093     		str	r3, [sp]
 445:Core/Src/app_uart_handlers.c ****     int32_t lat = 0;
 1025              		.loc 1 445 5 is_stmt 1 view .LVU285
 1026              		.loc 1 445 13 is_stmt 0 view .LVU286
 1027 002c 0193     		str	r3, [sp, #4]
 446:Core/Src/app_uart_handlers.c ****     int32_t altitude = (int32_t)read_le_u16(&payload[55]);
 1028              		.loc 1 446 5 is_stmt 1 view .LVU287
 1029              		.loc 1 446 33 is_stmt 0 view .LVU288
 1030 002e 04F13700 		add	r0, r4, #55
 1031 0032 FFF7FEFF 		bl	read_le_u16
 1032              	.LVL112:
 1033 0036 0646     		mov	r6, r0
 1034              		.loc 1 446 13 view .LVU289
 1035 0038 0746     		mov	r7, r0
 1036              	.LVL113:
 447:Core/Src/app_uart_handlers.c ****     uint32_t ip = ((uint32_t)payload[11] << 24) |
 1037              		.loc 1 447 5 is_stmt 1 view .LVU290
 1038              		.loc 1 447 37 is_stmt 0 view .LVU291
 1039 003a E37A     		ldrb	r3, [r4, #11]	@ zero_extendqisi2
 448:Core/Src/app_uart_handlers.c ****                   ((uint32_t)payload[12] << 16) |
 1040              		.loc 1 448 37 view .LVU292
 1041 003c 257B     		ldrb	r5, [r4, #12]	@ zero_extendqisi2
 1042              		.loc 1 448 42 view .LVU293
 1043 003e 2D04     		lsls	r5, r5, #16
ARM GAS  /tmp/cc1v4A75.s 			page 29


 447:Core/Src/app_uart_handlers.c ****     uint32_t ip = ((uint32_t)payload[11] << 24) |
 1044              		.loc 1 447 49 view .LVU294
 1045 0040 45EA0365 		orr	r5, r5, r3, lsl #24
 449:Core/Src/app_uart_handlers.c ****                   ((uint32_t)payload[13] << 8) |
 1046              		.loc 1 449 37 view .LVU295
 1047 0044 637B     		ldrb	r3, [r4, #13]	@ zero_extendqisi2
 448:Core/Src/app_uart_handlers.c ****                   ((uint32_t)payload[12] << 16) |
 1048              		.loc 1 448 49 view .LVU296
 1049 0046 45EA0325 		orr	r5, r5, r3, lsl #8
 450:Core/Src/app_uart_handlers.c ****                   ((uint32_t)payload[14]);
 1050              		.loc 1 450 37 view .LVU297
 1051 004a A37B     		ldrb	r3, [r4, #14]	@ zero_extendqisi2
 447:Core/Src/app_uart_handlers.c ****                   ((uint32_t)payload[12] << 16) |
 1052              		.loc 1 447 14 view .LVU298
 1053 004c 1D43     		orrs	r5, r5, r3
 1054              	.LVL114:
 451:Core/Src/app_uart_handlers.c **** 
 452:Core/Src/app_uart_handlers.c ****     (void)APP_ParamDict_SetValueUnsafe(PARAM_ID_DEVICE_ID, (int32_t)payload[0]);
 1055              		.loc 1 452 5 is_stmt 1 view .LVU299
 1056              		.loc 1 452 11 is_stmt 0 view .LVU300
 1057 004e 2178     		ldrb	r1, [r4]	@ zero_extendqisi2
 1058 0050 0C20     		movs	r0, #12
 1059              	.LVL115:
 1060              		.loc 1 452 11 view .LVU301
 1061 0052 FFF7FEFF 		bl	APP_ParamDict_SetValueUnsafe
 1062              	.LVL116:
 453:Core/Src/app_uart_handlers.c ****     (void)APP_ParamDict_SetValueUnsafe(PARAM_ID_DEVICE_NAME_TOKEN, parse_name_token(&payload[1], 10
 1063              		.loc 1 453 5 is_stmt 1 view .LVU302
 1064              		.loc 1 453 11 is_stmt 0 view .LVU303
 1065 0056 2046     		mov	r0, r4
 1066 0058 10F8012B 		ldrb	r2, [r0], #1	@ zero_extendqisi2
 1067 005c 0A21     		movs	r1, #10
 1068 005e FFF7FEFF 		bl	parse_name_token
 1069              	.LVL117:
 1070 0062 0146     		mov	r1, r0
 1071 0064 7820     		movs	r0, #120
 1072 0066 FFF7FEFF 		bl	APP_ParamDict_SetValueUnsafe
 1073              	.LVL118:
 454:Core/Src/app_uart_handlers.c ****     (void)APP_ParamDict_SetValueUnsafe(PARAM_ID_NET_IP_ADDR, (int32_t)ip);
 1074              		.loc 1 454 5 is_stmt 1 view .LVU304
 1075              		.loc 1 454 11 is_stmt 0 view .LVU305
 1076 006a 2946     		mov	r1, r5
 1077 006c 0220     		movs	r0, #2
 1078 006e FFF7FEFF 		bl	APP_ParamDict_SetValueUnsafe
 1079              	.LVL119:
 455:Core/Src/app_uart_handlers.c ****     (void)APP_ParamDict_SetValueUnsafe(PARAM_ID_NET_BIZ_PORT, (int32_t)read_le_u16(&payload[15]));
 1080              		.loc 1 455 5 is_stmt 1 view .LVU306
 1081              		.loc 1 455 72 is_stmt 0 view .LVU307
 1082 0072 04F10F00 		add	r0, r4, #15
 1083 0076 FFF7FEFF 		bl	read_le_u16
 1084              	.LVL120:
 1085 007a 0146     		mov	r1, r0
 1086              		.loc 1 455 11 view .LVU308
 1087 007c 7920     		movs	r0, #121
 1088 007e FFF7FEFF 		bl	APP_ParamDict_SetValueUnsafe
 1089              	.LVL121:
 456:Core/Src/app_uart_handlers.c ****     (void)APP_ParamDict_SetValueUnsafe(PARAM_ID_NET_MGMT_IP, (int32_t)(((uint32_t)payload[17] << 24
ARM GAS  /tmp/cc1v4A75.s 			page 30


 1090              		.loc 1 456 5 is_stmt 1 view .LVU309
 1091              		.loc 1 456 90 is_stmt 0 view .LVU310
 1092 0082 617C     		ldrb	r1, [r4, #17]	@ zero_extendqisi2
 457:Core/Src/app_uart_handlers.c ****                                                                         ((uint32_t)payload[18] << 1
 1093              		.loc 1 457 91 view .LVU311
 1094 0084 A37C     		ldrb	r3, [r4, #18]	@ zero_extendqisi2
 1095              		.loc 1 457 96 view .LVU312
 1096 0086 1B04     		lsls	r3, r3, #16
 456:Core/Src/app_uart_handlers.c ****     (void)APP_ParamDict_SetValueUnsafe(PARAM_ID_NET_MGMT_IP, (int32_t)(((uint32_t)payload[17] << 24
 1097              		.loc 1 456 102 view .LVU313
 1098 0088 43EA0163 		orr	r3, r3, r1, lsl #24
 458:Core/Src/app_uart_handlers.c ****                                                                         ((uint32_t)payload[19] << 8
 1099              		.loc 1 458 91 view .LVU314
 1100 008c E17C     		ldrb	r1, [r4, #19]	@ zero_extendqisi2
 457:Core/Src/app_uart_handlers.c ****                                                                         ((uint32_t)payload[18] << 1
 1101              		.loc 1 457 103 view .LVU315
 1102 008e 43EA0123 		orr	r3, r3, r1, lsl #8
 459:Core/Src/app_uart_handlers.c ****                                                                         ((uint32_t)payload[20])));
 1103              		.loc 1 459 91 view .LVU316
 1104 0092 217D     		ldrb	r1, [r4, #20]	@ zero_extendqisi2
 456:Core/Src/app_uart_handlers.c ****                                                                         ((uint32_t)payload[18] << 1
 1105              		.loc 1 456 11 view .LVU317
 1106 0094 1943     		orrs	r1, r1, r3
 1107 0096 7A20     		movs	r0, #122
 1108 0098 FFF7FEFF 		bl	APP_ParamDict_SetValueUnsafe
 1109              	.LVL122:
 460:Core/Src/app_uart_handlers.c ****     (void)APP_ParamDict_SetValueUnsafe(PARAM_ID_NET_MGMT_PORT, (int32_t)read_le_u16(&payload[21]));
 1110              		.loc 1 460 5 is_stmt 1 view .LVU318
 1111              		.loc 1 460 73 is_stmt 0 view .LVU319
 1112 009c 04F11500 		add	r0, r4, #21
 1113 00a0 FFF7FEFF 		bl	read_le_u16
 1114              	.LVL123:
 1115 00a4 0146     		mov	r1, r0
 1116              		.loc 1 460 11 view .LVU320
 1117 00a6 7B20     		movs	r0, #123
 1118 00a8 FFF7FEFF 		bl	APP_ParamDict_SetValueUnsafe
 1119              	.LVL124:
 461:Core/Src/app_uart_handlers.c ****     (void)APP_ParamDict_SetValueUnsafe(PARAM_ID_NET_SENSE_IP, (int32_t)(((uint32_t)payload[23] << 2
 1120              		.loc 1 461 5 is_stmt 1 view .LVU321
 1121              		.loc 1 461 91 is_stmt 0 view .LVU322
 1122 00ac E17D     		ldrb	r1, [r4, #23]	@ zero_extendqisi2
 462:Core/Src/app_uart_handlers.c ****                                                                          ((uint32_t)payload[24] << 
 1123              		.loc 1 462 92 view .LVU323
 1124 00ae 237E     		ldrb	r3, [r4, #24]	@ zero_extendqisi2
 1125              		.loc 1 462 97 view .LVU324
 1126 00b0 1B04     		lsls	r3, r3, #16
 461:Core/Src/app_uart_handlers.c ****     (void)APP_ParamDict_SetValueUnsafe(PARAM_ID_NET_SENSE_IP, (int32_t)(((uint32_t)payload[23] << 2
 1127              		.loc 1 461 103 view .LVU325
 1128 00b2 43EA0163 		orr	r3, r3, r1, lsl #24
 463:Core/Src/app_uart_handlers.c ****                                                                          ((uint32_t)payload[25] << 
 1129              		.loc 1 463 92 view .LVU326
 1130 00b6 617E     		ldrb	r1, [r4, #25]	@ zero_extendqisi2
 462:Core/Src/app_uart_handlers.c ****                                                                          ((uint32_t)payload[24] << 
 1131              		.loc 1 462 104 view .LVU327
 1132 00b8 43EA0123 		orr	r3, r3, r1, lsl #8
 464:Core/Src/app_uart_handlers.c ****                                                                          ((uint32_t)payload[26])));
 1133              		.loc 1 464 92 view .LVU328
ARM GAS  /tmp/cc1v4A75.s 			page 31


 1134 00bc A17E     		ldrb	r1, [r4, #26]	@ zero_extendqisi2
 461:Core/Src/app_uart_handlers.c ****                                                                          ((uint32_t)payload[24] << 
 1135              		.loc 1 461 11 view .LVU329
 1136 00be 1943     		orrs	r1, r1, r3
 1137 00c0 7C20     		movs	r0, #124
 1138 00c2 FFF7FEFF 		bl	APP_ParamDict_SetValueUnsafe
 1139              	.LVL125:
 465:Core/Src/app_uart_handlers.c ****     (void)APP_ParamDict_SetValueUnsafe(PARAM_ID_NET_SENSE_PORT, (int32_t)read_le_u16(&payload[27]))
 1140              		.loc 1 465 5 is_stmt 1 view .LVU330
 1141              		.loc 1 465 74 is_stmt 0 view .LVU331
 1142 00c6 04F11B00 		add	r0, r4, #27
 1143 00ca FFF7FEFF 		bl	read_le_u16
 1144              	.LVL126:
 1145 00ce 0146     		mov	r1, r0
 1146              		.loc 1 465 11 view .LVU332
 1147 00d0 7D20     		movs	r0, #125
 1148 00d2 FFF7FEFF 		bl	APP_ParamDict_SetValueUnsafe
 1149              	.LVL127:
 466:Core/Src/app_uart_handlers.c ****     (void)APP_ParamDict_SetValueUnsafe(PARAM_ID_UART_BAUD_IDX, (int32_t)payload[29]);
 1150              		.loc 1 466 5 is_stmt 1 view .LVU333
 1151              		.loc 1 466 11 is_stmt 0 view .LVU334
 1152 00d6 617F     		ldrb	r1, [r4, #29]	@ zero_extendqisi2
 1153 00d8 7E20     		movs	r0, #126
 1154 00da FFF7FEFF 		bl	APP_ParamDict_SetValueUnsafe
 1155              	.LVL128:
 467:Core/Src/app_uart_handlers.c ****     (void)APP_ParamDict_SetValueUnsafe(PARAM_ID_UART_DATABITS, (int32_t)payload[30]);
 1156              		.loc 1 467 5 is_stmt 1 view .LVU335
 1157              		.loc 1 467 11 is_stmt 0 view .LVU336
 1158 00de A17F     		ldrb	r1, [r4, #30]	@ zero_extendqisi2
 1159 00e0 7F20     		movs	r0, #127
 1160 00e2 FFF7FEFF 		bl	APP_ParamDict_SetValueUnsafe
 1161              	.LVL129:
 468:Core/Src/app_uart_handlers.c ****     (void)APP_ParamDict_SetValueUnsafe(PARAM_ID_UART_STOPBITS, (int32_t)payload[31]);
 1162              		.loc 1 468 5 is_stmt 1 view .LVU337
 1163              		.loc 1 468 11 is_stmt 0 view .LVU338
 1164 00e6 E17F     		ldrb	r1, [r4, #31]	@ zero_extendqisi2
 1165 00e8 8020     		movs	r0, #128
 1166 00ea FFF7FEFF 		bl	APP_ParamDict_SetValueUnsafe
 1167              	.LVL130:
 469:Core/Src/app_uart_handlers.c ****     (void)APP_ParamDict_SetValueUnsafe(PARAM_ID_UART_PARITY, (int32_t)payload[32]);
 1168              		.loc 1 469 5 is_stmt 1 view .LVU339
 1169              		.loc 1 469 11 is_stmt 0 view .LVU340
 1170 00ee 94F82010 		ldrb	r1, [r4, #32]	@ zero_extendqisi2
 1171 00f2 8120     		movs	r0, #129
 1172 00f4 FFF7FEFF 		bl	APP_ParamDict_SetValueUnsafe
 1173              	.LVL131:
 470:Core/Src/app_uart_handlers.c ****     (void)APP_ParamDict_SetValueUnsafe(PARAM_ID_UART_FLOW, (int32_t)payload[33]);
 1174              		.loc 1 470 5 is_stmt 1 view .LVU341
 1175              		.loc 1 470 11 is_stmt 0 view .LVU342
 1176 00f8 94F82110 		ldrb	r1, [r4, #33]	@ zero_extendqisi2
 1177 00fc 8220     		movs	r0, #130
 1178 00fe FFF7FEFF 		bl	APP_ParamDict_SetValueUnsafe
 1179              	.LVL132:
 471:Core/Src/app_uart_handlers.c ****     (void)APP_ParamDict_SetValueUnsafe(PARAM_ID_LOC_AUTO_SYNC, (int32_t)payload[34]);
 1180              		.loc 1 471 5 is_stmt 1 view .LVU343
 1181              		.loc 1 471 11 is_stmt 0 view .LVU344
 1182 0102 94F82210 		ldrb	r1, [r4, #34]	@ zero_extendqisi2
ARM GAS  /tmp/cc1v4A75.s 			page 32


 1183 0106 8320     		movs	r0, #131
 1184 0108 FFF7FEFF 		bl	APP_ParamDict_SetValueUnsafe
 1185              	.LVL133:
 472:Core/Src/app_uart_handlers.c **** 
 473:Core/Src/app_uart_handlers.c ****     if (parse_ascii_coord_1e6(&payload[35], 10u, &lon))
 1186              		.loc 1 473 5 is_stmt 1 view .LVU345
 1187              		.loc 1 473 9 is_stmt 0 view .LVU346
 1188 010c 6A46     		mov	r2, sp
 1189 010e 0A21     		movs	r1, #10
 1190 0110 04F12300 		add	r0, r4, #35
 1191 0114 FFF7FEFF 		bl	parse_ascii_coord_1e6
 1192              	.LVL134:
 1193              		.loc 1 473 8 view .LVU347
 1194 0118 98BB     		cbnz	r0, .L97
 1195              	.L84:
 474:Core/Src/app_uart_handlers.c ****     {
 475:Core/Src/app_uart_handlers.c ****       (void)APP_ParamDict_SetValueUnsafe(PARAM_ID_GPS_LONGITUDE, lon);
 476:Core/Src/app_uart_handlers.c ****     }
 477:Core/Src/app_uart_handlers.c ****     if (parse_ascii_coord_1e6(&payload[45], 10u, &lat))
 1196              		.loc 1 477 5 is_stmt 1 view .LVU348
 1197              		.loc 1 477 9 is_stmt 0 view .LVU349
 1198 011a 01AA     		add	r2, sp, #4
 1199 011c 0A21     		movs	r1, #10
 1200 011e 04F12D00 		add	r0, r4, #45
 1201 0122 FFF7FEFF 		bl	parse_ascii_coord_1e6
 1202              	.LVL135:
 1203              		.loc 1 477 8 view .LVU350
 1204 0126 88BB     		cbnz	r0, .L98
 1205              	.L85:
 478:Core/Src/app_uart_handlers.c ****     {
 479:Core/Src/app_uart_handlers.c ****       (void)APP_ParamDict_SetValueUnsafe(PARAM_ID_GPS_LATITUDE, lat);
 480:Core/Src/app_uart_handlers.c ****     }
 481:Core/Src/app_uart_handlers.c **** 
 482:Core/Src/app_uart_handlers.c ****     if (altitude > 32767)
 1206              		.loc 1 482 5 is_stmt 1 view .LVU351
 1207              		.loc 1 482 8 is_stmt 0 view .LVU352
 1208 0128 B6F5004F 		cmp	r6, #32768
 1209 012c 01DB     		blt	.L86
 483:Core/Src/app_uart_handlers.c ****     {
 484:Core/Src/app_uart_handlers.c ****       altitude = 32767;
 1210              		.loc 1 484 16 view .LVU353
 1211 012e 47F6FF77 		movw	r7, #32767
 1212              	.L86:
 1213              	.LVL136:
 485:Core/Src/app_uart_handlers.c ****     }
 486:Core/Src/app_uart_handlers.c ****     (void)APP_ParamDict_SetValueUnsafe(PARAM_ID_GPS_ALTITUDE, altitude);
 1214              		.loc 1 486 5 is_stmt 1 view .LVU354
 1215              		.loc 1 486 11 is_stmt 0 view .LVU355
 1216 0132 3946     		mov	r1, r7
 1217 0134 1620     		movs	r0, #22
 1218 0136 FFF7FEFF 		bl	APP_ParamDict_SetValueUnsafe
 1219              	.LVL137:
 487:Core/Src/app_uart_handlers.c **** 
 488:Core/Src/app_uart_handlers.c ****     (void)APP_ParamDict_SetValueUnsafe(PARAM_ID_UART_BAUDRATE, uart_baud_from_idx(payload[29]));
 1220              		.loc 1 488 5 is_stmt 1 view .LVU356
 1221              		.loc 1 488 11 is_stmt 0 view .LVU357
 1222 013a 607F     		ldrb	r0, [r4, #29]	@ zero_extendqisi2
ARM GAS  /tmp/cc1v4A75.s 			page 33


 1223 013c FFF7FEFF 		bl	uart_baud_from_idx
 1224              	.LVL138:
 1225 0140 0146     		mov	r1, r0
 1226 0142 0320     		movs	r0, #3
 1227 0144 FFF7FEFF 		bl	APP_ParamDict_SetValueUnsafe
 1228              	.LVL139:
 489:Core/Src/app_uart_handlers.c ****     (void)APP_ParamDict_SetValueUnsafe(PARAM_ID_TIME_AUTO_SYNC, (int32_t)payload[57]);
 1229              		.loc 1 489 5 is_stmt 1 view .LVU358
 1230              		.loc 1 489 11 is_stmt 0 view .LVU359
 1231 0148 94F83910 		ldrb	r1, [r4, #57]	@ zero_extendqisi2
 1232 014c 8420     		movs	r0, #132
 1233 014e FFF7FEFF 		bl	APP_ParamDict_SetValueUnsafe
 1234              	.LVL140:
 490:Core/Src/app_uart_handlers.c ****     (void)APP_ParamDict_SetValueUnsafe(PARAM_ID_TIME_HOUR, (int32_t)payload[58]);
 1235              		.loc 1 490 5 is_stmt 1 view .LVU360
 1236              		.loc 1 490 11 is_stmt 0 view .LVU361
 1237 0152 94F83A10 		ldrb	r1, [r4, #58]	@ zero_extendqisi2
 1238 0156 3C20     		movs	r0, #60
 1239 0158 FFF7FEFF 		bl	APP_ParamDict_SetValueUnsafe
 1240              	.LVL141:
 491:Core/Src/app_uart_handlers.c ****     (void)APP_ParamDict_SetValueUnsafe(PARAM_ID_TIME_MINUTE, (int32_t)payload[59]);
 1241              		.loc 1 491 5 is_stmt 1 view .LVU362
 1242              		.loc 1 491 11 is_stmt 0 view .LVU363
 1243 015c 94F83B10 		ldrb	r1, [r4, #59]	@ zero_extendqisi2
 1244 0160 3D20     		movs	r0, #61
 1245 0162 FFF7FEFF 		bl	APP_ParamDict_SetValueUnsafe
 1246              	.LVL142:
 492:Core/Src/app_uart_handlers.c ****     (void)APP_ParamDict_SetValueUnsafe(PARAM_ID_TIME_SECOND, (int32_t)payload[60]);
 1247              		.loc 1 492 5 is_stmt 1 view .LVU364
 1248              		.loc 1 492 11 is_stmt 0 view .LVU365
 1249 0166 94F83C10 		ldrb	r1, [r4, #60]	@ zero_extendqisi2
 1250 016a 3E20     		movs	r0, #62
 1251 016c FFF7FEFF 		bl	APP_ParamDict_SetValueUnsafe
 1252              	.LVL143:
 1253              	.L87:
 1254              		.loc 1 492 11 view .LVU366
 1255              	.LBE9:
 493:Core/Src/app_uart_handlers.c ****   }
 494:Core/Src/app_uart_handlers.c ****   else
 495:Core/Src/app_uart_handlers.c ****   {
 496:Core/Src/app_uart_handlers.c ****     /* 兼容旧版简化帧。 */
 497:Core/Src/app_uart_handlers.c ****     (void)APP_ParamDict_SetValueUnsafe(PARAM_ID_NET_IP_ADDR, (int32_t)read_be_u32(payload));
 498:Core/Src/app_uart_handlers.c **** 
 499:Core/Src/app_uart_handlers.c ****     if (payloadLen >= 8u)
 500:Core/Src/app_uart_handlers.c ****     {
 501:Core/Src/app_uart_handlers.c ****       (void)APP_ParamDict_SetValueUnsafe(PARAM_ID_GPS_LONGITUDE, read_be_i32(&payload[4]));
 502:Core/Src/app_uart_handlers.c ****     }
 503:Core/Src/app_uart_handlers.c ****     if (payloadLen >= 12u)
 504:Core/Src/app_uart_handlers.c ****     {
 505:Core/Src/app_uart_handlers.c ****       (void)APP_ParamDict_SetValueUnsafe(PARAM_ID_GPS_LATITUDE, read_be_i32(&payload[8]));
 506:Core/Src/app_uart_handlers.c ****     }
 507:Core/Src/app_uart_handlers.c ****     if (payloadLen >= 14u)
 508:Core/Src/app_uart_handlers.c ****     {
 509:Core/Src/app_uart_handlers.c ****       (void)APP_ParamDict_SetValueUnsafe(PARAM_ID_GPS_ALTITUDE, (int32_t)read_be_i16(&payload[12]))
 510:Core/Src/app_uart_handlers.c ****     }
 511:Core/Src/app_uart_handlers.c ****     if (payloadLen >= 15u)
 512:Core/Src/app_uart_handlers.c ****     {
ARM GAS  /tmp/cc1v4A75.s 			page 34


 513:Core/Src/app_uart_handlers.c ****       (void)APP_ParamDict_SetValueUnsafe(PARAM_ID_SAT_LOCK, (int32_t)payload[14]);
 514:Core/Src/app_uart_handlers.c ****     }
 515:Core/Src/app_uart_handlers.c ****   }
 516:Core/Src/app_uart_handlers.c **** 
 517:Core/Src/app_uart_handlers.c ****   if (gParamMutexHandle != NULL)
 1256              		.loc 1 517 3 is_stmt 1 view .LVU367
 1257              		.loc 1 517 25 is_stmt 0 view .LVU368
 1258 0170 204B     		ldr	r3, .L102
 1259 0172 1868     		ldr	r0, [r3]
 1260              		.loc 1 517 6 view .LVU369
 1261 0174 08B1     		cbz	r0, .L91
 518:Core/Src/app_uart_handlers.c ****   {
 519:Core/Src/app_uart_handlers.c ****     (void)osMutexRelease(gParamMutexHandle);
 1262              		.loc 1 519 5 is_stmt 1 view .LVU370
 1263              		.loc 1 519 11 is_stmt 0 view .LVU371
 1264 0176 FFF7FEFF 		bl	osMutexRelease
 1265              	.LVL144:
 1266              	.L91:
 520:Core/Src/app_uart_handlers.c ****   }
 521:Core/Src/app_uart_handlers.c **** 
 522:Core/Src/app_uart_handlers.c ****   APP_Menu_RefreshCurrent();
 1267              		.loc 1 522 3 is_stmt 1 view .LVU372
 1268 017a FFF7FEFF 		bl	APP_Menu_RefreshCurrent
 1269              	.LVL145:
 1270              	.L80:
 523:Core/Src/app_uart_handlers.c **** }
 1271              		.loc 1 523 1 is_stmt 0 view .LVU373
 1272 017e 03B0     		add	sp, sp, #12
 1273              	.LCFI11:
 1274              		.cfi_remember_state
 1275              		.cfi_def_cfa_offset 20
 1276              		@ sp needed
 1277 0180 F0BD     		pop	{r4, r5, r6, r7, pc}
 1278              	.LVL146:
 1279              	.L97:
 1280              	.LCFI12:
 1281              		.cfi_restore_state
 1282              	.LBB10:
 475:Core/Src/app_uart_handlers.c ****     }
 1283              		.loc 1 475 7 is_stmt 1 view .LVU374
 475:Core/Src/app_uart_handlers.c ****     }
 1284              		.loc 1 475 13 is_stmt 0 view .LVU375
 1285 0182 0099     		ldr	r1, [sp]
 1286 0184 1420     		movs	r0, #20
 1287 0186 FFF7FEFF 		bl	APP_ParamDict_SetValueUnsafe
 1288              	.LVL147:
 1289 018a C6E7     		b	.L84
 1290              	.L98:
 479:Core/Src/app_uart_handlers.c ****     }
 1291              		.loc 1 479 7 is_stmt 1 view .LVU376
 479:Core/Src/app_uart_handlers.c ****     }
 1292              		.loc 1 479 13 is_stmt 0 view .LVU377
 1293 018c 0199     		ldr	r1, [sp, #4]
 1294 018e 1520     		movs	r0, #21
 1295 0190 FFF7FEFF 		bl	APP_ParamDict_SetValueUnsafe
 1296              	.LVL148:
 1297 0194 C8E7     		b	.L85
ARM GAS  /tmp/cc1v4A75.s 			page 35


 1298              	.LVL149:
 1299              	.L83:
 479:Core/Src/app_uart_handlers.c ****     }
 1300              		.loc 1 479 13 view .LVU378
 1301              	.LBE10:
 497:Core/Src/app_uart_handlers.c **** 
 1302              		.loc 1 497 5 is_stmt 1 view .LVU379
 497:Core/Src/app_uart_handlers.c **** 
 1303              		.loc 1 497 71 is_stmt 0 view .LVU380
 1304 0196 2046     		mov	r0, r4
 1305 0198 FFF7FEFF 		bl	read_be_u32
 1306              	.LVL150:
 1307 019c 0146     		mov	r1, r0
 497:Core/Src/app_uart_handlers.c **** 
 1308              		.loc 1 497 11 view .LVU381
 1309 019e 0220     		movs	r0, #2
 1310 01a0 FFF7FEFF 		bl	APP_ParamDict_SetValueUnsafe
 1311              	.LVL151:
 499:Core/Src/app_uart_handlers.c ****     {
 1312              		.loc 1 499 5 is_stmt 1 view .LVU382
 499:Core/Src/app_uart_handlers.c ****     {
 1313              		.loc 1 499 8 is_stmt 0 view .LVU383
 1314 01a4 072D     		cmp	r5, #7
 1315 01a6 0AD8     		bhi	.L99
 1316              	.L88:
 503:Core/Src/app_uart_handlers.c ****     {
 1317              		.loc 1 503 5 is_stmt 1 view .LVU384
 503:Core/Src/app_uart_handlers.c ****     {
 1318              		.loc 1 503 8 is_stmt 0 view .LVU385
 1319 01a8 0B2D     		cmp	r5, #11
 1320 01aa 10D8     		bhi	.L100
 1321              	.L89:
 507:Core/Src/app_uart_handlers.c ****     {
 1322              		.loc 1 507 5 is_stmt 1 view .LVU386
 507:Core/Src/app_uart_handlers.c ****     {
 1323              		.loc 1 507 8 is_stmt 0 view .LVU387
 1324 01ac 0D2D     		cmp	r5, #13
 1325 01ae 17D8     		bhi	.L101
 1326              	.L90:
 511:Core/Src/app_uart_handlers.c ****     {
 1327              		.loc 1 511 5 is_stmt 1 view .LVU388
 511:Core/Src/app_uart_handlers.c ****     {
 1328              		.loc 1 511 8 is_stmt 0 view .LVU389
 1329 01b0 0E2D     		cmp	r5, #14
 1330 01b2 DDD9     		bls	.L87
 513:Core/Src/app_uart_handlers.c ****     }
 1331              		.loc 1 513 7 is_stmt 1 view .LVU390
 513:Core/Src/app_uart_handlers.c ****     }
 1332              		.loc 1 513 13 is_stmt 0 view .LVU391
 1333 01b4 A17B     		ldrb	r1, [r4, #14]	@ zero_extendqisi2
 1334 01b6 1720     		movs	r0, #23
 1335 01b8 FFF7FEFF 		bl	APP_ParamDict_SetValueUnsafe
 1336              	.LVL152:
 1337 01bc D8E7     		b	.L87
 1338              	.L99:
 501:Core/Src/app_uart_handlers.c ****     }
 1339              		.loc 1 501 7 is_stmt 1 view .LVU392
ARM GAS  /tmp/cc1v4A75.s 			page 36


 501:Core/Src/app_uart_handlers.c ****     }
 1340              		.loc 1 501 13 is_stmt 0 view .LVU393
 1341 01be 201D     		adds	r0, r4, #4
 1342 01c0 FFF7FEFF 		bl	read_be_i32
 1343              	.LVL153:
 1344 01c4 0146     		mov	r1, r0
 1345 01c6 1420     		movs	r0, #20
 1346 01c8 FFF7FEFF 		bl	APP_ParamDict_SetValueUnsafe
 1347              	.LVL154:
 1348 01cc ECE7     		b	.L88
 1349              	.L100:
 505:Core/Src/app_uart_handlers.c ****     }
 1350              		.loc 1 505 7 is_stmt 1 view .LVU394
 505:Core/Src/app_uart_handlers.c ****     }
 1351              		.loc 1 505 13 is_stmt 0 view .LVU395
 1352 01ce 04F10800 		add	r0, r4, #8
 1353 01d2 FFF7FEFF 		bl	read_be_i32
 1354              	.LVL155:
 1355 01d6 0146     		mov	r1, r0
 1356 01d8 1520     		movs	r0, #21
 1357 01da FFF7FEFF 		bl	APP_ParamDict_SetValueUnsafe
 1358              	.LVL156:
 1359 01de E5E7     		b	.L89
 1360              	.L101:
 509:Core/Src/app_uart_handlers.c ****     }
 1361              		.loc 1 509 7 is_stmt 1 view .LVU396
 509:Core/Src/app_uart_handlers.c ****     }
 1362              		.loc 1 509 74 is_stmt 0 view .LVU397
 1363 01e0 04F10C00 		add	r0, r4, #12
 1364 01e4 FFF7FEFF 		bl	read_be_i16
 1365              	.LVL157:
 1366 01e8 0146     		mov	r1, r0
 509:Core/Src/app_uart_handlers.c ****     }
 1367              		.loc 1 509 13 view .LVU398
 1368 01ea 1620     		movs	r0, #22
 1369 01ec FFF7FEFF 		bl	APP_ParamDict_SetValueUnsafe
 1370              	.LVL158:
 1371 01f0 DEE7     		b	.L90
 1372              	.LVL159:
 1373              	.L94:
 1374              	.LCFI13:
 1375              		.cfi_def_cfa_offset 0
 1376              		.cfi_restore 4
 1377              		.cfi_restore 5
 1378              		.cfi_restore 6
 1379              		.cfi_restore 7
 1380              		.cfi_restore 14
 509:Core/Src/app_uart_handlers.c ****     }
 1381              		.loc 1 509 13 view .LVU399
 1382 01f2 7047     		bx	lr
 1383              	.L103:
 1384              		.align	2
 1385              	.L102:
 1386 01f4 00000000 		.word	gParamMutexHandle
 1387              		.cfi_endproc
 1388              	.LFE18:
 1390              		.section	.text.handle_cmd_0x06,"ax",%progbits
ARM GAS  /tmp/cc1v4A75.s 			page 37


 1391              		.align	1
 1392              		.syntax unified
 1393              		.thumb
 1394              		.thumb_func
 1395              		.fpu softvfp
 1397              	handle_cmd_0x06:
 1398              	.LVL160:
 1399              	.LFB19:
 524:Core/Src/app_uart_handlers.c **** 
 525:Core/Src/app_uart_handlers.c **** /* 0x06: 流量统计
 526:Core/Src/app_uart_handlers.c ****  * 与 ui_practice_test::Send_0x06 对齐（MsgStats，packed）：
 527:Core/Src/app_uart_handlers.c ****  * payload[0..1]   : TOTAL_TX   (u16, little-endian)
 528:Core/Src/app_uart_handlers.c ****  * payload[2..3]   : TOTAL_RX   (u16, little-endian)
 529:Core/Src/app_uart_handlers.c ****  * payload[4..5]   : VOICE_TX   (u16, little-endian)
 530:Core/Src/app_uart_handlers.c ****  * payload[6..7]   : VOICE_RX   (u16, little-endian)
 531:Core/Src/app_uart_handlers.c ****  * payload[8..9]   : ETH_TX     (u16, little-endian)
 532:Core/Src/app_uart_handlers.c ****  * payload[10..11] : ETH_RX     (u16, little-endian)
 533:Core/Src/app_uart_handlers.c ****  *
 534:Core/Src/app_uart_handlers.c ****  * 兼容旧格式：若收到 >=16 字节，按旧版 4xu32(big-endian) 解析。
 535:Core/Src/app_uart_handlers.c ****  */
 536:Core/Src/app_uart_handlers.c **** static void handle_cmd_0x06(const uint8_t *payload, uint16_t payloadLen)
 537:Core/Src/app_uart_handlers.c **** {
 1400              		.loc 1 537 1 is_stmt 1 view -0
 1401              		.cfi_startproc
 1402              		@ args = 0, pretend = 0, frame = 0
 1403              		@ frame_needed = 0, uses_anonymous_args = 0
 538:Core/Src/app_uart_handlers.c ****   if ((payload == NULL) || (payloadLen == 0u))
 1404              		.loc 1 538 3 view .LVU401
 1405              		.loc 1 538 6 is_stmt 0 view .LVU402
 1406 0000 0028     		cmp	r0, #0
 1407 0002 5BD0     		beq	.L113
 537:Core/Src/app_uart_handlers.c ****   if ((payload == NULL) || (payloadLen == 0u))
 1408              		.loc 1 537 1 discriminator 1 view .LVU403
 1409 0004 38B5     		push	{r3, r4, r5, lr}
 1410              	.LCFI14:
 1411              		.cfi_def_cfa_offset 16
 1412              		.cfi_offset 3, -16
 1413              		.cfi_offset 4, -12
 1414              		.cfi_offset 5, -8
 1415              		.cfi_offset 14, -4
 1416 0006 0C46     		mov	r4, r1
 1417 0008 0546     		mov	r5, r0
 1418              		.loc 1 538 25 discriminator 1 view .LVU404
 1419 000a 0029     		cmp	r1, #0
 1420 000c 55D0     		beq	.L104
 539:Core/Src/app_uart_handlers.c ****   {
 540:Core/Src/app_uart_handlers.c ****     return;
 541:Core/Src/app_uart_handlers.c ****   }
 542:Core/Src/app_uart_handlers.c **** 
 543:Core/Src/app_uart_handlers.c ****   if (gParamMutexHandle != NULL)
 1421              		.loc 1 543 3 is_stmt 1 view .LVU405
 1422              		.loc 1 543 25 is_stmt 0 view .LVU406
 1423 000e 2C4B     		ldr	r3, .L118
 1424 0010 1868     		ldr	r0, [r3]
 1425              	.LVL161:
 1426              		.loc 1 543 6 view .LVU407
 1427 0012 18B1     		cbz	r0, .L106
ARM GAS  /tmp/cc1v4A75.s 			page 38


 544:Core/Src/app_uart_handlers.c ****   {
 545:Core/Src/app_uart_handlers.c ****     (void)osMutexAcquire(gParamMutexHandle, osWaitForever);
 1428              		.loc 1 545 5 is_stmt 1 view .LVU408
 1429              		.loc 1 545 11 is_stmt 0 view .LVU409
 1430 0014 4FF0FF31 		mov	r1, #-1
 1431              	.LVL162:
 1432              		.loc 1 545 11 view .LVU410
 1433 0018 FFF7FEFF 		bl	osMutexAcquire
 1434              	.LVL163:
 1435              	.L106:
 546:Core/Src/app_uart_handlers.c ****   }
 547:Core/Src/app_uart_handlers.c **** 
 548:Core/Src/app_uart_handlers.c ****   if (payloadLen == 12u)
 1436              		.loc 1 548 3 is_stmt 1 view .LVU411
 1437              		.loc 1 548 6 is_stmt 0 view .LVU412
 1438 001c 0C2C     		cmp	r4, #12
 1439 001e 08D0     		beq	.L116
 549:Core/Src/app_uart_handlers.c ****   {
 550:Core/Src/app_uart_handlers.c ****     (void)APP_ParamDict_SetValueUnsafe(PARAM_ID_VOICE_TX_CNT, (int32_t)read_le_u16(&payload[4]));
 551:Core/Src/app_uart_handlers.c ****     (void)APP_ParamDict_SetValueUnsafe(PARAM_ID_VOICE_RX_CNT, (int32_t)read_le_u16(&payload[6]));
 552:Core/Src/app_uart_handlers.c ****     (void)APP_ParamDict_SetValueUnsafe(PARAM_ID_ETH_TX_CNT, (int32_t)read_le_u16(&payload[8]));
 553:Core/Src/app_uart_handlers.c ****     (void)APP_ParamDict_SetValueUnsafe(PARAM_ID_ETH_RX_CNT, (int32_t)read_le_u16(&payload[10]));
 554:Core/Src/app_uart_handlers.c ****   }
 555:Core/Src/app_uart_handlers.c ****   else if (payloadLen >= 16u)
 1440              		.loc 1 555 8 is_stmt 1 view .LVU413
 1441              		.loc 1 555 11 is_stmt 0 view .LVU414
 1442 0020 0F2C     		cmp	r4, #15
 1443 0022 25D8     		bhi	.L117
 556:Core/Src/app_uart_handlers.c ****   {
 557:Core/Src/app_uart_handlers.c ****     (void)APP_ParamDict_SetValueUnsafe(PARAM_ID_ETH_TX_CNT, (int32_t)read_be_u32(&payload[0]));
 558:Core/Src/app_uart_handlers.c ****     (void)APP_ParamDict_SetValueUnsafe(PARAM_ID_ETH_RX_CNT, (int32_t)read_be_u32(&payload[4]));
 559:Core/Src/app_uart_handlers.c ****     (void)APP_ParamDict_SetValueUnsafe(PARAM_ID_VOICE_TX_CNT, (int32_t)read_be_u32(&payload[8]));
 560:Core/Src/app_uart_handlers.c ****     (void)APP_ParamDict_SetValueUnsafe(PARAM_ID_VOICE_RX_CNT, (int32_t)read_be_u32(&payload[12]));
 561:Core/Src/app_uart_handlers.c ****   }
 562:Core/Src/app_uart_handlers.c ****   else
 563:Core/Src/app_uart_handlers.c ****   {
 564:Core/Src/app_uart_handlers.c ****     if (gParamMutexHandle != NULL)
 1444              		.loc 1 564 5 is_stmt 1 view .LVU415
 1445              		.loc 1 564 27 is_stmt 0 view .LVU416
 1446 0024 264B     		ldr	r3, .L118
 1447 0026 1868     		ldr	r0, [r3]
 1448              		.loc 1 564 8 view .LVU417
 1449 0028 0028     		cmp	r0, #0
 1450 002a 46D0     		beq	.L104
 565:Core/Src/app_uart_handlers.c ****     {
 566:Core/Src/app_uart_handlers.c ****       (void)osMutexRelease(gParamMutexHandle);
 1451              		.loc 1 566 7 is_stmt 1 view .LVU418
 1452              		.loc 1 566 13 is_stmt 0 view .LVU419
 1453 002c FFF7FEFF 		bl	osMutexRelease
 1454              	.LVL164:
 567:Core/Src/app_uart_handlers.c ****     }
 568:Core/Src/app_uart_handlers.c ****     return;
 1455              		.loc 1 568 5 is_stmt 1 view .LVU420
 1456 0030 43E0     		b	.L104
 1457              	.L116:
 550:Core/Src/app_uart_handlers.c ****     (void)APP_ParamDict_SetValueUnsafe(PARAM_ID_VOICE_RX_CNT, (int32_t)read_le_u16(&payload[6]));
 1458              		.loc 1 550 5 view .LVU421
ARM GAS  /tmp/cc1v4A75.s 			page 39


 550:Core/Src/app_uart_handlers.c ****     (void)APP_ParamDict_SetValueUnsafe(PARAM_ID_VOICE_RX_CNT, (int32_t)read_le_u16(&payload[6]));
 1459              		.loc 1 550 72 is_stmt 0 view .LVU422
 1460 0032 281D     		adds	r0, r5, #4
 1461 0034 FFF7FEFF 		bl	read_le_u16
 1462              	.LVL165:
 1463 0038 0146     		mov	r1, r0
 550:Core/Src/app_uart_handlers.c ****     (void)APP_ParamDict_SetValueUnsafe(PARAM_ID_VOICE_RX_CNT, (int32_t)read_le_u16(&payload[6]));
 1464              		.loc 1 550 11 view .LVU423
 1465 003a 2020     		movs	r0, #32
 1466 003c FFF7FEFF 		bl	APP_ParamDict_SetValueUnsafe
 1467              	.LVL166:
 551:Core/Src/app_uart_handlers.c ****     (void)APP_ParamDict_SetValueUnsafe(PARAM_ID_ETH_TX_CNT, (int32_t)read_le_u16(&payload[8]));
 1468              		.loc 1 551 5 is_stmt 1 view .LVU424
 551:Core/Src/app_uart_handlers.c ****     (void)APP_ParamDict_SetValueUnsafe(PARAM_ID_ETH_TX_CNT, (int32_t)read_le_u16(&payload[8]));
 1469              		.loc 1 551 72 is_stmt 0 view .LVU425
 1470 0040 A81D     		adds	r0, r5, #6
 1471 0042 FFF7FEFF 		bl	read_le_u16
 1472              	.LVL167:
 1473 0046 0146     		mov	r1, r0
 551:Core/Src/app_uart_handlers.c ****     (void)APP_ParamDict_SetValueUnsafe(PARAM_ID_ETH_TX_CNT, (int32_t)read_le_u16(&payload[8]));
 1474              		.loc 1 551 11 view .LVU426
 1475 0048 2120     		movs	r0, #33
 1476 004a FFF7FEFF 		bl	APP_ParamDict_SetValueUnsafe
 1477              	.LVL168:
 552:Core/Src/app_uart_handlers.c ****     (void)APP_ParamDict_SetValueUnsafe(PARAM_ID_ETH_RX_CNT, (int32_t)read_le_u16(&payload[10]));
 1478              		.loc 1 552 5 is_stmt 1 view .LVU427
 552:Core/Src/app_uart_handlers.c ****     (void)APP_ParamDict_SetValueUnsafe(PARAM_ID_ETH_RX_CNT, (int32_t)read_le_u16(&payload[10]));
 1479              		.loc 1 552 70 is_stmt 0 view .LVU428
 1480 004e 05F10800 		add	r0, r5, #8
 1481 0052 FFF7FEFF 		bl	read_le_u16
 1482              	.LVL169:
 1483 0056 0146     		mov	r1, r0
 552:Core/Src/app_uart_handlers.c ****     (void)APP_ParamDict_SetValueUnsafe(PARAM_ID_ETH_RX_CNT, (int32_t)read_le_u16(&payload[10]));
 1484              		.loc 1 552 11 view .LVU429
 1485 0058 1E20     		movs	r0, #30
 1486 005a FFF7FEFF 		bl	APP_ParamDict_SetValueUnsafe
 1487              	.LVL170:
 553:Core/Src/app_uart_handlers.c ****   }
 1488              		.loc 1 553 5 is_stmt 1 view .LVU430
 553:Core/Src/app_uart_handlers.c ****   }
 1489              		.loc 1 553 70 is_stmt 0 view .LVU431
 1490 005e 05F10A00 		add	r0, r5, #10
 1491 0062 FFF7FEFF 		bl	read_le_u16
 1492              	.LVL171:
 1493 0066 0146     		mov	r1, r0
 553:Core/Src/app_uart_handlers.c ****   }
 1494              		.loc 1 553 11 view .LVU432
 1495 0068 1F20     		movs	r0, #31
 1496 006a FFF7FEFF 		bl	APP_ParamDict_SetValueUnsafe
 1497              	.LVL172:
 1498 006e 1DE0     		b	.L108
 1499              	.L117:
 557:Core/Src/app_uart_handlers.c ****     (void)APP_ParamDict_SetValueUnsafe(PARAM_ID_ETH_RX_CNT, (int32_t)read_be_u32(&payload[4]));
 1500              		.loc 1 557 5 is_stmt 1 view .LVU433
 557:Core/Src/app_uart_handlers.c ****     (void)APP_ParamDict_SetValueUnsafe(PARAM_ID_ETH_RX_CNT, (int32_t)read_be_u32(&payload[4]));
 1501              		.loc 1 557 70 is_stmt 0 view .LVU434
 1502 0070 2846     		mov	r0, r5
ARM GAS  /tmp/cc1v4A75.s 			page 40


 1503 0072 FFF7FEFF 		bl	read_be_u32
 1504              	.LVL173:
 1505 0076 0146     		mov	r1, r0
 557:Core/Src/app_uart_handlers.c ****     (void)APP_ParamDict_SetValueUnsafe(PARAM_ID_ETH_RX_CNT, (int32_t)read_be_u32(&payload[4]));
 1506              		.loc 1 557 11 view .LVU435
 1507 0078 1E20     		movs	r0, #30
 1508 007a FFF7FEFF 		bl	APP_ParamDict_SetValueUnsafe
 1509              	.LVL174:
 558:Core/Src/app_uart_handlers.c ****     (void)APP_ParamDict_SetValueUnsafe(PARAM_ID_VOICE_TX_CNT, (int32_t)read_be_u32(&payload[8]));
 1510              		.loc 1 558 5 is_stmt 1 view .LVU436
 558:Core/Src/app_uart_handlers.c ****     (void)APP_ParamDict_SetValueUnsafe(PARAM_ID_VOICE_TX_CNT, (int32_t)read_be_u32(&payload[8]));
 1511              		.loc 1 558 70 is_stmt 0 view .LVU437
 1512 007e 281D     		adds	r0, r5, #4
 1513 0080 FFF7FEFF 		bl	read_be_u32
 1514              	.LVL175:
 1515 0084 0146     		mov	r1, r0
 558:Core/Src/app_uart_handlers.c ****     (void)APP_ParamDict_SetValueUnsafe(PARAM_ID_VOICE_TX_CNT, (int32_t)read_be_u32(&payload[8]));
 1516              		.loc 1 558 11 view .LVU438
 1517 0086 1F20     		movs	r0, #31
 1518 0088 FFF7FEFF 		bl	APP_ParamDict_SetValueUnsafe
 1519              	.LVL176:
 559:Core/Src/app_uart_handlers.c ****     (void)APP_ParamDict_SetValueUnsafe(PARAM_ID_VOICE_RX_CNT, (int32_t)read_be_u32(&payload[12]));
 1520              		.loc 1 559 5 is_stmt 1 view .LVU439
 559:Core/Src/app_uart_handlers.c ****     (void)APP_ParamDict_SetValueUnsafe(PARAM_ID_VOICE_RX_CNT, (int32_t)read_be_u32(&payload[12]));
 1521              		.loc 1 559 72 is_stmt 0 view .LVU440
 1522 008c 05F10800 		add	r0, r5, #8
 1523 0090 FFF7FEFF 		bl	read_be_u32
 1524              	.LVL177:
 1525 0094 0146     		mov	r1, r0
 559:Core/Src/app_uart_handlers.c ****     (void)APP_ParamDict_SetValueUnsafe(PARAM_ID_VOICE_RX_CNT, (int32_t)read_be_u32(&payload[12]));
 1526              		.loc 1 559 11 view .LVU441
 1527 0096 2020     		movs	r0, #32
 1528 0098 FFF7FEFF 		bl	APP_ParamDict_SetValueUnsafe
 1529              	.LVL178:
 560:Core/Src/app_uart_handlers.c ****   }
 1530              		.loc 1 560 5 is_stmt 1 view .LVU442
 560:Core/Src/app_uart_handlers.c ****   }
 1531              		.loc 1 560 72 is_stmt 0 view .LVU443
 1532 009c 05F10C00 		add	r0, r5, #12
 1533 00a0 FFF7FEFF 		bl	read_be_u32
 1534              	.LVL179:
 1535 00a4 0146     		mov	r1, r0
 560:Core/Src/app_uart_handlers.c ****   }
 1536              		.loc 1 560 11 view .LVU444
 1537 00a6 2120     		movs	r0, #33
 1538 00a8 FFF7FEFF 		bl	APP_ParamDict_SetValueUnsafe
 1539              	.LVL180:
 1540              	.L108:
 569:Core/Src/app_uart_handlers.c ****   }
 570:Core/Src/app_uart_handlers.c **** 
 571:Core/Src/app_uart_handlers.c ****   if (gParamMutexHandle != NULL)
 1541              		.loc 1 571 3 is_stmt 1 view .LVU445
 1542              		.loc 1 571 25 is_stmt 0 view .LVU446
 1543 00ac 044B     		ldr	r3, .L118
 1544 00ae 1868     		ldr	r0, [r3]
 1545              		.loc 1 571 6 view .LVU447
 1546 00b0 08B1     		cbz	r0, .L111
ARM GAS  /tmp/cc1v4A75.s 			page 41


 572:Core/Src/app_uart_handlers.c ****   {
 573:Core/Src/app_uart_handlers.c ****     (void)osMutexRelease(gParamMutexHandle);
 1547              		.loc 1 573 5 is_stmt 1 view .LVU448
 1548              		.loc 1 573 11 is_stmt 0 view .LVU449
 1549 00b2 FFF7FEFF 		bl	osMutexRelease
 1550              	.LVL181:
 1551              	.L111:
 574:Core/Src/app_uart_handlers.c ****   }
 575:Core/Src/app_uart_handlers.c **** 
 576:Core/Src/app_uart_handlers.c ****   APP_Menu_RefreshCurrent();
 1552              		.loc 1 576 3 is_stmt 1 view .LVU450
 1553 00b6 FFF7FEFF 		bl	APP_Menu_RefreshCurrent
 1554              	.LVL182:
 1555              	.L104:
 577:Core/Src/app_uart_handlers.c **** }
 1556              		.loc 1 577 1 is_stmt 0 view .LVU451
 1557 00ba 38BD     		pop	{r3, r4, r5, pc}
 1558              	.LVL183:
 1559              	.L113:
 1560              	.LCFI15:
 1561              		.cfi_def_cfa_offset 0
 1562              		.cfi_restore 3
 1563              		.cfi_restore 4
 1564              		.cfi_restore 5
 1565              		.cfi_restore 14
 1566              		.loc 1 577 1 view .LVU452
 1567 00bc 7047     		bx	lr
 1568              	.L119:
 1569 00be 00BF     		.align	2
 1570              	.L118:
 1571 00c0 00000000 		.word	gParamMutexHandle
 1572              		.cfi_endproc
 1573              	.LFE19:
 1575              		.section	.text.handle_cmd_0x07,"ax",%progbits
 1576              		.align	1
 1577              		.syntax unified
 1578              		.thumb
 1579              		.thumb_func
 1580              		.fpu softvfp
 1582              	handle_cmd_0x07:
 1583              	.LVL184:
 1584              	.LFB20:
 578:Core/Src/app_uart_handlers.c **** 
 579:Core/Src/app_uart_handlers.c **** /* 0x07: 自检状态
 580:Core/Src/app_uart_handlers.c ****  * 与 ui_practice_test::Send_0x07 对齐（Frame_07_byte，packed）：
 581:Core/Src/app_uart_handlers.c ****  * SystemSelfTestStatus 固定 38 字节，后续 4 组 RFChannelStatus（每组 9 字节）。
 582:Core/Src/app_uart_handlers.c ****  * 当前屏显使用字段：
 583:Core/Src/app_uart_handlers.c ****  * [0]      self_test_status
 584:Core/Src/app_uart_handlers.c ****  * [1]      battery_remaining_capacity
 585:Core/Src/app_uart_handlers.c ****  * [5]      info_processor_temp
 586:Core/Src/app_uart_handlers.c ****  * [6]      fan_speed_status
 587:Core/Src/app_uart_handlers.c ****  * [7]      nav_lock_status
 588:Core/Src/app_uart_handlers.c ****  * [8]      clock_selection
 589:Core/Src/app_uart_handlers.c ****  * [9]      adc_status
 590:Core/Src/app_uart_handlers.c ****  * [10]     clock_source_temp
 591:Core/Src/app_uart_handlers.c ****  * [11..12] freq_word_send_count (u16, little-endian)
 592:Core/Src/app_uart_handlers.c ****  * [13]     comm_sensing_status
ARM GAS  /tmp/cc1v4A75.s 			page 42


 593:Core/Src/app_uart_handlers.c ****  *
 594:Core/Src/app_uart_handlers.c ****  * 兼容旧版简化帧：payload<38 时按旧格式解析。
 595:Core/Src/app_uart_handlers.c ****  */
 596:Core/Src/app_uart_handlers.c **** static void handle_cmd_0x07(const uint8_t *payload, uint16_t payloadLen)
 597:Core/Src/app_uart_handlers.c **** {
 1585              		.loc 1 597 1 is_stmt 1 view -0
 1586              		.cfi_startproc
 1587              		@ args = 0, pretend = 0, frame = 0
 1588              		@ frame_needed = 0, uses_anonymous_args = 0
 598:Core/Src/app_uart_handlers.c ****   if ((payload == NULL) || (payloadLen < 1u))
 1589              		.loc 1 598 3 view .LVU454
 1590              		.loc 1 598 6 is_stmt 0 view .LVU455
 1591 0000 0028     		cmp	r0, #0
 1592 0002 5DD0     		beq	.L129
 597:Core/Src/app_uart_handlers.c ****   if ((payload == NULL) || (payloadLen < 1u))
 1593              		.loc 1 597 1 discriminator 1 view .LVU456
 1594 0004 38B5     		push	{r3, r4, r5, lr}
 1595              	.LCFI16:
 1596              		.cfi_def_cfa_offset 16
 1597              		.cfi_offset 3, -16
 1598              		.cfi_offset 4, -12
 1599              		.cfi_offset 5, -8
 1600              		.cfi_offset 14, -4
 1601 0006 0C46     		mov	r4, r1
 1602 0008 0546     		mov	r5, r0
 1603              		.loc 1 598 25 discriminator 1 view .LVU457
 1604 000a 0029     		cmp	r1, #0
 1605 000c 3BD0     		beq	.L120
 599:Core/Src/app_uart_handlers.c ****   {
 600:Core/Src/app_uart_handlers.c ****     return;
 601:Core/Src/app_uart_handlers.c ****   }
 602:Core/Src/app_uart_handlers.c **** 
 603:Core/Src/app_uart_handlers.c ****   if (gParamMutexHandle != NULL)
 1606              		.loc 1 603 3 is_stmt 1 view .LVU458
 1607              		.loc 1 603 25 is_stmt 0 view .LVU459
 1608 000e 2D4B     		ldr	r3, .L134
 1609 0010 1868     		ldr	r0, [r3]
 1610              	.LVL185:
 1611              		.loc 1 603 6 view .LVU460
 1612 0012 18B1     		cbz	r0, .L122
 604:Core/Src/app_uart_handlers.c ****   {
 605:Core/Src/app_uart_handlers.c ****     (void)osMutexAcquire(gParamMutexHandle, osWaitForever);
 1613              		.loc 1 605 5 is_stmt 1 view .LVU461
 1614              		.loc 1 605 11 is_stmt 0 view .LVU462
 1615 0014 4FF0FF31 		mov	r1, #-1
 1616              	.LVL186:
 1617              		.loc 1 605 11 view .LVU463
 1618 0018 FFF7FEFF 		bl	osMutexAcquire
 1619              	.LVL187:
 1620              	.L122:
 606:Core/Src/app_uart_handlers.c ****   }
 607:Core/Src/app_uart_handlers.c **** 
 608:Core/Src/app_uart_handlers.c ****   if (payloadLen >= 38u)
 1621              		.loc 1 608 3 is_stmt 1 view .LVU464
 1622              		.loc 1 608 6 is_stmt 0 view .LVU465
 1623 001c 252C     		cmp	r4, #37
 1624 001e 33D9     		bls	.L123
ARM GAS  /tmp/cc1v4A75.s 			page 43


 609:Core/Src/app_uart_handlers.c ****   {
 610:Core/Src/app_uart_handlers.c ****     (void)APP_ParamDict_SetValueUnsafe(PARAM_ID_SELFTEST_STATE, (int32_t)payload[0]);
 1625              		.loc 1 610 5 is_stmt 1 view .LVU466
 1626              		.loc 1 610 11 is_stmt 0 view .LVU467
 1627 0020 2978     		ldrb	r1, [r5]	@ zero_extendqisi2
 1628 0022 2A20     		movs	r0, #42
 1629 0024 FFF7FEFF 		bl	APP_ParamDict_SetValueUnsafe
 1630              	.LVL188:
 611:Core/Src/app_uart_handlers.c ****     (void)APP_ParamDict_SetValueUnsafe(PARAM_ID_BATTERY_CAP, (int32_t)payload[1]);
 1631              		.loc 1 611 5 is_stmt 1 view .LVU468
 1632              		.loc 1 611 11 is_stmt 0 view .LVU469
 1633 0028 6978     		ldrb	r1, [r5, #1]	@ zero_extendqisi2
 1634 002a 2820     		movs	r0, #40
 1635 002c FFF7FEFF 		bl	APP_ParamDict_SetValueUnsafe
 1636              	.LVL189:
 612:Core/Src/app_uart_handlers.c ****     (void)APP_ParamDict_SetValueUnsafe(PARAM_ID_ENV_TEMPERATURE, (int32_t)payload[5]);
 1637              		.loc 1 612 5 is_stmt 1 view .LVU470
 1638              		.loc 1 612 11 is_stmt 0 view .LVU471
 1639 0030 6979     		ldrb	r1, [r5, #5]	@ zero_extendqisi2
 1640 0032 0420     		movs	r0, #4
 1641 0034 FFF7FEFF 		bl	APP_ParamDict_SetValueUnsafe
 1642              	.LVL190:
 613:Core/Src/app_uart_handlers.c ****     (void)APP_ParamDict_SetValueUnsafe(PARAM_ID_FAN_STATE, (int32_t)payload[6]);
 1643              		.loc 1 613 5 is_stmt 1 view .LVU472
 1644              		.loc 1 613 11 is_stmt 0 view .LVU473
 1645 0038 A979     		ldrb	r1, [r5, #6]	@ zero_extendqisi2
 1646 003a 2920     		movs	r0, #41
 1647 003c FFF7FEFF 		bl	APP_ParamDict_SetValueUnsafe
 1648              	.LVL191:
 614:Core/Src/app_uart_handlers.c ****     (void)APP_ParamDict_SetValueUnsafe(PARAM_ID_SAT_LOCK, (int32_t)payload[7]);
 1649              		.loc 1 614 5 is_stmt 1 view .LVU474
 1650              		.loc 1 614 11 is_stmt 0 view .LVU475
 1651 0040 E979     		ldrb	r1, [r5, #7]	@ zero_extendqisi2
 1652 0042 1720     		movs	r0, #23
 1653 0044 FFF7FEFF 		bl	APP_ParamDict_SetValueUnsafe
 1654              	.LVL192:
 615:Core/Src/app_uart_handlers.c ****     (void)APP_ParamDict_SetValueUnsafe(PARAM_ID_CLOCK_SELECTION, (int32_t)payload[8]);
 1655              		.loc 1 615 5 is_stmt 1 view .LVU476
 1656              		.loc 1 615 11 is_stmt 0 view .LVU477
 1657 0048 297A     		ldrb	r1, [r5, #8]	@ zero_extendqisi2
 1658 004a 2B20     		movs	r0, #43
 1659 004c FFF7FEFF 		bl	APP_ParamDict_SetValueUnsafe
 1660              	.LVL193:
 616:Core/Src/app_uart_handlers.c ****     (void)APP_ParamDict_SetValueUnsafe(PARAM_ID_ADC_STATUS, (int32_t)payload[9]);
 1661              		.loc 1 616 5 is_stmt 1 view .LVU478
 1662              		.loc 1 616 11 is_stmt 0 view .LVU479
 1663 0050 697A     		ldrb	r1, [r5, #9]	@ zero_extendqisi2
 1664 0052 2C20     		movs	r0, #44
 1665 0054 FFF7FEFF 		bl	APP_ParamDict_SetValueUnsafe
 1666              	.LVL194:
 617:Core/Src/app_uart_handlers.c ****     (void)APP_ParamDict_SetValueUnsafe(PARAM_ID_CLOCK_SRC_TEMP, (int32_t)payload[10]);
 1667              		.loc 1 617 5 is_stmt 1 view .LVU480
 1668              		.loc 1 617 11 is_stmt 0 view .LVU481
 1669 0058 A97A     		ldrb	r1, [r5, #10]	@ zero_extendqisi2
 1670 005a 2D20     		movs	r0, #45
 1671 005c FFF7FEFF 		bl	APP_ParamDict_SetValueUnsafe
 1672              	.LVL195:
ARM GAS  /tmp/cc1v4A75.s 			page 44


 618:Core/Src/app_uart_handlers.c ****     (void)APP_ParamDict_SetValueUnsafe(PARAM_ID_FREQ_WORD_CNT, (int32_t)read_le_u16(&payload[11]));
 1673              		.loc 1 618 5 is_stmt 1 view .LVU482
 1674              		.loc 1 618 73 is_stmt 0 view .LVU483
 1675 0060 05F10B00 		add	r0, r5, #11
 1676 0064 FFF7FEFF 		bl	read_le_u16
 1677              	.LVL196:
 1678 0068 0146     		mov	r1, r0
 1679              		.loc 1 618 11 view .LVU484
 1680 006a 2E20     		movs	r0, #46
 1681 006c FFF7FEFF 		bl	APP_ParamDict_SetValueUnsafe
 1682              	.LVL197:
 619:Core/Src/app_uart_handlers.c ****     (void)APP_ParamDict_SetValueUnsafe(PARAM_ID_COMM_SENSE_ST, (int32_t)payload[13]);
 1683              		.loc 1 619 5 is_stmt 1 view .LVU485
 1684              		.loc 1 619 11 is_stmt 0 view .LVU486
 1685 0070 697B     		ldrb	r1, [r5, #13]	@ zero_extendqisi2
 1686 0072 2F20     		movs	r0, #47
 1687 0074 FFF7FEFF 		bl	APP_ParamDict_SetValueUnsafe
 1688              	.LVL198:
 1689              	.L124:
 620:Core/Src/app_uart_handlers.c ****   }
 621:Core/Src/app_uart_handlers.c ****   else
 622:Core/Src/app_uart_handlers.c ****   {
 623:Core/Src/app_uart_handlers.c ****     /* 兼容旧版简化帧 */
 624:Core/Src/app_uart_handlers.c ****     (void)APP_ParamDict_SetValueUnsafe(PARAM_ID_BATTERY_CAP, (int32_t)payload[0]);
 625:Core/Src/app_uart_handlers.c **** 
 626:Core/Src/app_uart_handlers.c ****     if (payloadLen >= 3u)
 627:Core/Src/app_uart_handlers.c ****     {
 628:Core/Src/app_uart_handlers.c ****       (void)APP_ParamDict_SetValueUnsafe(PARAM_ID_ENV_TEMPERATURE, (int32_t)read_be_i16(&payload[1]
 629:Core/Src/app_uart_handlers.c ****     }
 630:Core/Src/app_uart_handlers.c ****     if (payloadLen >= 4u)
 631:Core/Src/app_uart_handlers.c ****     {
 632:Core/Src/app_uart_handlers.c ****       (void)APP_ParamDict_SetValueUnsafe(PARAM_ID_FAN_STATE, (int32_t)payload[3]);
 633:Core/Src/app_uart_handlers.c ****     }
 634:Core/Src/app_uart_handlers.c ****     if (payloadLen >= 5u)
 635:Core/Src/app_uart_handlers.c ****     {
 636:Core/Src/app_uart_handlers.c ****       (void)APP_ParamDict_SetValueUnsafe(PARAM_ID_SAT_LOCK, (int32_t)payload[4]);
 637:Core/Src/app_uart_handlers.c ****     }
 638:Core/Src/app_uart_handlers.c ****   }
 639:Core/Src/app_uart_handlers.c **** 
 640:Core/Src/app_uart_handlers.c ****   if (gParamMutexHandle != NULL)
 1690              		.loc 1 640 3 is_stmt 1 view .LVU487
 1691              		.loc 1 640 25 is_stmt 0 view .LVU488
 1692 0078 124B     		ldr	r3, .L134
 1693 007a 1868     		ldr	r0, [r3]
 1694              		.loc 1 640 6 view .LVU489
 1695 007c 08B1     		cbz	r0, .L127
 641:Core/Src/app_uart_handlers.c ****   {
 642:Core/Src/app_uart_handlers.c ****     (void)osMutexRelease(gParamMutexHandle);
 1696              		.loc 1 642 5 is_stmt 1 view .LVU490
 1697              		.loc 1 642 11 is_stmt 0 view .LVU491
 1698 007e FFF7FEFF 		bl	osMutexRelease
 1699              	.LVL199:
 1700              	.L127:
 643:Core/Src/app_uart_handlers.c ****   }
 644:Core/Src/app_uart_handlers.c **** 
 645:Core/Src/app_uart_handlers.c ****   APP_Menu_RefreshCurrent();
 1701              		.loc 1 645 3 is_stmt 1 view .LVU492
ARM GAS  /tmp/cc1v4A75.s 			page 45


 1702 0082 FFF7FEFF 		bl	APP_Menu_RefreshCurrent
 1703              	.LVL200:
 1704              	.L120:
 646:Core/Src/app_uart_handlers.c **** }
 1705              		.loc 1 646 1 is_stmt 0 view .LVU493
 1706 0086 38BD     		pop	{r3, r4, r5, pc}
 1707              	.LVL201:
 1708              	.L123:
 624:Core/Src/app_uart_handlers.c **** 
 1709              		.loc 1 624 5 is_stmt 1 view .LVU494
 624:Core/Src/app_uart_handlers.c **** 
 1710              		.loc 1 624 11 is_stmt 0 view .LVU495
 1711 0088 2978     		ldrb	r1, [r5]	@ zero_extendqisi2
 1712 008a 2820     		movs	r0, #40
 1713 008c FFF7FEFF 		bl	APP_ParamDict_SetValueUnsafe
 1714              	.LVL202:
 626:Core/Src/app_uart_handlers.c ****     {
 1715              		.loc 1 626 5 is_stmt 1 view .LVU496
 626:Core/Src/app_uart_handlers.c ****     {
 1716              		.loc 1 626 8 is_stmt 0 view .LVU497
 1717 0090 022C     		cmp	r4, #2
 1718 0092 08D8     		bhi	.L132
 1719              	.L125:
 630:Core/Src/app_uart_handlers.c ****     {
 1720              		.loc 1 630 5 is_stmt 1 view .LVU498
 630:Core/Src/app_uart_handlers.c ****     {
 1721              		.loc 1 630 8 is_stmt 0 view .LVU499
 1722 0094 032C     		cmp	r4, #3
 1723 0096 0ED8     		bhi	.L133
 1724              	.L126:
 634:Core/Src/app_uart_handlers.c ****     {
 1725              		.loc 1 634 5 is_stmt 1 view .LVU500
 634:Core/Src/app_uart_handlers.c ****     {
 1726              		.loc 1 634 8 is_stmt 0 view .LVU501
 1727 0098 042C     		cmp	r4, #4
 1728 009a EDD9     		bls	.L124
 636:Core/Src/app_uart_handlers.c ****     }
 1729              		.loc 1 636 7 is_stmt 1 view .LVU502
 636:Core/Src/app_uart_handlers.c ****     }
 1730              		.loc 1 636 13 is_stmt 0 view .LVU503
 1731 009c 2979     		ldrb	r1, [r5, #4]	@ zero_extendqisi2
 1732 009e 1720     		movs	r0, #23
 1733 00a0 FFF7FEFF 		bl	APP_ParamDict_SetValueUnsafe
 1734              	.LVL203:
 1735 00a4 E8E7     		b	.L124
 1736              	.L132:
 628:Core/Src/app_uart_handlers.c ****     }
 1737              		.loc 1 628 7 is_stmt 1 view .LVU504
 628:Core/Src/app_uart_handlers.c ****     }
 1738              		.loc 1 628 77 is_stmt 0 view .LVU505
 1739 00a6 681C     		adds	r0, r5, #1
 1740 00a8 FFF7FEFF 		bl	read_be_i16
 1741              	.LVL204:
 1742 00ac 0146     		mov	r1, r0
 628:Core/Src/app_uart_handlers.c ****     }
 1743              		.loc 1 628 13 view .LVU506
 1744 00ae 0420     		movs	r0, #4
ARM GAS  /tmp/cc1v4A75.s 			page 46


 1745 00b0 FFF7FEFF 		bl	APP_ParamDict_SetValueUnsafe
 1746              	.LVL205:
 1747 00b4 EEE7     		b	.L125
 1748              	.L133:
 632:Core/Src/app_uart_handlers.c ****     }
 1749              		.loc 1 632 7 is_stmt 1 view .LVU507
 632:Core/Src/app_uart_handlers.c ****     }
 1750              		.loc 1 632 13 is_stmt 0 view .LVU508
 1751 00b6 E978     		ldrb	r1, [r5, #3]	@ zero_extendqisi2
 1752 00b8 2920     		movs	r0, #41
 1753 00ba FFF7FEFF 		bl	APP_ParamDict_SetValueUnsafe
 1754              	.LVL206:
 1755 00be EBE7     		b	.L126
 1756              	.LVL207:
 1757              	.L129:
 1758              	.LCFI17:
 1759              		.cfi_def_cfa_offset 0
 1760              		.cfi_restore 3
 1761              		.cfi_restore 4
 1762              		.cfi_restore 5
 1763              		.cfi_restore 14
 632:Core/Src/app_uart_handlers.c ****     }
 1764              		.loc 1 632 13 view .LVU509
 1765 00c0 7047     		bx	lr
 1766              	.L135:
 1767 00c2 00BF     		.align	2
 1768              	.L134:
 1769 00c4 00000000 		.word	gParamMutexHandle
 1770              		.cfi_endproc
 1771              	.LFE20:
 1773              		.section	.text.handle_cmd_0x09,"ax",%progbits
 1774              		.align	1
 1775              		.syntax unified
 1776              		.thumb
 1777              		.thumb_func
 1778              		.fpu softvfp
 1780              	handle_cmd_0x09:
 1781              	.LVL208:
 1782              	.LFB21:
 647:Core/Src/app_uart_handlers.c **** 
 648:Core/Src/app_uart_handlers.c **** /* 0x09: 邻居信息
 649:Core/Src/app_uart_handlers.c ****  * 与 ui_practice_test::Send_0x09 对齐：
 650:Core/Src/app_uart_handlers.c ****  * payload[0] = neighbor count
 651:Core/Src/app_uart_handlers.c ****  * payload[1..] = NetworkNodeStatus[] (packed, each 31 bytes)
 652:Core/Src/app_uart_handlers.c ****  *   [0]      member_id
 653:Core/Src/app_uart_handlers.c ****  *   [1..4]   ip_address[4]
 654:Core/Src/app_uart_handlers.c ****  *   [5]      hop_count
 655:Core/Src/app_uart_handlers.c ****  *   [6]      signal_strength (i8)
 656:Core/Src/app_uart_handlers.c ****  *   [7..8]   transmission_delay (u16, little-endian)
 657:Core/Src/app_uart_handlers.c ****  *   [9..18]  longitude[10] (ASCII)
 658:Core/Src/app_uart_handlers.c ****  *   [19..28] latitude[10]  (ASCII)
 659:Core/Src/app_uart_handlers.c ****  *   [29..30] altitude (u16, little-endian)
 660:Core/Src/app_uart_handlers.c ****  *
 661:Core/Src/app_uart_handlers.c ****  * 当前屏显先落库第 1 个节点信息。
 662:Core/Src/app_uart_handlers.c ****  */
 663:Core/Src/app_uart_handlers.c **** static void handle_cmd_0x09(const uint8_t *payload, uint16_t payloadLen)
 664:Core/Src/app_uart_handlers.c **** {
ARM GAS  /tmp/cc1v4A75.s 			page 47


 1783              		.loc 1 664 1 is_stmt 1 view -0
 1784              		.cfi_startproc
 1785              		@ args = 0, pretend = 0, frame = 8
 1786              		@ frame_needed = 0, uses_anonymous_args = 0
 665:Core/Src/app_uart_handlers.c ****   enum { NODE_STATUS_SIZE = 31 };
 1787              		.loc 1 665 3 view .LVU511
 666:Core/Src/app_uart_handlers.c **** 
 667:Core/Src/app_uart_handlers.c ****   if ((payload == NULL) || (payloadLen < 1u))
 1788              		.loc 1 667 3 view .LVU512
 1789              		.loc 1 667 6 is_stmt 0 view .LVU513
 1790 0000 0028     		cmp	r0, #0
 1791 0002 00F09E80 		beq	.L154
 664:Core/Src/app_uart_handlers.c ****   enum { NODE_STATUS_SIZE = 31 };
 1792              		.loc 1 664 1 discriminator 1 view .LVU514
 1793 0006 2DE9F043 		push	{r4, r5, r6, r7, r8, r9, lr}
 1794              	.LCFI18:
 1795              		.cfi_def_cfa_offset 28
 1796              		.cfi_offset 4, -28
 1797              		.cfi_offset 5, -24
 1798              		.cfi_offset 6, -20
 1799              		.cfi_offset 7, -16
 1800              		.cfi_offset 8, -12
 1801              		.cfi_offset 9, -8
 1802              		.cfi_offset 14, -4
 1803 000a 83B0     		sub	sp, sp, #12
 1804              	.LCFI19:
 1805              		.cfi_def_cfa_offset 40
 1806 000c 0C46     		mov	r4, r1
 1807 000e 0646     		mov	r6, r0
 1808              		.loc 1 667 25 discriminator 1 view .LVU515
 1809 0010 0029     		cmp	r1, #0
 1810 0012 00F08F80 		beq	.L136
 668:Core/Src/app_uart_handlers.c ****   {
 669:Core/Src/app_uart_handlers.c ****     return;
 670:Core/Src/app_uart_handlers.c ****   }
 671:Core/Src/app_uart_handlers.c **** 
 672:Core/Src/app_uart_handlers.c ****   if (gParamMutexHandle != NULL)
 1811              		.loc 1 672 3 is_stmt 1 view .LVU516
 1812              		.loc 1 672 25 is_stmt 0 view .LVU517
 1813 0016 4B4B     		ldr	r3, .L159
 1814 0018 1868     		ldr	r0, [r3]
 1815              	.LVL209:
 1816              		.loc 1 672 6 view .LVU518
 1817 001a 18B1     		cbz	r0, .L138
 673:Core/Src/app_uart_handlers.c ****   {
 674:Core/Src/app_uart_handlers.c ****     (void)osMutexAcquire(gParamMutexHandle, osWaitForever);
 1818              		.loc 1 674 5 is_stmt 1 view .LVU519
 1819              		.loc 1 674 11 is_stmt 0 view .LVU520
 1820 001c 4FF0FF31 		mov	r1, #-1
 1821              	.LVL210:
 1822              		.loc 1 674 11 view .LVU521
 1823 0020 FFF7FEFF 		bl	osMutexAcquire
 1824              	.LVL211:
 1825              	.L138:
 1826              	.LBB11:
 675:Core/Src/app_uart_handlers.c ****   }
 676:Core/Src/app_uart_handlers.c **** 
ARM GAS  /tmp/cc1v4A75.s 			page 48


 677:Core/Src/app_uart_handlers.c ****   {
 678:Core/Src/app_uart_handlers.c ****     uint8_t declaredCount = payload[0];
 1827              		.loc 1 678 5 is_stmt 1 view .LVU522
 1828              		.loc 1 678 13 is_stmt 0 view .LVU523
 1829 0024 3178     		ldrb	r1, [r6]	@ zero_extendqisi2
 1830              	.LVL212:
 679:Core/Src/app_uart_handlers.c ****     uint16_t bytesAvail = (payloadLen > 1u) ? (uint16_t)(payloadLen - 1u) : 0u;
 1831              		.loc 1 679 5 is_stmt 1 view .LVU524
 1832              		.loc 1 679 14 is_stmt 0 view .LVU525
 1833 0026 012C     		cmp	r4, #1
 1834 0028 1AD9     		bls	.L150
 1835              		.loc 1 679 14 discriminator 1 view .LVU526
 1836 002a 013C     		subs	r4, r4, #1
 1837 002c A4B2     		uxth	r4, r4
 1838              	.L139:
 1839              	.LVL213:
 680:Core/Src/app_uart_handlers.c ****     uint8_t parseCount = (uint8_t)(bytesAvail / NODE_STATUS_SIZE);
 1840              		.loc 1 680 5 is_stmt 1 discriminator 4 view .LVU527
 1841              		.loc 1 680 26 is_stmt 0 discriminator 4 view .LVU528
 1842 002e 464B     		ldr	r3, .L159+4
 1843 0030 A3FB0439 		umull	r3, r9, r3, r4
 1844 0034 A4EB0904 		sub	r4, r4, r9
 1845              	.LVL214:
 1846              		.loc 1 680 26 discriminator 4 view .LVU529
 1847 0038 09EB5409 		add	r9, r9, r4, lsr #1
 1848              		.loc 1 680 13 discriminator 4 view .LVU530
 1849 003c C9F30719 		ubfx	r9, r9, #4, #8
 1850              	.LVL215:
 681:Core/Src/app_uart_handlers.c **** 
 682:Core/Src/app_uart_handlers.c ****     if (parseCount > declaredCount)
 1851              		.loc 1 682 5 is_stmt 1 discriminator 4 view .LVU531
 1852              		.loc 1 682 8 is_stmt 0 discriminator 4 view .LVU532
 1853 0040 4945     		cmp	r1, r9
 1854 0042 00D2     		bcs	.L140
 683:Core/Src/app_uart_handlers.c ****     {
 684:Core/Src/app_uart_handlers.c ****       parseCount = declaredCount;
 1855              		.loc 1 684 18 view .LVU533
 1856 0044 8946     		mov	r9, r1
 1857              	.LVL216:
 1858              	.L140:
 685:Core/Src/app_uart_handlers.c ****     }
 686:Core/Src/app_uart_handlers.c ****     if (parseCount > NEIGHBOR_NODE_CACHE_MAX)
 1859              		.loc 1 686 5 is_stmt 1 view .LVU534
 1860              		.loc 1 686 8 is_stmt 0 view .LVU535
 1861 0046 B9F1400F 		cmp	r9, #64
 1862 004a 01D9     		bls	.L141
 687:Core/Src/app_uart_handlers.c ****     {
 688:Core/Src/app_uart_handlers.c ****       parseCount = NEIGHBOR_NODE_CACHE_MAX;
 1863              		.loc 1 688 18 view .LVU536
 1864 004c 4FF04009 		mov	r9, #64
 1865              	.LVL217:
 1866              	.L141:
 689:Core/Src/app_uart_handlers.c ****     }
 690:Core/Src/app_uart_handlers.c **** 
 691:Core/Src/app_uart_handlers.c ****     s_neighborNodeCount = parseCount;
 1867              		.loc 1 691 5 is_stmt 1 view .LVU537
 1868              		.loc 1 691 25 is_stmt 0 view .LVU538
ARM GAS  /tmp/cc1v4A75.s 			page 49


 1869 0050 3E4B     		ldr	r3, .L159+8
 1870 0052 83F80090 		strb	r9, [r3]
 692:Core/Src/app_uart_handlers.c ****     (void)APP_ParamDict_SetValueUnsafe(PARAM_ID_NEIGHBOR_COUNT, (int32_t)declaredCount);
 1871              		.loc 1 692 5 is_stmt 1 view .LVU539
 1872              		.loc 1 692 11 is_stmt 0 view .LVU540
 1873 0056 5020     		movs	r0, #80
 1874 0058 FFF7FEFF 		bl	APP_ParamDict_SetValueUnsafe
 1875              	.LVL218:
 693:Core/Src/app_uart_handlers.c **** 
 694:Core/Src/app_uart_handlers.c ****     for (uint8_t i = 0u; i < parseCount; ++i)
 1876              		.loc 1 694 5 is_stmt 1 view .LVU541
 1877              	.LBB12:
 1878              		.loc 1 694 10 view .LVU542
 1879              		.loc 1 694 18 is_stmt 0 view .LVU543
 1880 005c 0025     		movs	r5, #0
 1881              		.loc 1 694 5 view .LVU544
 1882 005e 13E0     		b	.L142
 1883              	.LVL219:
 1884              	.L150:
 1885              		.loc 1 694 5 view .LVU545
 1886              	.LBE12:
 679:Core/Src/app_uart_handlers.c ****     uint8_t parseCount = (uint8_t)(bytesAvail / NODE_STATUS_SIZE);
 1887              		.loc 1 679 14 view .LVU546
 1888 0060 0024     		movs	r4, #0
 1889 0062 E4E7     		b	.L139
 1890              	.LVL220:
 1891              	.L143:
 1892              	.LBB15:
 1893              	.LBB13:
 695:Core/Src/app_uart_handlers.c ****     {
 696:Core/Src/app_uart_handlers.c ****       uint16_t base = (uint16_t)(1u + ((uint16_t)i * NODE_STATUS_SIZE));
 697:Core/Src/app_uart_handlers.c ****       int32_t lon = 0;
 698:Core/Src/app_uart_handlers.c ****       int32_t lat = 0;
 699:Core/Src/app_uart_handlers.c **** 
 700:Core/Src/app_uart_handlers.c ****       s_neighborNodeCache[i].id = payload[base + 0u];
 701:Core/Src/app_uart_handlers.c ****       s_neighborNodeCache[i].ip = ((uint32_t)payload[base + 1u] << 24) |
 702:Core/Src/app_uart_handlers.c ****                                   ((uint32_t)payload[base + 2u] << 16) |
 703:Core/Src/app_uart_handlers.c ****                                   ((uint32_t)payload[base + 3u] << 8) |
 704:Core/Src/app_uart_handlers.c ****                                   ((uint32_t)payload[base + 4u]);
 705:Core/Src/app_uart_handlers.c ****       s_neighborNodeCache[i].hops = payload[base + 5u];
 706:Core/Src/app_uart_handlers.c ****       s_neighborNodeCache[i].rssi = (int8_t)payload[base + 6u];
 707:Core/Src/app_uart_handlers.c ****       s_neighborNodeCache[i].delay = read_le_u16(&payload[base + 7u]);
 708:Core/Src/app_uart_handlers.c ****       s_neighborNodeCache[i].alt = read_le_u16(&payload[base + 29u]);
 709:Core/Src/app_uart_handlers.c **** 
 710:Core/Src/app_uart_handlers.c ****       if (parse_ascii_coord_1e6(&payload[base + 9u], 10u, &lon))
 711:Core/Src/app_uart_handlers.c ****       {
 712:Core/Src/app_uart_handlers.c ****         s_neighborNodeCache[i].lon = lon;
 713:Core/Src/app_uart_handlers.c ****       }
 714:Core/Src/app_uart_handlers.c ****       else
 715:Core/Src/app_uart_handlers.c ****       {
 716:Core/Src/app_uart_handlers.c ****         s_neighborNodeCache[i].lon = 0;
 1894              		.loc 1 716 9 is_stmt 1 view .LVU547
 1895              		.loc 1 716 36 is_stmt 0 view .LVU548
 1896 0064 05EB4503 		add	r3, r5, r5, lsl #1
 1897 0068 394A     		ldr	r2, .L159+12
 1898 006a 02EBC303 		add	r3, r2, r3, lsl #3
 1899 006e 0022     		movs	r2, #0
ARM GAS  /tmp/cc1v4A75.s 			page 50


 1900 0070 DA60     		str	r2, [r3, #12]
 1901 0072 43E0     		b	.L144
 1902              	.L145:
 717:Core/Src/app_uart_handlers.c ****       }
 718:Core/Src/app_uart_handlers.c **** 
 719:Core/Src/app_uart_handlers.c ****       if (parse_ascii_coord_1e6(&payload[base + 19u], 10u, &lat))
 720:Core/Src/app_uart_handlers.c ****       {
 721:Core/Src/app_uart_handlers.c ****         s_neighborNodeCache[i].lat = lat;
 722:Core/Src/app_uart_handlers.c ****       }
 723:Core/Src/app_uart_handlers.c ****       else
 724:Core/Src/app_uart_handlers.c ****       {
 725:Core/Src/app_uart_handlers.c ****         s_neighborNodeCache[i].lat = 0;
 1903              		.loc 1 725 9 is_stmt 1 view .LVU549
 1904              		.loc 1 725 36 is_stmt 0 view .LVU550
 1905 0074 08EB4808 		add	r8, r8, r8, lsl #1
 1906 0078 354B     		ldr	r3, .L159+12
 1907 007a 03EBC808 		add	r8, r3, r8, lsl #3
 1908 007e 0023     		movs	r3, #0
 1909 0080 C8F81030 		str	r3, [r8, #16]
 1910              	.L146:
 1911              	.LBE13:
 694:Core/Src/app_uart_handlers.c ****     {
 1912              		.loc 1 694 42 is_stmt 1 discriminator 2 view .LVU551
 1913 0084 0135     		adds	r5, r5, #1
 1914              	.LVL221:
 694:Core/Src/app_uart_handlers.c ****     {
 1915              		.loc 1 694 42 is_stmt 0 discriminator 2 view .LVU552
 1916 0086 EDB2     		uxtb	r5, r5
 1917              	.LVL222:
 1918              	.L142:
 694:Core/Src/app_uart_handlers.c ****     {
 1919              		.loc 1 694 26 is_stmt 1 discriminator 1 view .LVU553
 694:Core/Src/app_uart_handlers.c ****     {
 1920              		.loc 1 694 5 is_stmt 0 discriminator 1 view .LVU554
 1921 0088 A945     		cmp	r9, r5
 1922 008a 49D9     		bls	.L157
 1923              	.LBB14:
 696:Core/Src/app_uart_handlers.c ****       int32_t lon = 0;
 1924              		.loc 1 696 7 is_stmt 1 view .LVU555
 696:Core/Src/app_uart_handlers.c ****       int32_t lon = 0;
 1925              		.loc 1 696 23 is_stmt 0 view .LVU556
 1926 008c C5EB4514 		rsb	r4, r5, r5, lsl #5
 1927 0090 A4B2     		uxth	r4, r4
 696:Core/Src/app_uart_handlers.c ****       int32_t lon = 0;
 1928              		.loc 1 696 16 view .LVU557
 1929 0092 0134     		adds	r4, r4, #1
 1930 0094 A4B2     		uxth	r4, r4
 1931              	.LVL223:
 697:Core/Src/app_uart_handlers.c ****       int32_t lat = 0;
 1932              		.loc 1 697 7 is_stmt 1 view .LVU558
 697:Core/Src/app_uart_handlers.c ****       int32_t lat = 0;
 1933              		.loc 1 697 15 is_stmt 0 view .LVU559
 1934 0096 0023     		movs	r3, #0
 1935 0098 0093     		str	r3, [sp]
 698:Core/Src/app_uart_handlers.c **** 
 1936              		.loc 1 698 7 is_stmt 1 view .LVU560
 698:Core/Src/app_uart_handlers.c **** 
ARM GAS  /tmp/cc1v4A75.s 			page 51


 1937              		.loc 1 698 15 is_stmt 0 view .LVU561
 1938 009a 0193     		str	r3, [sp, #4]
 700:Core/Src/app_uart_handlers.c ****       s_neighborNodeCache[i].ip = ((uint32_t)payload[base + 1u] << 24) |
 1939              		.loc 1 700 7 is_stmt 1 view .LVU562
 700:Core/Src/app_uart_handlers.c ****       s_neighborNodeCache[i].ip = ((uint32_t)payload[base + 1u] << 24) |
 1940              		.loc 1 700 29 is_stmt 0 view .LVU563
 1941 009c A846     		mov	r8, r5
 700:Core/Src/app_uart_handlers.c ****       s_neighborNodeCache[i].ip = ((uint32_t)payload[base + 1u] << 24) |
 1942              		.loc 1 700 42 view .LVU564
 1943 009e 315D     		ldrb	r1, [r6, r4]	@ zero_extendqisi2
 700:Core/Src/app_uart_handlers.c ****       s_neighborNodeCache[i].ip = ((uint32_t)payload[base + 1u] << 24) |
 1944              		.loc 1 700 33 view .LVU565
 1945 00a0 2B4B     		ldr	r3, .L159+12
 1946 00a2 05EB4502 		add	r2, r5, r5, lsl #1
 1947 00a6 03EBC207 		add	r7, r3, r2, lsl #3
 1948 00aa 03F83210 		strb	r1, [r3, r2, lsl #3]
 701:Core/Src/app_uart_handlers.c ****                                   ((uint32_t)payload[base + 2u] << 16) |
 1949              		.loc 1 701 7 is_stmt 1 view .LVU566
 701:Core/Src/app_uart_handlers.c ****                                   ((uint32_t)payload[base + 2u] << 16) |
 1950              		.loc 1 701 53 is_stmt 0 view .LVU567
 1951 00ae 3219     		adds	r2, r6, r4
 1952 00b0 5178     		ldrb	r1, [r2, #1]	@ zero_extendqisi2
 702:Core/Src/app_uart_handlers.c ****                                   ((uint32_t)payload[base + 3u] << 8) |
 1953              		.loc 1 702 53 view .LVU568
 1954 00b2 9378     		ldrb	r3, [r2, #2]	@ zero_extendqisi2
 702:Core/Src/app_uart_handlers.c ****                                   ((uint32_t)payload[base + 3u] << 8) |
 1955              		.loc 1 702 65 view .LVU569
 1956 00b4 1B04     		lsls	r3, r3, #16
 701:Core/Src/app_uart_handlers.c ****                                   ((uint32_t)payload[base + 2u] << 16) |
 1957              		.loc 1 701 72 view .LVU570
 1958 00b6 43EA0163 		orr	r3, r3, r1, lsl #24
 703:Core/Src/app_uart_handlers.c ****                                   ((uint32_t)payload[base + 4u]);
 1959              		.loc 1 703 53 view .LVU571
 1960 00ba D178     		ldrb	r1, [r2, #3]	@ zero_extendqisi2
 702:Core/Src/app_uart_handlers.c ****                                   ((uint32_t)payload[base + 3u] << 8) |
 1961              		.loc 1 702 72 view .LVU572
 1962 00bc 43EA0123 		orr	r3, r3, r1, lsl #8
 704:Core/Src/app_uart_handlers.c ****       s_neighborNodeCache[i].hops = payload[base + 5u];
 1963              		.loc 1 704 53 view .LVU573
 1964 00c0 1179     		ldrb	r1, [r2, #4]	@ zero_extendqisi2
 703:Core/Src/app_uart_handlers.c ****                                   ((uint32_t)payload[base + 4u]);
 1965              		.loc 1 703 71 view .LVU574
 1966 00c2 0B43     		orrs	r3, r3, r1
 701:Core/Src/app_uart_handlers.c ****                                   ((uint32_t)payload[base + 2u] << 16) |
 1967              		.loc 1 701 33 view .LVU575
 1968 00c4 7B60     		str	r3, [r7, #4]
 705:Core/Src/app_uart_handlers.c ****       s_neighborNodeCache[i].rssi = (int8_t)payload[base + 6u];
 1969              		.loc 1 705 7 is_stmt 1 view .LVU576
 705:Core/Src/app_uart_handlers.c ****       s_neighborNodeCache[i].rssi = (int8_t)payload[base + 6u];
 1970              		.loc 1 705 44 is_stmt 0 view .LVU577
 1971 00c6 5379     		ldrb	r3, [r2, #5]	@ zero_extendqisi2
 705:Core/Src/app_uart_handlers.c ****       s_neighborNodeCache[i].rssi = (int8_t)payload[base + 6u];
 1972              		.loc 1 705 35 view .LVU578
 1973 00c8 3B72     		strb	r3, [r7, #8]
 706:Core/Src/app_uart_handlers.c ****       s_neighborNodeCache[i].delay = read_le_u16(&payload[base + 7u]);
 1974              		.loc 1 706 7 is_stmt 1 view .LVU579
 706:Core/Src/app_uart_handlers.c ****       s_neighborNodeCache[i].delay = read_le_u16(&payload[base + 7u]);
ARM GAS  /tmp/cc1v4A75.s 			page 52


 1975              		.loc 1 706 37 is_stmt 0 view .LVU580
 1976 00ca 92F90630 		ldrsb	r3, [r2, #6]
 706:Core/Src/app_uart_handlers.c ****       s_neighborNodeCache[i].delay = read_le_u16(&payload[base + 7u]);
 1977              		.loc 1 706 35 view .LVU581
 1978 00ce 7B72     		strb	r3, [r7, #9]
 707:Core/Src/app_uart_handlers.c ****       s_neighborNodeCache[i].alt = read_le_u16(&payload[base + 29u]);
 1979              		.loc 1 707 7 is_stmt 1 view .LVU582
 707:Core/Src/app_uart_handlers.c ****       s_neighborNodeCache[i].alt = read_le_u16(&payload[base + 29u]);
 1980              		.loc 1 707 58 is_stmt 0 view .LVU583
 1981 00d0 E01D     		adds	r0, r4, #7
 707:Core/Src/app_uart_handlers.c ****       s_neighborNodeCache[i].alt = read_le_u16(&payload[base + 29u]);
 1982              		.loc 1 707 38 view .LVU584
 1983 00d2 3044     		add	r0, r0, r6
 1984 00d4 FFF7FEFF 		bl	read_le_u16
 1985              	.LVL224:
 707:Core/Src/app_uart_handlers.c ****       s_neighborNodeCache[i].alt = read_le_u16(&payload[base + 29u]);
 1986              		.loc 1 707 36 view .LVU585
 1987 00d8 7881     		strh	r0, [r7, #10]	@ movhi
 708:Core/Src/app_uart_handlers.c **** 
 1988              		.loc 1 708 7 is_stmt 1 view .LVU586
 708:Core/Src/app_uart_handlers.c **** 
 1989              		.loc 1 708 56 is_stmt 0 view .LVU587
 1990 00da 04F11D00 		add	r0, r4, #29
 708:Core/Src/app_uart_handlers.c **** 
 1991              		.loc 1 708 36 view .LVU588
 1992 00de 3044     		add	r0, r0, r6
 1993 00e0 FFF7FEFF 		bl	read_le_u16
 1994              	.LVL225:
 708:Core/Src/app_uart_handlers.c **** 
 1995              		.loc 1 708 34 view .LVU589
 1996 00e4 B882     		strh	r0, [r7, #20]	@ movhi
 710:Core/Src/app_uart_handlers.c ****       {
 1997              		.loc 1 710 7 is_stmt 1 view .LVU590
 710:Core/Src/app_uart_handlers.c ****       {
 1998              		.loc 1 710 41 is_stmt 0 view .LVU591
 1999 00e6 04F10900 		add	r0, r4, #9
 710:Core/Src/app_uart_handlers.c ****       {
 2000              		.loc 1 710 11 view .LVU592
 2001 00ea 6A46     		mov	r2, sp
 2002 00ec 0A21     		movs	r1, #10
 2003 00ee 3044     		add	r0, r0, r6
 2004 00f0 FFF7FEFF 		bl	parse_ascii_coord_1e6
 2005              	.LVL226:
 710:Core/Src/app_uart_handlers.c ****       {
 2006              		.loc 1 710 10 view .LVU593
 2007 00f4 0028     		cmp	r0, #0
 2008 00f6 B5D0     		beq	.L143
 712:Core/Src/app_uart_handlers.c ****       }
 2009              		.loc 1 712 9 is_stmt 1 view .LVU594
 712:Core/Src/app_uart_handlers.c ****       }
 2010              		.loc 1 712 36 is_stmt 0 view .LVU595
 2011 00f8 009A     		ldr	r2, [sp]
 2012 00fa FA60     		str	r2, [r7, #12]
 2013              	.L144:
 719:Core/Src/app_uart_handlers.c ****       {
 2014              		.loc 1 719 7 is_stmt 1 view .LVU596
 719:Core/Src/app_uart_handlers.c ****       {
ARM GAS  /tmp/cc1v4A75.s 			page 53


 2015              		.loc 1 719 41 is_stmt 0 view .LVU597
 2016 00fc 04F11300 		add	r0, r4, #19
 719:Core/Src/app_uart_handlers.c ****       {
 2017              		.loc 1 719 11 view .LVU598
 2018 0100 01AA     		add	r2, sp, #4
 2019 0102 0A21     		movs	r1, #10
 2020 0104 3044     		add	r0, r0, r6
 2021 0106 FFF7FEFF 		bl	parse_ascii_coord_1e6
 2022              	.LVL227:
 719:Core/Src/app_uart_handlers.c ****       {
 2023              		.loc 1 719 10 view .LVU599
 2024 010a 0028     		cmp	r0, #0
 2025 010c B2D0     		beq	.L145
 721:Core/Src/app_uart_handlers.c ****       }
 2026              		.loc 1 721 9 is_stmt 1 view .LVU600
 721:Core/Src/app_uart_handlers.c ****       }
 2027              		.loc 1 721 36 is_stmt 0 view .LVU601
 2028 010e 08EB4808 		add	r8, r8, r8, lsl #1
 2029 0112 0F4B     		ldr	r3, .L159+12
 2030 0114 03EBC808 		add	r8, r3, r8, lsl #3
 2031 0118 019B     		ldr	r3, [sp, #4]
 2032 011a C8F81030 		str	r3, [r8, #16]
 2033 011e B1E7     		b	.L146
 2034              	.LVL228:
 2035              	.L157:
 721:Core/Src/app_uart_handlers.c ****       }
 2036              		.loc 1 721 36 view .LVU602
 2037              	.LBE14:
 2038              	.LBE15:
 726:Core/Src/app_uart_handlers.c ****       }
 727:Core/Src/app_uart_handlers.c ****     }
 728:Core/Src/app_uart_handlers.c **** 
 729:Core/Src/app_uart_handlers.c ****     if (parseCount > 0u)
 2039              		.loc 1 729 5 is_stmt 1 view .LVU603
 2040              		.loc 1 729 8 is_stmt 0 view .LVU604
 2041 0120 B9F1000F 		cmp	r9, #0
 2042 0124 09D1     		bne	.L158
 2043              	.L148:
 2044              	.LBE11:
 730:Core/Src/app_uart_handlers.c ****     {
 731:Core/Src/app_uart_handlers.c ****       cache_write_neighbor_to_params(&s_neighborNodeCache[0]);
 732:Core/Src/app_uart_handlers.c ****     }
 733:Core/Src/app_uart_handlers.c ****   }
 734:Core/Src/app_uart_handlers.c **** 
 735:Core/Src/app_uart_handlers.c ****   if (gParamMutexHandle != NULL)
 2045              		.loc 1 735 3 is_stmt 1 view .LVU605
 2046              		.loc 1 735 25 is_stmt 0 view .LVU606
 2047 0126 074B     		ldr	r3, .L159
 2048 0128 1868     		ldr	r0, [r3]
 2049              		.loc 1 735 6 view .LVU607
 2050 012a 08B1     		cbz	r0, .L149
 736:Core/Src/app_uart_handlers.c ****   {
 737:Core/Src/app_uart_handlers.c ****     (void)osMutexRelease(gParamMutexHandle);
 2051              		.loc 1 737 5 is_stmt 1 view .LVU608
 2052              		.loc 1 737 11 is_stmt 0 view .LVU609
 2053 012c FFF7FEFF 		bl	osMutexRelease
 2054              	.LVL229:
ARM GAS  /tmp/cc1v4A75.s 			page 54


 2055              	.L149:
 738:Core/Src/app_uart_handlers.c ****   }
 739:Core/Src/app_uart_handlers.c **** 
 740:Core/Src/app_uart_handlers.c ****   APP_Menu_RefreshCurrent();
 2056              		.loc 1 740 3 is_stmt 1 view .LVU610
 2057 0130 FFF7FEFF 		bl	APP_Menu_RefreshCurrent
 2058              	.LVL230:
 2059              	.L136:
 741:Core/Src/app_uart_handlers.c **** }
 2060              		.loc 1 741 1 is_stmt 0 view .LVU611
 2061 0134 03B0     		add	sp, sp, #12
 2062              	.LCFI20:
 2063              		.cfi_remember_state
 2064              		.cfi_def_cfa_offset 28
 2065              		@ sp needed
 2066 0136 BDE8F083 		pop	{r4, r5, r6, r7, r8, r9, pc}
 2067              	.LVL231:
 2068              	.L158:
 2069              	.LCFI21:
 2070              		.cfi_restore_state
 2071              	.LBB16:
 731:Core/Src/app_uart_handlers.c ****     }
 2072              		.loc 1 731 7 is_stmt 1 view .LVU612
 2073 013a 0548     		ldr	r0, .L159+12
 2074 013c FFF7FEFF 		bl	cache_write_neighbor_to_params
 2075              	.LVL232:
 2076 0140 F1E7     		b	.L148
 2077              	.LVL233:
 2078              	.L154:
 2079              	.LCFI22:
 2080              		.cfi_def_cfa_offset 0
 2081              		.cfi_restore 4
 2082              		.cfi_restore 5
 2083              		.cfi_restore 6
 2084              		.cfi_restore 7
 2085              		.cfi_restore 8
 2086              		.cfi_restore 9
 2087              		.cfi_restore 14
 731:Core/Src/app_uart_handlers.c ****     }
 2088              		.loc 1 731 7 is_stmt 0 view .LVU613
 2089 0142 7047     		bx	lr
 2090              	.L160:
 2091              		.align	2
 2092              	.L159:
 2093 0144 00000000 		.word	gParamMutexHandle
 2094 0148 85104208 		.word	138547333
 2095 014c 00000000 		.word	.LANCHOR1
 2096 0150 00000000 		.word	.LANCHOR2
 2097              	.LBE16:
 2098              		.cfi_endproc
 2099              	.LFE21:
 2101              		.section	.text.handle_cmd_0x0A,"ax",%progbits
 2102              		.align	1
 2103              		.syntax unified
 2104              		.thumb
 2105              		.thumb_func
 2106              		.fpu softvfp
ARM GAS  /tmp/cc1v4A75.s 			page 55


 2108              	handle_cmd_0x0A:
 2109              	.LVL234:
 2110              	.LFB22:
 742:Core/Src/app_uart_handlers.c **** 
 743:Core/Src/app_uart_handlers.c **** /* 0x0A: 节点详细信息（请求后回包）
 744:Core/Src/app_uart_handlers.c ****  * 与 ui_practice_test::Send_0x0A 对齐：
 745:Core/Src/app_uart_handlers.c ****  * payload = NodeBasicInfo (17 bytes, packed)
 746:Core/Src/app_uart_handlers.c ****  * [0]      member_id
 747:Core/Src/app_uart_handlers.c ****  * [1]      spatial_filter_status
 748:Core/Src/app_uart_handlers.c ****  * [2..5]   ip_address[4]
 749:Core/Src/app_uart_handlers.c ****  * [6]      ch_frequency_hopping
 750:Core/Src/app_uart_handlers.c ****  * [7..10]  ch_working_freq (u32, little-endian)
 751:Core/Src/app_uart_handlers.c ****  * [11]     ch_signal_bandwidth
 752:Core/Src/app_uart_handlers.c ****  * [12]     ch_waveform
 753:Core/Src/app_uart_handlers.c ****  * [13]     ch_power_level
 754:Core/Src/app_uart_handlers.c ****  * [14]     ch_power_attenuation
 755:Core/Src/app_uart_handlers.c ****  * [15]     ch_routing_protocol
 756:Core/Src/app_uart_handlers.c ****  * [16]     ch_access_protocol
 757:Core/Src/app_uart_handlers.c ****  */
 758:Core/Src/app_uart_handlers.c **** static void handle_cmd_0x0A(const uint8_t *payload, uint16_t payloadLen)
 759:Core/Src/app_uart_handlers.c **** {
 2111              		.loc 1 759 1 is_stmt 1 view -0
 2112              		.cfi_startproc
 2113              		@ args = 0, pretend = 0, frame = 0
 2114              		@ frame_needed = 0, uses_anonymous_args = 0
 760:Core/Src/app_uart_handlers.c ****   if ((payload == NULL) || (payloadLen == 0u))
 2115              		.loc 1 760 3 view .LVU615
 2116              		.loc 1 760 6 is_stmt 0 view .LVU616
 2117 0000 0028     		cmp	r0, #0
 2118 0002 6ED0     		beq	.L177
 759:Core/Src/app_uart_handlers.c ****   if ((payload == NULL) || (payloadLen == 0u))
 2119              		.loc 1 759 1 discriminator 1 view .LVU617
 2120 0004 38B5     		push	{r3, r4, r5, lr}
 2121              	.LCFI23:
 2122              		.cfi_def_cfa_offset 16
 2123              		.cfi_offset 3, -16
 2124              		.cfi_offset 4, -12
 2125              		.cfi_offset 5, -8
 2126              		.cfi_offset 14, -4
 2127 0006 0C46     		mov	r4, r1
 2128 0008 0546     		mov	r5, r0
 2129              		.loc 1 760 25 discriminator 1 view .LVU618
 2130 000a 99B3     		cbz	r1, .L161
 761:Core/Src/app_uart_handlers.c ****   {
 762:Core/Src/app_uart_handlers.c ****     return;
 763:Core/Src/app_uart_handlers.c ****   }
 764:Core/Src/app_uart_handlers.c **** 
 765:Core/Src/app_uart_handlers.c ****   if (gParamMutexHandle != NULL)
 2131              		.loc 1 765 3 is_stmt 1 view .LVU619
 2132              		.loc 1 765 25 is_stmt 0 view .LVU620
 2133 000c 354B     		ldr	r3, .L189
 2134 000e 1868     		ldr	r0, [r3]
 2135              	.LVL235:
 2136              		.loc 1 765 6 view .LVU621
 2137 0010 18B1     		cbz	r0, .L163
 766:Core/Src/app_uart_handlers.c ****   {
 767:Core/Src/app_uart_handlers.c ****     (void)osMutexAcquire(gParamMutexHandle, osWaitForever);
ARM GAS  /tmp/cc1v4A75.s 			page 56


 2138              		.loc 1 767 5 is_stmt 1 view .LVU622
 2139              		.loc 1 767 11 is_stmt 0 view .LVU623
 2140 0012 4FF0FF31 		mov	r1, #-1
 2141              	.LVL236:
 2142              		.loc 1 767 11 view .LVU624
 2143 0016 FFF7FEFF 		bl	osMutexAcquire
 2144              	.LVL237:
 2145              	.L163:
 768:Core/Src/app_uart_handlers.c ****   }
 769:Core/Src/app_uart_handlers.c **** 
 770:Core/Src/app_uart_handlers.c ****   if (payloadLen >= 1u)
 2146              		.loc 1 770 3 is_stmt 1 view .LVU625
 771:Core/Src/app_uart_handlers.c ****   {
 772:Core/Src/app_uart_handlers.c ****     (void)APP_ParamDict_SetValueUnsafe(PARAM_ID_DETAIL_MEMBER_ID, (int32_t)payload[0]);
 2147              		.loc 1 772 5 view .LVU626
 2148              		.loc 1 772 11 is_stmt 0 view .LVU627
 2149 001a 2978     		ldrb	r1, [r5]	@ zero_extendqisi2
 2150 001c 6420     		movs	r0, #100
 2151 001e FFF7FEFF 		bl	APP_ParamDict_SetValueUnsafe
 2152              	.LVL238:
 773:Core/Src/app_uart_handlers.c ****   }
 774:Core/Src/app_uart_handlers.c ****   if (payloadLen >= 2u)
 2153              		.loc 1 774 3 is_stmt 1 view .LVU628
 2154              		.loc 1 774 6 is_stmt 0 view .LVU629
 2155 0022 012C     		cmp	r4, #1
 2156 0024 27D8     		bhi	.L180
 2157              	.L164:
 775:Core/Src/app_uart_handlers.c ****   {
 776:Core/Src/app_uart_handlers.c ****     (void)APP_ParamDict_SetValueUnsafe(PARAM_ID_DETAIL_SPATIAL, (int32_t)payload[1]);
 777:Core/Src/app_uart_handlers.c ****   }
 778:Core/Src/app_uart_handlers.c ****   if (payloadLen >= 6u)
 2158              		.loc 1 778 3 is_stmt 1 view .LVU630
 2159              		.loc 1 778 6 is_stmt 0 view .LVU631
 2160 0026 052C     		cmp	r4, #5
 2161 0028 2AD8     		bhi	.L181
 2162              	.L165:
 779:Core/Src/app_uart_handlers.c ****   {
 780:Core/Src/app_uart_handlers.c ****     uint32_t ip = ((uint32_t)payload[2] << 24) |
 781:Core/Src/app_uart_handlers.c ****                   ((uint32_t)payload[3] << 16) |
 782:Core/Src/app_uart_handlers.c ****                   ((uint32_t)payload[4] << 8) |
 783:Core/Src/app_uart_handlers.c ****                   ((uint32_t)payload[5]);
 784:Core/Src/app_uart_handlers.c ****     (void)APP_ParamDict_SetValueUnsafe(PARAM_ID_DETAIL_IP, (int32_t)ip);
 785:Core/Src/app_uart_handlers.c ****   }
 786:Core/Src/app_uart_handlers.c ****   if (payloadLen >= 7u)
 2163              		.loc 1 786 3 is_stmt 1 view .LVU632
 2164              		.loc 1 786 6 is_stmt 0 view .LVU633
 2165 002a 062C     		cmp	r4, #6
 2166 002c 36D8     		bhi	.L182
 2167              	.L166:
 787:Core/Src/app_uart_handlers.c ****   {
 788:Core/Src/app_uart_handlers.c ****     (void)APP_ParamDict_SetValueUnsafe(PARAM_ID_DETAIL_CH1_HOP, (int32_t)payload[6]);
 789:Core/Src/app_uart_handlers.c ****   }
 790:Core/Src/app_uart_handlers.c ****   if (payloadLen >= 11u)
 2168              		.loc 1 790 3 is_stmt 1 view .LVU634
 2169              		.loc 1 790 6 is_stmt 0 view .LVU635
 2170 002e 0A2C     		cmp	r4, #10
 2171 0030 0DD9     		bls	.L167
ARM GAS  /tmp/cc1v4A75.s 			page 57


 2172              	.LBB17:
 791:Core/Src/app_uart_handlers.c ****   {
 792:Core/Src/app_uart_handlers.c ****     uint32_t freqVal = read_le_u32(&payload[7]);
 2173              		.loc 1 792 5 is_stmt 1 view .LVU636
 2174              		.loc 1 792 24 is_stmt 0 view .LVU637
 2175 0032 E81D     		adds	r0, r5, #7
 2176 0034 FFF7FEFF 		bl	read_le_u32
 2177              	.LVL239:
 2178 0038 0146     		mov	r1, r0
 2179              	.LVL240:
 793:Core/Src/app_uart_handlers.c **** 
 794:Core/Src/app_uart_handlers.c ****     /* 兼容主控口径差异：若收到Hz（明显大于kHz范围）则自动折算为kHz。 */
 795:Core/Src/app_uart_handlers.c ****     if (freqVal > 3000000u)
 2180              		.loc 1 795 5 is_stmt 1 view .LVU638
 2181              		.loc 1 795 8 is_stmt 0 view .LVU639
 2182 003a 2B4B     		ldr	r3, .L189+4
 2183 003c 9842     		cmp	r0, r3
 2184 003e 03D9     		bls	.L168
 796:Core/Src/app_uart_handlers.c ****     {
 797:Core/Src/app_uart_handlers.c ****       freqVal /= 1000u;
 2185              		.loc 1 797 7 is_stmt 1 view .LVU640
 2186              		.loc 1 797 15 is_stmt 0 view .LVU641
 2187 0040 2A48     		ldr	r0, .L189+8
 2188              	.LVL241:
 2189              		.loc 1 797 15 view .LVU642
 2190 0042 A0FB0131 		umull	r3, r1, r0, r1
 2191              	.LVL242:
 2192              		.loc 1 797 15 view .LVU643
 2193 0046 8909     		lsrs	r1, r1, #6
 2194              	.LVL243:
 2195              	.L168:
 798:Core/Src/app_uart_handlers.c ****     }
 799:Core/Src/app_uart_handlers.c **** 
 800:Core/Src/app_uart_handlers.c ****     (void)APP_ParamDict_SetValueUnsafe(PARAM_ID_DETAIL_CH1_FREQ, (int32_t)freqVal);
 2196              		.loc 1 800 5 is_stmt 1 view .LVU644
 2197              		.loc 1 800 11 is_stmt 0 view .LVU645
 2198 0048 6820     		movs	r0, #104
 2199 004a FFF7FEFF 		bl	APP_ParamDict_SetValueUnsafe
 2200              	.LVL244:
 2201              	.L167:
 2202              		.loc 1 800 11 view .LVU646
 2203              	.LBE17:
 801:Core/Src/app_uart_handlers.c ****   }
 802:Core/Src/app_uart_handlers.c ****   if (payloadLen >= 12u)
 2204              		.loc 1 802 3 is_stmt 1 view .LVU647
 2205              		.loc 1 802 6 is_stmt 0 view .LVU648
 2206 004e 0B2C     		cmp	r4, #11
 2207 0050 29D8     		bhi	.L183
 2208              	.L169:
 803:Core/Src/app_uart_handlers.c ****   {
 804:Core/Src/app_uart_handlers.c ****     (void)APP_ParamDict_SetValueUnsafe(PARAM_ID_DETAIL_CH1_BW, (int32_t)payload[11]);
 805:Core/Src/app_uart_handlers.c ****   }
 806:Core/Src/app_uart_handlers.c ****   if (payloadLen >= 13u)
 2209              		.loc 1 806 3 is_stmt 1 view .LVU649
 2210              		.loc 1 806 6 is_stmt 0 view .LVU650
 2211 0052 0C2C     		cmp	r4, #12
 2212 0054 2CD8     		bhi	.L184
ARM GAS  /tmp/cc1v4A75.s 			page 58


 2213              	.L170:
 807:Core/Src/app_uart_handlers.c ****   {
 808:Core/Src/app_uart_handlers.c ****     (void)APP_ParamDict_SetValueUnsafe(PARAM_ID_DETAIL_CH1_WAVE, (int32_t)payload[12]);
 809:Core/Src/app_uart_handlers.c ****   }
 810:Core/Src/app_uart_handlers.c ****   if (payloadLen >= 14u)
 2214              		.loc 1 810 3 is_stmt 1 view .LVU651
 2215              		.loc 1 810 6 is_stmt 0 view .LVU652
 2216 0056 0D2C     		cmp	r4, #13
 2217 0058 2FD8     		bhi	.L185
 2218              	.L171:
 811:Core/Src/app_uart_handlers.c ****   {
 812:Core/Src/app_uart_handlers.c ****     (void)APP_ParamDict_SetValueUnsafe(PARAM_ID_DETAIL_CH1_TXPWR, (int32_t)payload[13]);
 813:Core/Src/app_uart_handlers.c ****   }
 814:Core/Src/app_uart_handlers.c ****   if (payloadLen >= 15u)
 2219              		.loc 1 814 3 is_stmt 1 view .LVU653
 2220              		.loc 1 814 6 is_stmt 0 view .LVU654
 2221 005a 0E2C     		cmp	r4, #14
 2222 005c 32D8     		bhi	.L186
 2223              	.L172:
 815:Core/Src/app_uart_handlers.c ****   {
 816:Core/Src/app_uart_handlers.c ****     (void)APP_ParamDict_SetValueUnsafe(PARAM_ID_DETAIL_CH1_TXATTEN, (int32_t)payload[14]);
 817:Core/Src/app_uart_handlers.c ****   }
 818:Core/Src/app_uart_handlers.c ****   if (payloadLen >= 16u)
 2224              		.loc 1 818 3 is_stmt 1 view .LVU655
 2225              		.loc 1 818 6 is_stmt 0 view .LVU656
 2226 005e 0F2C     		cmp	r4, #15
 2227 0060 35D8     		bhi	.L187
 2228              	.L173:
 819:Core/Src/app_uart_handlers.c ****   {
 820:Core/Src/app_uart_handlers.c ****     (void)APP_ParamDict_SetValueUnsafe(PARAM_ID_DETAIL_CH1_ROUTE, (int32_t)payload[15]);
 821:Core/Src/app_uart_handlers.c ****   }
 822:Core/Src/app_uart_handlers.c ****   if (payloadLen >= 17u)
 2229              		.loc 1 822 3 is_stmt 1 view .LVU657
 2230              		.loc 1 822 6 is_stmt 0 view .LVU658
 2231 0062 102C     		cmp	r4, #16
 2232 0064 38D8     		bhi	.L188
 2233              	.L174:
 823:Core/Src/app_uart_handlers.c ****   {
 824:Core/Src/app_uart_handlers.c ****     (void)APP_ParamDict_SetValueUnsafe(PARAM_ID_DETAIL_CH1_ACCESS, (int32_t)payload[16]);
 825:Core/Src/app_uart_handlers.c ****   }
 826:Core/Src/app_uart_handlers.c **** 
 827:Core/Src/app_uart_handlers.c ****   if (gParamMutexHandle != NULL)
 2234              		.loc 1 827 3 is_stmt 1 view .LVU659
 2235              		.loc 1 827 25 is_stmt 0 view .LVU660
 2236 0066 1F4B     		ldr	r3, .L189
 2237 0068 1868     		ldr	r0, [r3]
 2238              		.loc 1 827 6 view .LVU661
 2239 006a 08B1     		cbz	r0, .L175
 828:Core/Src/app_uart_handlers.c ****   {
 829:Core/Src/app_uart_handlers.c ****     (void)osMutexRelease(gParamMutexHandle);
 2240              		.loc 1 829 5 is_stmt 1 view .LVU662
 2241              		.loc 1 829 11 is_stmt 0 view .LVU663
 2242 006c FFF7FEFF 		bl	osMutexRelease
 2243              	.LVL245:
 2244              	.L175:
 830:Core/Src/app_uart_handlers.c ****   }
 831:Core/Src/app_uart_handlers.c **** 
ARM GAS  /tmp/cc1v4A75.s 			page 59


 832:Core/Src/app_uart_handlers.c ****   APP_Menu_RefreshCurrent();
 2245              		.loc 1 832 3 is_stmt 1 view .LVU664
 2246 0070 FFF7FEFF 		bl	APP_Menu_RefreshCurrent
 2247              	.LVL246:
 2248              	.L161:
 833:Core/Src/app_uart_handlers.c **** }
 2249              		.loc 1 833 1 is_stmt 0 view .LVU665
 2250 0074 38BD     		pop	{r3, r4, r5, pc}
 2251              	.LVL247:
 2252              	.L180:
 776:Core/Src/app_uart_handlers.c ****   }
 2253              		.loc 1 776 5 is_stmt 1 view .LVU666
 776:Core/Src/app_uart_handlers.c ****   }
 2254              		.loc 1 776 11 is_stmt 0 view .LVU667
 2255 0076 6978     		ldrb	r1, [r5, #1]	@ zero_extendqisi2
 2256 0078 6520     		movs	r0, #101
 2257 007a FFF7FEFF 		bl	APP_ParamDict_SetValueUnsafe
 2258              	.LVL248:
 2259 007e D2E7     		b	.L164
 2260              	.L181:
 2261              	.LBB18:
 780:Core/Src/app_uart_handlers.c ****                   ((uint32_t)payload[3] << 16) |
 2262              		.loc 1 780 5 is_stmt 1 view .LVU668
 780:Core/Src/app_uart_handlers.c ****                   ((uint32_t)payload[3] << 16) |
 2263              		.loc 1 780 37 is_stmt 0 view .LVU669
 2264 0080 A978     		ldrb	r1, [r5, #2]	@ zero_extendqisi2
 781:Core/Src/app_uart_handlers.c ****                   ((uint32_t)payload[4] << 8) |
 2265              		.loc 1 781 37 view .LVU670
 2266 0082 EB78     		ldrb	r3, [r5, #3]	@ zero_extendqisi2
 781:Core/Src/app_uart_handlers.c ****                   ((uint32_t)payload[4] << 8) |
 2267              		.loc 1 781 41 view .LVU671
 2268 0084 1B04     		lsls	r3, r3, #16
 780:Core/Src/app_uart_handlers.c ****                   ((uint32_t)payload[3] << 16) |
 2269              		.loc 1 780 48 view .LVU672
 2270 0086 43EA0163 		orr	r3, r3, r1, lsl #24
 782:Core/Src/app_uart_handlers.c ****                   ((uint32_t)payload[5]);
 2271              		.loc 1 782 37 view .LVU673
 2272 008a 2979     		ldrb	r1, [r5, #4]	@ zero_extendqisi2
 781:Core/Src/app_uart_handlers.c ****                   ((uint32_t)payload[4] << 8) |
 2273              		.loc 1 781 48 view .LVU674
 2274 008c 43EA0123 		orr	r3, r3, r1, lsl #8
 783:Core/Src/app_uart_handlers.c ****     (void)APP_ParamDict_SetValueUnsafe(PARAM_ID_DETAIL_IP, (int32_t)ip);
 2275              		.loc 1 783 37 view .LVU675
 2276 0090 6979     		ldrb	r1, [r5, #5]	@ zero_extendqisi2
 2277              	.LVL249:
 784:Core/Src/app_uart_handlers.c ****   }
 2278              		.loc 1 784 5 is_stmt 1 view .LVU676
 784:Core/Src/app_uart_handlers.c ****   }
 2279              		.loc 1 784 11 is_stmt 0 view .LVU677
 2280 0092 1943     		orrs	r1, r1, r3
 2281              	.LVL250:
 784:Core/Src/app_uart_handlers.c ****   }
 2282              		.loc 1 784 11 view .LVU678
 2283 0094 6620     		movs	r0, #102
 2284 0096 FFF7FEFF 		bl	APP_ParamDict_SetValueUnsafe
 2285              	.LVL251:
 784:Core/Src/app_uart_handlers.c ****   }
ARM GAS  /tmp/cc1v4A75.s 			page 60


 2286              		.loc 1 784 11 view .LVU679
 2287 009a C6E7     		b	.L165
 2288              	.L182:
 784:Core/Src/app_uart_handlers.c ****   }
 2289              		.loc 1 784 11 view .LVU680
 2290              	.LBE18:
 788:Core/Src/app_uart_handlers.c ****   }
 2291              		.loc 1 788 5 is_stmt 1 view .LVU681
 788:Core/Src/app_uart_handlers.c ****   }
 2292              		.loc 1 788 11 is_stmt 0 view .LVU682
 2293 009c A979     		ldrb	r1, [r5, #6]	@ zero_extendqisi2
 2294 009e 6720     		movs	r0, #103
 2295 00a0 FFF7FEFF 		bl	APP_ParamDict_SetValueUnsafe
 2296              	.LVL252:
 2297 00a4 C3E7     		b	.L166
 2298              	.L183:
 804:Core/Src/app_uart_handlers.c ****   }
 2299              		.loc 1 804 5 is_stmt 1 view .LVU683
 804:Core/Src/app_uart_handlers.c ****   }
 2300              		.loc 1 804 11 is_stmt 0 view .LVU684
 2301 00a6 E97A     		ldrb	r1, [r5, #11]	@ zero_extendqisi2
 2302 00a8 6920     		movs	r0, #105
 2303 00aa FFF7FEFF 		bl	APP_ParamDict_SetValueUnsafe
 2304              	.LVL253:
 2305 00ae D0E7     		b	.L169
 2306              	.L184:
 808:Core/Src/app_uart_handlers.c ****   }
 2307              		.loc 1 808 5 is_stmt 1 view .LVU685
 808:Core/Src/app_uart_handlers.c ****   }
 2308              		.loc 1 808 11 is_stmt 0 view .LVU686
 2309 00b0 297B     		ldrb	r1, [r5, #12]	@ zero_extendqisi2
 2310 00b2 6A20     		movs	r0, #106
 2311 00b4 FFF7FEFF 		bl	APP_ParamDict_SetValueUnsafe
 2312              	.LVL254:
 2313 00b8 CDE7     		b	.L170
 2314              	.L185:
 812:Core/Src/app_uart_handlers.c ****   }
 2315              		.loc 1 812 5 is_stmt 1 view .LVU687
 812:Core/Src/app_uart_handlers.c ****   }
 2316              		.loc 1 812 11 is_stmt 0 view .LVU688
 2317 00ba 697B     		ldrb	r1, [r5, #13]	@ zero_extendqisi2
 2318 00bc 6B20     		movs	r0, #107
 2319 00be FFF7FEFF 		bl	APP_ParamDict_SetValueUnsafe
 2320              	.LVL255:
 2321 00c2 CAE7     		b	.L171
 2322              	.L186:
 816:Core/Src/app_uart_handlers.c ****   }
 2323              		.loc 1 816 5 is_stmt 1 view .LVU689
 816:Core/Src/app_uart_handlers.c ****   }
 2324              		.loc 1 816 11 is_stmt 0 view .LVU690
 2325 00c4 A97B     		ldrb	r1, [r5, #14]	@ zero_extendqisi2
 2326 00c6 6C20     		movs	r0, #108
 2327 00c8 FFF7FEFF 		bl	APP_ParamDict_SetValueUnsafe
 2328              	.LVL256:
 2329 00cc C7E7     		b	.L172
 2330              	.L187:
 820:Core/Src/app_uart_handlers.c ****   }
ARM GAS  /tmp/cc1v4A75.s 			page 61


 2331              		.loc 1 820 5 is_stmt 1 view .LVU691
 820:Core/Src/app_uart_handlers.c ****   }
 2332              		.loc 1 820 11 is_stmt 0 view .LVU692
 2333 00ce E97B     		ldrb	r1, [r5, #15]	@ zero_extendqisi2
 2334 00d0 6D20     		movs	r0, #109
 2335 00d2 FFF7FEFF 		bl	APP_ParamDict_SetValueUnsafe
 2336              	.LVL257:
 2337 00d6 C4E7     		b	.L173
 2338              	.L188:
 824:Core/Src/app_uart_handlers.c ****   }
 2339              		.loc 1 824 5 is_stmt 1 view .LVU693
 824:Core/Src/app_uart_handlers.c ****   }
 2340              		.loc 1 824 11 is_stmt 0 view .LVU694
 2341 00d8 297C     		ldrb	r1, [r5, #16]	@ zero_extendqisi2
 2342 00da 6E20     		movs	r0, #110
 2343 00dc FFF7FEFF 		bl	APP_ParamDict_SetValueUnsafe
 2344              	.LVL258:
 2345 00e0 C1E7     		b	.L174
 2346              	.LVL259:
 2347              	.L177:
 2348              	.LCFI24:
 2349              		.cfi_def_cfa_offset 0
 2350              		.cfi_restore 3
 2351              		.cfi_restore 4
 2352              		.cfi_restore 5
 2353              		.cfi_restore 14
 824:Core/Src/app_uart_handlers.c ****   }
 2354              		.loc 1 824 11 view .LVU695
 2355 00e2 7047     		bx	lr
 2356              	.L190:
 2357              		.align	2
 2358              	.L189:
 2359 00e4 00000000 		.word	gParamMutexHandle
 2360 00e8 C0C62D00 		.word	3000000
 2361 00ec D34D6210 		.word	274877907
 2362              		.cfi_endproc
 2363              	.LFE22:
 2365              		.section	.text.handle_cmd_0x04,"ax",%progbits
 2366              		.align	1
 2367              		.syntax unified
 2368              		.thumb
 2369              		.thumb_func
 2370              		.fpu softvfp
 2372              	handle_cmd_0x04:
 2373              	.LVL260:
 2374              	.LFB23:
 834:Core/Src/app_uart_handlers.c **** 
 835:Core/Src/app_uart_handlers.c **** static void handle_cmd_0x04(const uint8_t *payload, uint16_t payloadLen)
 836:Core/Src/app_uart_handlers.c **** {
 2375              		.loc 1 836 1 is_stmt 1 view -0
 2376              		.cfi_startproc
 2377              		@ args = 0, pretend = 0, frame = 0
 2378              		@ frame_needed = 0, uses_anonymous_args = 0
 837:Core/Src/app_uart_handlers.c ****   bool protectAdapt;
 2379              		.loc 1 837 3 view .LVU697
 838:Core/Src/app_uart_handlers.c **** 
 839:Core/Src/app_uart_handlers.c ****   /* 0x04 payload（兼容两种长度）：
ARM GAS  /tmp/cc1v4A75.s 			page 62


 840:Core/Src/app_uart_handlers.c ****    * [0]      work mode
 841:Core/Src/app_uart_handlers.c ****    * [1]      spatial filter
 842:Core/Src/app_uart_handlers.c ****    * [2]      sync mode
 843:Core/Src/app_uart_handlers.c ****    * [3]      routing protocol
 844:Core/Src/app_uart_handlers.c ****    * [4]      access protocol
 845:Core/Src/app_uart_handlers.c ****    * [5]      hop mode
 846:Core/Src/app_uart_handlers.c ****    * 可选通道1参数扩展：
 847:Core/Src/app_uart_handlers.c ****    * [6..9]   fixed freq   (u32, little-endian)
 848:Core/Src/app_uart_handlers.c ****    * [10..13] adapt freq1  (u32, little-endian)
 849:Core/Src/app_uart_handlers.c ****    * [14..17] adapt freq2  (u32, little-endian)
 850:Core/Src/app_uart_handlers.c ****    * [18..21] adapt freq3  (u32, little-endian)
 851:Core/Src/app_uart_handlers.c ****    * [22..25] adapt freq4  (u32, little-endian)
 852:Core/Src/app_uart_handlers.c ****    * [26]     signal bandwidth
 853:Core/Src/app_uart_handlers.c ****    * [27]     waveform/mcs
 854:Core/Src/app_uart_handlers.c ****    * [28]     tx power
 855:Core/Src/app_uart_handlers.c ****    * [29]     tx attenuation
 856:Core/Src/app_uart_handlers.c ****    */
 857:Core/Src/app_uart_handlers.c ****   if ((payload == NULL) || (payloadLen < 6u))
 2380              		.loc 1 857 3 view .LVU698
 2381              		.loc 1 857 6 is_stmt 0 view .LVU699
 2382 0000 0028     		cmp	r0, #0
 2383 0002 00F09B80 		beq	.L207
 836:Core/Src/app_uart_handlers.c ****   bool protectAdapt;
 2384              		.loc 1 836 1 discriminator 1 view .LVU700
 2385 0006 2DE9F041 		push	{r4, r5, r6, r7, r8, lr}
 2386              	.LCFI25:
 2387              		.cfi_def_cfa_offset 24
 2388              		.cfi_offset 4, -24
 2389              		.cfi_offset 5, -20
 2390              		.cfi_offset 6, -16
 2391              		.cfi_offset 7, -12
 2392              		.cfi_offset 8, -8
 2393              		.cfi_offset 14, -4
 2394 000a 0C46     		mov	r4, r1
 2395 000c 0546     		mov	r5, r0
 2396              		.loc 1 857 25 discriminator 1 view .LVU701
 2397 000e 0529     		cmp	r1, #5
 2398 0010 45D9     		bls	.L191
 858:Core/Src/app_uart_handlers.c ****   {
 859:Core/Src/app_uart_handlers.c ****     return;
 860:Core/Src/app_uart_handlers.c ****   }
 861:Core/Src/app_uart_handlers.c **** 
 862:Core/Src/app_uart_handlers.c ****   if (gParamMutexHandle != NULL)
 2399              		.loc 1 862 3 is_stmt 1 view .LVU702
 2400              		.loc 1 862 25 is_stmt 0 view .LVU703
 2401 0012 4B4B     		ldr	r3, .L219
 2402 0014 1868     		ldr	r0, [r3]
 2403              	.LVL261:
 2404              		.loc 1 862 6 view .LVU704
 2405 0016 18B1     		cbz	r0, .L193
 863:Core/Src/app_uart_handlers.c ****   {
 864:Core/Src/app_uart_handlers.c ****     (void)osMutexAcquire(gParamMutexHandle, osWaitForever);
 2406              		.loc 1 864 5 is_stmt 1 view .LVU705
 2407              		.loc 1 864 11 is_stmt 0 view .LVU706
 2408 0018 4FF0FF31 		mov	r1, #-1
 2409              	.LVL262:
 2410              		.loc 1 864 11 view .LVU707
ARM GAS  /tmp/cc1v4A75.s 			page 63


 2411 001c FFF7FEFF 		bl	osMutexAcquire
 2412              	.LVL263:
 2413              	.L193:
 865:Core/Src/app_uart_handlers.c ****   }
 866:Core/Src/app_uart_handlers.c **** 
 867:Core/Src/app_uart_handlers.c ****   protectAdapt = (APP_Menu_IsAdaptHopProtectActive() != 0u);
 2414              		.loc 1 867 3 is_stmt 1 view .LVU708
 2415              		.loc 1 867 19 is_stmt 0 view .LVU709
 2416 0020 FFF7FEFF 		bl	APP_Menu_IsAdaptHopProtectActive
 2417              	.LVL264:
 2418              		.loc 1 867 16 view .LVU710
 2419 0024 0746     		mov	r7, r0
 2420 0026 061E     		subs	r6, r0, #0
 2421 0028 18BF     		it	ne
 2422 002a 0126     		movne	r6, #1
 2423              	.LVL265:
 868:Core/Src/app_uart_handlers.c **** 
 869:Core/Src/app_uart_handlers.c ****   (void)APP_ParamDict_SetValueUnsafe(PARAM_ID_WORK_MODE, (int32_t)payload[0]);
 2424              		.loc 1 869 3 is_stmt 1 view .LVU711
 2425              		.loc 1 869 9 is_stmt 0 view .LVU712
 2426 002c 2978     		ldrb	r1, [r5]	@ zero_extendqisi2
 2427 002e 0120     		movs	r0, #1
 2428 0030 FFF7FEFF 		bl	APP_ParamDict_SetValueUnsafe
 2429              	.LVL266:
 870:Core/Src/app_uart_handlers.c ****   (void)APP_ParamDict_SetValueUnsafe(PARAM_ID_SPATIAL_FILTER, (int32_t)payload[1]);
 2430              		.loc 1 870 3 is_stmt 1 view .LVU713
 2431              		.loc 1 870 9 is_stmt 0 view .LVU714
 2432 0034 6978     		ldrb	r1, [r5, #1]	@ zero_extendqisi2
 2433 0036 4820     		movs	r0, #72
 2434 0038 FFF7FEFF 		bl	APP_ParamDict_SetValueUnsafe
 2435              	.LVL267:
 871:Core/Src/app_uart_handlers.c ****   (void)APP_ParamDict_SetValueUnsafe(PARAM_ID_SYNC_MODE, (int32_t)payload[2]);
 2436              		.loc 1 871 3 is_stmt 1 view .LVU715
 2437              		.loc 1 871 9 is_stmt 0 view .LVU716
 2438 003c A978     		ldrb	r1, [r5, #2]	@ zero_extendqisi2
 2439 003e 4920     		movs	r0, #73
 2440 0040 FFF7FEFF 		bl	APP_ParamDict_SetValueUnsafe
 2441              	.LVL268:
 872:Core/Src/app_uart_handlers.c ****   (void)APP_ParamDict_SetValueUnsafe(PARAM_ID_ROUTING_PROTOCOL, (int32_t)payload[3]);
 2442              		.loc 1 872 3 is_stmt 1 view .LVU717
 2443              		.loc 1 872 9 is_stmt 0 view .LVU718
 2444 0044 E978     		ldrb	r1, [r5, #3]	@ zero_extendqisi2
 2445 0046 0A20     		movs	r0, #10
 2446 0048 FFF7FEFF 		bl	APP_ParamDict_SetValueUnsafe
 2447              	.LVL269:
 873:Core/Src/app_uart_handlers.c ****   (void)APP_ParamDict_SetValueUnsafe(PARAM_ID_ACCESS_PROTOCOL, (int32_t)payload[4]);
 2448              		.loc 1 873 3 is_stmt 1 view .LVU719
 2449              		.loc 1 873 9 is_stmt 0 view .LVU720
 2450 004c 2979     		ldrb	r1, [r5, #4]	@ zero_extendqisi2
 2451 004e 0B20     		movs	r0, #11
 2452 0050 FFF7FEFF 		bl	APP_ParamDict_SetValueUnsafe
 2453              	.LVL270:
 2454              	.LBB19:
 874:Core/Src/app_uart_handlers.c ****   {
 875:Core/Src/app_uart_handlers.c ****     uint8_t reportedHop = payload[5];
 2455              		.loc 1 875 5 is_stmt 1 view .LVU721
 2456              		.loc 1 875 13 is_stmt 0 view .LVU722
ARM GAS  /tmp/cc1v4A75.s 			page 64


 2457 0054 95F80580 		ldrb	r8, [r5, #5]	@ zero_extendqisi2
 2458              	.LVL271:
 876:Core/Src/app_uart_handlers.c ****     if ((!protectAdapt) || (reportedHop == 1u))
 2459              		.loc 1 876 5 is_stmt 1 view .LVU723
 2460              		.loc 1 876 8 is_stmt 0 view .LVU724
 2461 0058 1FB3     		cbz	r7, .L194
 2462              		.loc 1 876 25 discriminator 1 view .LVU725
 2463 005a B8F1010F 		cmp	r8, #1
 2464 005e 20D0     		beq	.L194
 2465              	.LVL272:
 2466              	.L195:
 2467              		.loc 1 876 25 discriminator 1 view .LVU726
 2468              	.LBE19:
 877:Core/Src/app_uart_handlers.c ****     {
 878:Core/Src/app_uart_handlers.c ****       (void)APP_ParamDict_SetValueUnsafe(PARAM_ID_FREQ_HOP_MODE, (int32_t)reportedHop);
 879:Core/Src/app_uart_handlers.c ****       if (protectAdapt && (reportedHop == 1u))
 880:Core/Src/app_uart_handlers.c ****       {
 881:Core/Src/app_uart_handlers.c ****         APP_Menu_ClearAdaptHopProtect();
 882:Core/Src/app_uart_handlers.c ****         protectAdapt = false;
 883:Core/Src/app_uart_handlers.c ****       }
 884:Core/Src/app_uart_handlers.c ****     }
 885:Core/Src/app_uart_handlers.c ****   }
 886:Core/Src/app_uart_handlers.c **** 
 887:Core/Src/app_uart_handlers.c ****   if (payloadLen >= 10u)
 2469              		.loc 1 887 3 is_stmt 1 view .LVU727
 2470              		.loc 1 887 6 is_stmt 0 view .LVU728
 2471 0060 092C     		cmp	r4, #9
 2472 0062 2BD8     		bhi	.L210
 2473              	.L196:
 888:Core/Src/app_uart_handlers.c ****   {
 889:Core/Src/app_uart_handlers.c ****     (void)APP_ParamDict_SetValueUnsafe(PARAM_ID_FIXED_FREQ, (int32_t)read_le_u32(&payload[6]));
 890:Core/Src/app_uart_handlers.c ****   }
 891:Core/Src/app_uart_handlers.c ****   if ((payloadLen >= 14u) && (!protectAdapt))
 2474              		.loc 1 891 3 is_stmt 1 view .LVU729
 2475              		.loc 1 891 6 is_stmt 0 view .LVU730
 2476 0064 0D2C     		cmp	r4, #13
 2477 0066 00D9     		bls	.L197
 2478              		.loc 1 891 27 discriminator 1 view .LVU731
 2479 0068 86B3     		cbz	r6, .L211
 2480              	.L197:
 892:Core/Src/app_uart_handlers.c ****   {
 893:Core/Src/app_uart_handlers.c ****     (void)APP_ParamDict_SetValueUnsafe(PARAM_ID_ADAPT_FREQ1, (int32_t)read_le_u32(&payload[10]));
 894:Core/Src/app_uart_handlers.c ****   }
 895:Core/Src/app_uart_handlers.c ****   if ((payloadLen >= 18u) && (!protectAdapt))
 2481              		.loc 1 895 3 is_stmt 1 view .LVU732
 2482              		.loc 1 895 6 is_stmt 0 view .LVU733
 2483 006a 112C     		cmp	r4, #17
 2484 006c 00D9     		bls	.L198
 2485              		.loc 1 895 27 discriminator 1 view .LVU734
 2486 006e B6B3     		cbz	r6, .L212
 2487              	.L198:
 896:Core/Src/app_uart_handlers.c ****   {
 897:Core/Src/app_uart_handlers.c ****     (void)APP_ParamDict_SetValueUnsafe(PARAM_ID_ADAPT_FREQ2, (int32_t)read_le_u32(&payload[14]));
 898:Core/Src/app_uart_handlers.c ****   }
 899:Core/Src/app_uart_handlers.c ****   if ((payloadLen >= 22u) && (!protectAdapt))
 2488              		.loc 1 899 3 is_stmt 1 view .LVU735
 2489              		.loc 1 899 6 is_stmt 0 view .LVU736
ARM GAS  /tmp/cc1v4A75.s 			page 65


 2490 0070 152C     		cmp	r4, #21
 2491 0072 01D9     		bls	.L199
 2492              		.loc 1 899 27 discriminator 1 view .LVU737
 2493 0074 002E     		cmp	r6, #0
 2494 0076 3BD0     		beq	.L213
 2495              	.L199:
 900:Core/Src/app_uart_handlers.c ****   {
 901:Core/Src/app_uart_handlers.c ****     (void)APP_ParamDict_SetValueUnsafe(PARAM_ID_ADAPT_FREQ3, (int32_t)read_le_u32(&payload[18]));
 902:Core/Src/app_uart_handlers.c ****   }
 903:Core/Src/app_uart_handlers.c ****   if ((payloadLen >= 26u) && (!protectAdapt))
 2496              		.loc 1 903 3 is_stmt 1 view .LVU738
 2497              		.loc 1 903 6 is_stmt 0 view .LVU739
 2498 0078 192C     		cmp	r4, #25
 2499 007a 01D9     		bls	.L200
 2500              		.loc 1 903 27 discriminator 1 view .LVU740
 2501 007c 002E     		cmp	r6, #0
 2502 007e 40D0     		beq	.L214
 2503              	.L200:
 904:Core/Src/app_uart_handlers.c ****   {
 905:Core/Src/app_uart_handlers.c ****     (void)APP_ParamDict_SetValueUnsafe(PARAM_ID_ADAPT_FREQ4, (int32_t)read_le_u32(&payload[22]));
 906:Core/Src/app_uart_handlers.c ****   }
 907:Core/Src/app_uart_handlers.c ****   if (payloadLen >= 27u)
 2504              		.loc 1 907 3 is_stmt 1 view .LVU741
 2505              		.loc 1 907 6 is_stmt 0 view .LVU742
 2506 0080 1A2C     		cmp	r4, #26
 2507 0082 47D8     		bhi	.L215
 2508              	.L201:
 908:Core/Src/app_uart_handlers.c ****   {
 909:Core/Src/app_uart_handlers.c ****     (void)APP_ParamDict_SetValueUnsafe(PARAM_ID_SIGNAL_BANDWIDTH, (int32_t)payload[26]);
 910:Core/Src/app_uart_handlers.c ****   }
 911:Core/Src/app_uart_handlers.c ****   if (payloadLen >= 28u)
 2509              		.loc 1 911 3 is_stmt 1 view .LVU743
 2510              		.loc 1 911 6 is_stmt 0 view .LVU744
 2511 0084 1B2C     		cmp	r4, #27
 2512 0086 4AD8     		bhi	.L216
 2513              	.L202:
 912:Core/Src/app_uart_handlers.c ****   {
 913:Core/Src/app_uart_handlers.c ****     (void)APP_ParamDict_SetValueUnsafe(PARAM_ID_WAVEFORM_GEAR, (int32_t)payload[27]);
 914:Core/Src/app_uart_handlers.c ****   }
 915:Core/Src/app_uart_handlers.c ****   if (payloadLen >= 29u)
 2514              		.loc 1 915 3 is_stmt 1 view .LVU745
 2515              		.loc 1 915 6 is_stmt 0 view .LVU746
 2516 0088 1C2C     		cmp	r4, #28
 2517 008a 4DD8     		bhi	.L217
 2518              	.L203:
 916:Core/Src/app_uart_handlers.c ****   {
 917:Core/Src/app_uart_handlers.c ****     (void)APP_ParamDict_SetValueUnsafe(PARAM_ID_TX_POWER, (int32_t)payload[28]);
 918:Core/Src/app_uart_handlers.c ****   }
 919:Core/Src/app_uart_handlers.c ****   if (payloadLen >= 30u)
 2519              		.loc 1 919 3 is_stmt 1 view .LVU747
 2520              		.loc 1 919 6 is_stmt 0 view .LVU748
 2521 008c 1D2C     		cmp	r4, #29
 2522 008e 50D8     		bhi	.L218
 2523              	.L204:
 920:Core/Src/app_uart_handlers.c ****   {
 921:Core/Src/app_uart_handlers.c ****     (void)APP_ParamDict_SetValueUnsafe(PARAM_ID_TX_POWER_ATTEN, (int32_t)payload[29]);
 922:Core/Src/app_uart_handlers.c ****   }
ARM GAS  /tmp/cc1v4A75.s 			page 66


 923:Core/Src/app_uart_handlers.c **** 
 924:Core/Src/app_uart_handlers.c ****   if (gParamMutexHandle != NULL)
 2524              		.loc 1 924 3 is_stmt 1 view .LVU749
 2525              		.loc 1 924 25 is_stmt 0 view .LVU750
 2526 0090 2B4B     		ldr	r3, .L219
 2527 0092 1868     		ldr	r0, [r3]
 2528              		.loc 1 924 6 view .LVU751
 2529 0094 08B1     		cbz	r0, .L205
 925:Core/Src/app_uart_handlers.c ****   {
 926:Core/Src/app_uart_handlers.c ****     (void)osMutexRelease(gParamMutexHandle);
 2530              		.loc 1 926 5 is_stmt 1 view .LVU752
 2531              		.loc 1 926 11 is_stmt 0 view .LVU753
 2532 0096 FFF7FEFF 		bl	osMutexRelease
 2533              	.LVL273:
 2534              	.L205:
 927:Core/Src/app_uart_handlers.c ****   }
 928:Core/Src/app_uart_handlers.c **** 
 929:Core/Src/app_uart_handlers.c ****   APP_Menu_RefreshCurrent();
 2535              		.loc 1 929 3 is_stmt 1 view .LVU754
 2536 009a FFF7FEFF 		bl	APP_Menu_RefreshCurrent
 2537              	.LVL274:
 2538              	.L191:
 930:Core/Src/app_uart_handlers.c **** }
 2539              		.loc 1 930 1 is_stmt 0 view .LVU755
 2540 009e BDE8F081 		pop	{r4, r5, r6, r7, r8, pc}
 2541              	.LVL275:
 2542              	.L194:
 2543              	.LBB20:
 878:Core/Src/app_uart_handlers.c ****       if (protectAdapt && (reportedHop == 1u))
 2544              		.loc 1 878 7 is_stmt 1 view .LVU756
 878:Core/Src/app_uart_handlers.c ****       if (protectAdapt && (reportedHop == 1u))
 2545              		.loc 1 878 13 is_stmt 0 view .LVU757
 2546 00a2 4146     		mov	r1, r8
 2547 00a4 4220     		movs	r0, #66
 2548 00a6 FFF7FEFF 		bl	APP_ParamDict_SetValueUnsafe
 2549              	.LVL276:
 879:Core/Src/app_uart_handlers.c ****       {
 2550              		.loc 1 879 7 is_stmt 1 view .LVU758
 879:Core/Src/app_uart_handlers.c ****       {
 2551              		.loc 1 879 10 is_stmt 0 view .LVU759
 2552 00aa 002F     		cmp	r7, #0
 2553 00ac D8D0     		beq	.L195
 879:Core/Src/app_uart_handlers.c ****       {
 2554              		.loc 1 879 24 discriminator 1 view .LVU760
 2555 00ae B8F1010F 		cmp	r8, #1
 2556 00b2 D5D1     		bne	.L195
 881:Core/Src/app_uart_handlers.c ****         protectAdapt = false;
 2557              		.loc 1 881 9 is_stmt 1 view .LVU761
 2558 00b4 FFF7FEFF 		bl	APP_Menu_ClearAdaptHopProtect
 2559              	.LVL277:
 882:Core/Src/app_uart_handlers.c ****       }
 2560              		.loc 1 882 9 view .LVU762
 882:Core/Src/app_uart_handlers.c ****       }
 2561              		.loc 1 882 22 is_stmt 0 view .LVU763
 2562 00b8 0026     		movs	r6, #0
 2563 00ba D1E7     		b	.L195
 2564              	.LVL278:
ARM GAS  /tmp/cc1v4A75.s 			page 67


 2565              	.L210:
 882:Core/Src/app_uart_handlers.c ****       }
 2566              		.loc 1 882 22 view .LVU764
 2567              	.LBE20:
 889:Core/Src/app_uart_handlers.c ****   }
 2568              		.loc 1 889 5 is_stmt 1 view .LVU765
 889:Core/Src/app_uart_handlers.c ****   }
 2569              		.loc 1 889 70 is_stmt 0 view .LVU766
 2570 00bc A81D     		adds	r0, r5, #6
 2571 00be FFF7FEFF 		bl	read_le_u32
 2572              	.LVL279:
 2573 00c2 0146     		mov	r1, r0
 889:Core/Src/app_uart_handlers.c ****   }
 2574              		.loc 1 889 11 view .LVU767
 2575 00c4 4320     		movs	r0, #67
 2576 00c6 FFF7FEFF 		bl	APP_ParamDict_SetValueUnsafe
 2577              	.LVL280:
 2578 00ca CBE7     		b	.L196
 2579              	.L211:
 893:Core/Src/app_uart_handlers.c ****   }
 2580              		.loc 1 893 5 is_stmt 1 view .LVU768
 893:Core/Src/app_uart_handlers.c ****   }
 2581              		.loc 1 893 71 is_stmt 0 view .LVU769
 2582 00cc 05F10A00 		add	r0, r5, #10
 2583 00d0 FFF7FEFF 		bl	read_le_u32
 2584              	.LVL281:
 2585 00d4 0146     		mov	r1, r0
 893:Core/Src/app_uart_handlers.c ****   }
 2586              		.loc 1 893 11 view .LVU770
 2587 00d6 4420     		movs	r0, #68
 2588 00d8 FFF7FEFF 		bl	APP_ParamDict_SetValueUnsafe
 2589              	.LVL282:
 2590 00dc C5E7     		b	.L197
 2591              	.L212:
 897:Core/Src/app_uart_handlers.c ****   }
 2592              		.loc 1 897 5 is_stmt 1 view .LVU771
 897:Core/Src/app_uart_handlers.c ****   }
 2593              		.loc 1 897 71 is_stmt 0 view .LVU772
 2594 00de 05F10E00 		add	r0, r5, #14
 2595 00e2 FFF7FEFF 		bl	read_le_u32
 2596              	.LVL283:
 2597 00e6 0146     		mov	r1, r0
 897:Core/Src/app_uart_handlers.c ****   }
 2598              		.loc 1 897 11 view .LVU773
 2599 00e8 4520     		movs	r0, #69
 2600 00ea FFF7FEFF 		bl	APP_ParamDict_SetValueUnsafe
 2601              	.LVL284:
 2602 00ee BFE7     		b	.L198
 2603              	.L213:
 901:Core/Src/app_uart_handlers.c ****   }
 2604              		.loc 1 901 5 is_stmt 1 view .LVU774
 901:Core/Src/app_uart_handlers.c ****   }
 2605              		.loc 1 901 71 is_stmt 0 view .LVU775
 2606 00f0 05F11200 		add	r0, r5, #18
 2607 00f4 FFF7FEFF 		bl	read_le_u32
 2608              	.LVL285:
 2609 00f8 0146     		mov	r1, r0
ARM GAS  /tmp/cc1v4A75.s 			page 68


 901:Core/Src/app_uart_handlers.c ****   }
 2610              		.loc 1 901 11 view .LVU776
 2611 00fa 4620     		movs	r0, #70
 2612 00fc FFF7FEFF 		bl	APP_ParamDict_SetValueUnsafe
 2613              	.LVL286:
 2614 0100 BAE7     		b	.L199
 2615              	.L214:
 905:Core/Src/app_uart_handlers.c ****   }
 2616              		.loc 1 905 5 is_stmt 1 view .LVU777
 905:Core/Src/app_uart_handlers.c ****   }
 2617              		.loc 1 905 71 is_stmt 0 view .LVU778
 2618 0102 05F11600 		add	r0, r5, #22
 2619 0106 FFF7FEFF 		bl	read_le_u32
 2620              	.LVL287:
 2621 010a 0146     		mov	r1, r0
 905:Core/Src/app_uart_handlers.c ****   }
 2622              		.loc 1 905 11 view .LVU779
 2623 010c 4720     		movs	r0, #71
 2624 010e FFF7FEFF 		bl	APP_ParamDict_SetValueUnsafe
 2625              	.LVL288:
 2626 0112 B5E7     		b	.L200
 2627              	.L215:
 909:Core/Src/app_uart_handlers.c ****   }
 2628              		.loc 1 909 5 is_stmt 1 view .LVU780
 909:Core/Src/app_uart_handlers.c ****   }
 2629              		.loc 1 909 11 is_stmt 0 view .LVU781
 2630 0114 A97E     		ldrb	r1, [r5, #26]	@ zero_extendqisi2
 2631 0116 4120     		movs	r0, #65
 2632 0118 FFF7FEFF 		bl	APP_ParamDict_SetValueUnsafe
 2633              	.LVL289:
 2634 011c B2E7     		b	.L201
 2635              	.L216:
 913:Core/Src/app_uart_handlers.c ****   }
 2636              		.loc 1 913 5 is_stmt 1 view .LVU782
 913:Core/Src/app_uart_handlers.c ****   }
 2637              		.loc 1 913 11 is_stmt 0 view .LVU783
 2638 011e E97E     		ldrb	r1, [r5, #27]	@ zero_extendqisi2
 2639 0120 4020     		movs	r0, #64
 2640 0122 FFF7FEFF 		bl	APP_ParamDict_SetValueUnsafe
 2641              	.LVL290:
 2642 0126 AFE7     		b	.L202
 2643              	.L217:
 917:Core/Src/app_uart_handlers.c ****   }
 2644              		.loc 1 917 5 is_stmt 1 view .LVU784
 917:Core/Src/app_uart_handlers.c ****   }
 2645              		.loc 1 917 11 is_stmt 0 view .LVU785
 2646 0128 297F     		ldrb	r1, [r5, #28]	@ zero_extendqisi2
 2647 012a 4A20     		movs	r0, #74
 2648 012c FFF7FEFF 		bl	APP_ParamDict_SetValueUnsafe
 2649              	.LVL291:
 2650 0130 ACE7     		b	.L203
 2651              	.L218:
 921:Core/Src/app_uart_handlers.c ****   }
 2652              		.loc 1 921 5 is_stmt 1 view .LVU786
 921:Core/Src/app_uart_handlers.c ****   }
 2653              		.loc 1 921 11 is_stmt 0 view .LVU787
 2654 0132 697F     		ldrb	r1, [r5, #29]	@ zero_extendqisi2
ARM GAS  /tmp/cc1v4A75.s 			page 69


 2655 0134 4B20     		movs	r0, #75
 2656 0136 FFF7FEFF 		bl	APP_ParamDict_SetValueUnsafe
 2657              	.LVL292:
 2658 013a A9E7     		b	.L204
 2659              	.LVL293:
 2660              	.L207:
 2661              	.LCFI26:
 2662              		.cfi_def_cfa_offset 0
 2663              		.cfi_restore 4
 2664              		.cfi_restore 5
 2665              		.cfi_restore 6
 2666              		.cfi_restore 7
 2667              		.cfi_restore 8
 2668              		.cfi_restore 14
 921:Core/Src/app_uart_handlers.c ****   }
 2669              		.loc 1 921 11 view .LVU788
 2670 013c 7047     		bx	lr
 2671              	.L220:
 2672 013e 00BF     		.align	2
 2673              	.L219:
 2674 0140 00000000 		.word	gParamMutexHandle
 2675              		.cfi_endproc
 2676              	.LFE23:
 2678              		.section	.text.handle_cmd_0x08,"ax",%progbits
 2679              		.align	1
 2680              		.syntax unified
 2681              		.thumb
 2682              		.thumb_func
 2683              		.fpu softvfp
 2685              	handle_cmd_0x08:
 2686              	.LVL294:
 2687              	.LFB17:
 328:Core/Src/app_uart_handlers.c ****   bool protectAdapt;
 2688              		.loc 1 328 1 is_stmt 1 view -0
 2689              		.cfi_startproc
 2690              		@ args = 0, pretend = 0, frame = 0
 2691              		@ frame_needed = 0, uses_anonymous_args = 0
 329:Core/Src/app_uart_handlers.c **** 
 2692              		.loc 1 329 3 view .LVU790
 331:Core/Src/app_uart_handlers.c ****   {
 2693              		.loc 1 331 3 view .LVU791
 331:Core/Src/app_uart_handlers.c ****   {
 2694              		.loc 1 331 6 is_stmt 0 view .LVU792
 2695 0000 0028     		cmp	r0, #0
 2696 0002 00F0B380 		beq	.L242
 328:Core/Src/app_uart_handlers.c ****   bool protectAdapt;
 2697              		.loc 1 328 1 discriminator 1 view .LVU793
 2698 0006 2DE9F041 		push	{r4, r5, r6, r7, r8, lr}
 2699              	.LCFI27:
 2700              		.cfi_def_cfa_offset 24
 2701              		.cfi_offset 4, -24
 2702              		.cfi_offset 5, -20
 2703              		.cfi_offset 6, -16
 2704              		.cfi_offset 7, -12
 2705              		.cfi_offset 8, -8
 2706              		.cfi_offset 14, -4
 2707 000a 0C46     		mov	r4, r1
ARM GAS  /tmp/cc1v4A75.s 			page 70


 2708 000c 0546     		mov	r5, r0
 331:Core/Src/app_uart_handlers.c ****   {
 2709              		.loc 1 331 25 discriminator 1 view .LVU794
 2710 000e 0029     		cmp	r1, #0
 2711 0010 44D0     		beq	.L221
 336:Core/Src/app_uart_handlers.c ****   {
 2712              		.loc 1 336 3 is_stmt 1 view .LVU795
 336:Core/Src/app_uart_handlers.c ****   {
 2713              		.loc 1 336 25 is_stmt 0 view .LVU796
 2714 0012 574B     		ldr	r3, .L259
 2715 0014 1868     		ldr	r0, [r3]
 2716              	.LVL295:
 336:Core/Src/app_uart_handlers.c ****   {
 2717              		.loc 1 336 6 view .LVU797
 2718 0016 18B1     		cbz	r0, .L223
 338:Core/Src/app_uart_handlers.c ****   }
 2719              		.loc 1 338 5 is_stmt 1 view .LVU798
 338:Core/Src/app_uart_handlers.c ****   }
 2720              		.loc 1 338 11 is_stmt 0 view .LVU799
 2721 0018 4FF0FF31 		mov	r1, #-1
 2722              	.LVL296:
 338:Core/Src/app_uart_handlers.c ****   }
 2723              		.loc 1 338 11 view .LVU800
 2724 001c FFF7FEFF 		bl	osMutexAcquire
 2725              	.LVL297:
 2726              	.L223:
 341:Core/Src/app_uart_handlers.c **** 
 2727              		.loc 1 341 3 is_stmt 1 view .LVU801
 341:Core/Src/app_uart_handlers.c **** 
 2728              		.loc 1 341 19 is_stmt 0 view .LVU802
 2729 0020 FFF7FEFF 		bl	APP_Menu_IsAdaptHopProtectActive
 2730              	.LVL298:
 341:Core/Src/app_uart_handlers.c **** 
 2731              		.loc 1 341 16 view .LVU803
 2732 0024 0746     		mov	r7, r0
 2733 0026 061E     		subs	r6, r0, #0
 2734 0028 18BF     		it	ne
 2735 002a 0126     		movne	r6, #1
 2736              	.LVL299:
 343:Core/Src/app_uart_handlers.c ****   {
 2737              		.loc 1 343 3 is_stmt 1 view .LVU804
 345:Core/Src/app_uart_handlers.c ****   }
 2738              		.loc 1 345 5 view .LVU805
 345:Core/Src/app_uart_handlers.c ****   }
 2739              		.loc 1 345 11 is_stmt 0 view .LVU806
 2740 002c 2978     		ldrb	r1, [r5]	@ zero_extendqisi2
 2741 002e 3C20     		movs	r0, #60
 2742 0030 FFF7FEFF 		bl	APP_ParamDict_SetValueUnsafe
 2743              	.LVL300:
 347:Core/Src/app_uart_handlers.c ****   {
 2744              		.loc 1 347 3 is_stmt 1 view .LVU807
 347:Core/Src/app_uart_handlers.c ****   {
 2745              		.loc 1 347 6 is_stmt 0 view .LVU808
 2746 0034 012C     		cmp	r4, #1
 2747 0036 33D8     		bhi	.L245
 2748              	.L224:
 351:Core/Src/app_uart_handlers.c ****   {
ARM GAS  /tmp/cc1v4A75.s 			page 71


 2749              		.loc 1 351 3 is_stmt 1 view .LVU809
 351:Core/Src/app_uart_handlers.c ****   {
 2750              		.loc 1 351 6 is_stmt 0 view .LVU810
 2751 0038 022C     		cmp	r4, #2
 2752 003a 36D8     		bhi	.L246
 2753              	.L225:
 355:Core/Src/app_uart_handlers.c ****   {
 2754              		.loc 1 355 3 is_stmt 1 view .LVU811
 355:Core/Src/app_uart_handlers.c ****   {
 2755              		.loc 1 355 6 is_stmt 0 view .LVU812
 2756 003c 032C     		cmp	r4, #3
 2757 003e 39D8     		bhi	.L247
 2758              	.L226:
 359:Core/Src/app_uart_handlers.c ****   {
 2759              		.loc 1 359 3 is_stmt 1 view .LVU813
 359:Core/Src/app_uart_handlers.c ****   {
 2760              		.loc 1 359 6 is_stmt 0 view .LVU814
 2761 0040 042C     		cmp	r4, #4
 2762 0042 3CD8     		bhi	.L248
 2763              	.L227:
 363:Core/Src/app_uart_handlers.c ****   {
 2764              		.loc 1 363 3 is_stmt 1 view .LVU815
 363:Core/Src/app_uart_handlers.c ****   {
 2765              		.loc 1 363 6 is_stmt 0 view .LVU816
 2766 0044 052C     		cmp	r4, #5
 2767 0046 3FD8     		bhi	.L249
 2768              	.L228:
 367:Core/Src/app_uart_handlers.c ****   {
 2769              		.loc 1 367 3 is_stmt 1 view .LVU817
 367:Core/Src/app_uart_handlers.c ****   {
 2770              		.loc 1 367 6 is_stmt 0 view .LVU818
 2771 0048 062C     		cmp	r4, #6
 2772 004a 06D9     		bls	.L229
 2773              	.LBB21:
 369:Core/Src/app_uart_handlers.c ****     if ((!protectAdapt) || (reportedHop == 1u))
 2774              		.loc 1 369 5 is_stmt 1 view .LVU819
 369:Core/Src/app_uart_handlers.c ****     if ((!protectAdapt) || (reportedHop == 1u))
 2775              		.loc 1 369 13 is_stmt 0 view .LVU820
 2776 004c 95F80680 		ldrb	r8, [r5, #6]	@ zero_extendqisi2
 2777              	.LVL301:
 370:Core/Src/app_uart_handlers.c ****     {
 2778              		.loc 1 370 5 is_stmt 1 view .LVU821
 370:Core/Src/app_uart_handlers.c ****     {
 2779              		.loc 1 370 8 is_stmt 0 view .LVU822
 2780 0050 002F     		cmp	r7, #0
 2781 0052 3ED0     		beq	.L230
 370:Core/Src/app_uart_handlers.c ****     {
 2782              		.loc 1 370 25 discriminator 1 view .LVU823
 2783 0054 B8F1010F 		cmp	r8, #1
 2784 0058 3BD0     		beq	.L230
 2785              	.LVL302:
 2786              	.L229:
 370:Core/Src/app_uart_handlers.c ****     {
 2787              		.loc 1 370 25 discriminator 1 view .LVU824
 2788              	.LBE21:
 380:Core/Src/app_uart_handlers.c ****   {
 2789              		.loc 1 380 3 is_stmt 1 view .LVU825
ARM GAS  /tmp/cc1v4A75.s 			page 72


 380:Core/Src/app_uart_handlers.c ****   {
 2790              		.loc 1 380 6 is_stmt 0 view .LVU826
 2791 005a 0A2C     		cmp	r4, #10
 2792 005c 46D8     		bhi	.L250
 2793              	.L231:
 384:Core/Src/app_uart_handlers.c ****   {
 2794              		.loc 1 384 3 is_stmt 1 view .LVU827
 384:Core/Src/app_uart_handlers.c ****   {
 2795              		.loc 1 384 6 is_stmt 0 view .LVU828
 2796 005e 0E2C     		cmp	r4, #14
 2797 0060 01D9     		bls	.L232
 384:Core/Src/app_uart_handlers.c ****   {
 2798              		.loc 1 384 27 discriminator 1 view .LVU829
 2799 0062 002E     		cmp	r6, #0
 2800 0064 4AD0     		beq	.L251
 2801              	.L232:
 388:Core/Src/app_uart_handlers.c ****   {
 2802              		.loc 1 388 3 is_stmt 1 view .LVU830
 388:Core/Src/app_uart_handlers.c ****   {
 2803              		.loc 1 388 6 is_stmt 0 view .LVU831
 2804 0066 122C     		cmp	r4, #18
 2805 0068 01D9     		bls	.L233
 388:Core/Src/app_uart_handlers.c ****   {
 2806              		.loc 1 388 27 discriminator 1 view .LVU832
 2807 006a 002E     		cmp	r6, #0
 2808 006c 4FD0     		beq	.L252
 2809              	.L233:
 392:Core/Src/app_uart_handlers.c ****   {
 2810              		.loc 1 392 3 is_stmt 1 view .LVU833
 392:Core/Src/app_uart_handlers.c ****   {
 2811              		.loc 1 392 6 is_stmt 0 view .LVU834
 2812 006e 162C     		cmp	r4, #22
 2813 0070 01D9     		bls	.L234
 392:Core/Src/app_uart_handlers.c ****   {
 2814              		.loc 1 392 27 discriminator 1 view .LVU835
 2815 0072 002E     		cmp	r6, #0
 2816 0074 54D0     		beq	.L253
 2817              	.L234:
 396:Core/Src/app_uart_handlers.c ****   {
 2818              		.loc 1 396 3 is_stmt 1 view .LVU836
 396:Core/Src/app_uart_handlers.c ****   {
 2819              		.loc 1 396 6 is_stmt 0 view .LVU837
 2820 0076 1A2C     		cmp	r4, #26
 2821 0078 01D9     		bls	.L235
 396:Core/Src/app_uart_handlers.c ****   {
 2822              		.loc 1 396 27 discriminator 1 view .LVU838
 2823 007a 002E     		cmp	r6, #0
 2824 007c 59D0     		beq	.L254
 2825              	.L235:
 400:Core/Src/app_uart_handlers.c ****   {
 2826              		.loc 1 400 3 is_stmt 1 view .LVU839
 400:Core/Src/app_uart_handlers.c ****   {
 2827              		.loc 1 400 6 is_stmt 0 view .LVU840
 2828 007e 1B2C     		cmp	r4, #27
 2829 0080 60D8     		bhi	.L255
 2830              	.L236:
 404:Core/Src/app_uart_handlers.c ****   {
ARM GAS  /tmp/cc1v4A75.s 			page 73


 2831              		.loc 1 404 3 is_stmt 1 view .LVU841
 404:Core/Src/app_uart_handlers.c ****   {
 2832              		.loc 1 404 6 is_stmt 0 view .LVU842
 2833 0082 1C2C     		cmp	r4, #28
 2834 0084 63D8     		bhi	.L256
 2835              	.L237:
 408:Core/Src/app_uart_handlers.c ****   {
 2836              		.loc 1 408 3 is_stmt 1 view .LVU843
 408:Core/Src/app_uart_handlers.c ****   {
 2837              		.loc 1 408 6 is_stmt 0 view .LVU844
 2838 0086 1D2C     		cmp	r4, #29
 2839 0088 66D8     		bhi	.L257
 2840              	.L238:
 412:Core/Src/app_uart_handlers.c ****   {
 2841              		.loc 1 412 3 is_stmt 1 view .LVU845
 412:Core/Src/app_uart_handlers.c ****   {
 2842              		.loc 1 412 6 is_stmt 0 view .LVU846
 2843 008a 1E2C     		cmp	r4, #30
 2844 008c 69D8     		bhi	.L258
 2845              	.L239:
 417:Core/Src/app_uart_handlers.c ****   {
 2846              		.loc 1 417 3 is_stmt 1 view .LVU847
 417:Core/Src/app_uart_handlers.c ****   {
 2847              		.loc 1 417 25 is_stmt 0 view .LVU848
 2848 008e 384B     		ldr	r3, .L259
 2849 0090 1868     		ldr	r0, [r3]
 417:Core/Src/app_uart_handlers.c ****   {
 2850              		.loc 1 417 6 view .LVU849
 2851 0092 08B1     		cbz	r0, .L240
 419:Core/Src/app_uart_handlers.c ****   }
 2852              		.loc 1 419 5 is_stmt 1 view .LVU850
 419:Core/Src/app_uart_handlers.c ****   }
 2853              		.loc 1 419 11 is_stmt 0 view .LVU851
 2854 0094 FFF7FEFF 		bl	osMutexRelease
 2855              	.LVL303:
 2856              	.L240:
 422:Core/Src/app_uart_handlers.c **** }
 2857              		.loc 1 422 3 is_stmt 1 view .LVU852
 2858 0098 FFF7FEFF 		bl	APP_Menu_RefreshCurrent
 2859              	.LVL304:
 2860              	.L221:
 423:Core/Src/app_uart_handlers.c **** 
 2861              		.loc 1 423 1 is_stmt 0 view .LVU853
 2862 009c BDE8F081 		pop	{r4, r5, r6, r7, r8, pc}
 2863              	.LVL305:
 2864              	.L245:
 349:Core/Src/app_uart_handlers.c ****   }
 2865              		.loc 1 349 5 is_stmt 1 view .LVU854
 349:Core/Src/app_uart_handlers.c ****   }
 2866              		.loc 1 349 11 is_stmt 0 view .LVU855
 2867 00a0 6978     		ldrb	r1, [r5, #1]	@ zero_extendqisi2
 2868 00a2 3D20     		movs	r0, #61
 2869 00a4 FFF7FEFF 		bl	APP_ParamDict_SetValueUnsafe
 2870              	.LVL306:
 2871 00a8 C6E7     		b	.L224
 2872              	.L246:
 353:Core/Src/app_uart_handlers.c ****   }
ARM GAS  /tmp/cc1v4A75.s 			page 74


 2873              		.loc 1 353 5 is_stmt 1 view .LVU856
 353:Core/Src/app_uart_handlers.c ****   }
 2874              		.loc 1 353 11 is_stmt 0 view .LVU857
 2875 00aa A978     		ldrb	r1, [r5, #2]	@ zero_extendqisi2
 2876 00ac 3E20     		movs	r0, #62
 2877 00ae FFF7FEFF 		bl	APP_ParamDict_SetValueUnsafe
 2878              	.LVL307:
 2879 00b2 C3E7     		b	.L225
 2880              	.L247:
 357:Core/Src/app_uart_handlers.c ****   }
 2881              		.loc 1 357 5 is_stmt 1 view .LVU858
 357:Core/Src/app_uart_handlers.c ****   }
 2882              		.loc 1 357 11 is_stmt 0 view .LVU859
 2883 00b4 E978     		ldrb	r1, [r5, #3]	@ zero_extendqisi2
 2884 00b6 3F20     		movs	r0, #63
 2885 00b8 FFF7FEFF 		bl	APP_ParamDict_SetValueUnsafe
 2886              	.LVL308:
 2887 00bc C0E7     		b	.L226
 2888              	.L248:
 361:Core/Src/app_uart_handlers.c ****   }
 2889              		.loc 1 361 5 is_stmt 1 view .LVU860
 361:Core/Src/app_uart_handlers.c ****   }
 2890              		.loc 1 361 11 is_stmt 0 view .LVU861
 2891 00be 2979     		ldrb	r1, [r5, #4]	@ zero_extendqisi2
 2892 00c0 4020     		movs	r0, #64
 2893 00c2 FFF7FEFF 		bl	APP_ParamDict_SetValueUnsafe
 2894              	.LVL309:
 2895 00c6 BDE7     		b	.L227
 2896              	.L249:
 365:Core/Src/app_uart_handlers.c ****   }
 2897              		.loc 1 365 5 is_stmt 1 view .LVU862
 365:Core/Src/app_uart_handlers.c ****   }
 2898              		.loc 1 365 11 is_stmt 0 view .LVU863
 2899 00c8 6979     		ldrb	r1, [r5, #5]	@ zero_extendqisi2
 2900 00ca 4120     		movs	r0, #65
 2901 00cc FFF7FEFF 		bl	APP_ParamDict_SetValueUnsafe
 2902              	.LVL310:
 2903 00d0 BAE7     		b	.L228
 2904              	.LVL311:
 2905              	.L230:
 2906              	.LBB22:
 372:Core/Src/app_uart_handlers.c ****       if (protectAdapt && (reportedHop == 1u))
 2907              		.loc 1 372 7 is_stmt 1 view .LVU864
 372:Core/Src/app_uart_handlers.c ****       if (protectAdapt && (reportedHop == 1u))
 2908              		.loc 1 372 13 is_stmt 0 view .LVU865
 2909 00d2 4146     		mov	r1, r8
 2910 00d4 4220     		movs	r0, #66
 2911 00d6 FFF7FEFF 		bl	APP_ParamDict_SetValueUnsafe
 2912              	.LVL312:
 373:Core/Src/app_uart_handlers.c ****       {
 2913              		.loc 1 373 7 is_stmt 1 view .LVU866
 373:Core/Src/app_uart_handlers.c ****       {
 2914              		.loc 1 373 10 is_stmt 0 view .LVU867
 2915 00da 002F     		cmp	r7, #0
 2916 00dc BDD0     		beq	.L229
 373:Core/Src/app_uart_handlers.c ****       {
 2917              		.loc 1 373 24 discriminator 1 view .LVU868
ARM GAS  /tmp/cc1v4A75.s 			page 75


 2918 00de B8F1010F 		cmp	r8, #1
 2919 00e2 BAD1     		bne	.L229
 375:Core/Src/app_uart_handlers.c ****         protectAdapt = false;
 2920              		.loc 1 375 9 is_stmt 1 view .LVU869
 2921 00e4 FFF7FEFF 		bl	APP_Menu_ClearAdaptHopProtect
 2922              	.LVL313:
 376:Core/Src/app_uart_handlers.c ****       }
 2923              		.loc 1 376 9 view .LVU870
 376:Core/Src/app_uart_handlers.c ****       }
 2924              		.loc 1 376 22 is_stmt 0 view .LVU871
 2925 00e8 0026     		movs	r6, #0
 2926 00ea B6E7     		b	.L229
 2927              	.LVL314:
 2928              	.L250:
 376:Core/Src/app_uart_handlers.c ****       }
 2929              		.loc 1 376 22 view .LVU872
 2930              	.LBE22:
 382:Core/Src/app_uart_handlers.c ****   }
 2931              		.loc 1 382 5 is_stmt 1 view .LVU873
 382:Core/Src/app_uart_handlers.c ****   }
 2932              		.loc 1 382 70 is_stmt 0 view .LVU874
 2933 00ec E81D     		adds	r0, r5, #7
 2934 00ee FFF7FEFF 		bl	read_le_u32
 2935              	.LVL315:
 2936 00f2 0146     		mov	r1, r0
 382:Core/Src/app_uart_handlers.c ****   }
 2937              		.loc 1 382 11 view .LVU875
 2938 00f4 4320     		movs	r0, #67
 2939 00f6 FFF7FEFF 		bl	APP_ParamDict_SetValueUnsafe
 2940              	.LVL316:
 2941 00fa B0E7     		b	.L231
 2942              	.L251:
 386:Core/Src/app_uart_handlers.c ****   }
 2943              		.loc 1 386 5 is_stmt 1 view .LVU876
 386:Core/Src/app_uart_handlers.c ****   }
 2944              		.loc 1 386 71 is_stmt 0 view .LVU877
 2945 00fc 05F10B00 		add	r0, r5, #11
 2946 0100 FFF7FEFF 		bl	read_le_u32
 2947              	.LVL317:
 2948 0104 0146     		mov	r1, r0
 386:Core/Src/app_uart_handlers.c ****   }
 2949              		.loc 1 386 11 view .LVU878
 2950 0106 4420     		movs	r0, #68
 2951 0108 FFF7FEFF 		bl	APP_ParamDict_SetValueUnsafe
 2952              	.LVL318:
 2953 010c ABE7     		b	.L232
 2954              	.L252:
 390:Core/Src/app_uart_handlers.c ****   }
 2955              		.loc 1 390 5 is_stmt 1 view .LVU879
 390:Core/Src/app_uart_handlers.c ****   }
 2956              		.loc 1 390 71 is_stmt 0 view .LVU880
 2957 010e 05F10F00 		add	r0, r5, #15
 2958 0112 FFF7FEFF 		bl	read_le_u32
 2959              	.LVL319:
 2960 0116 0146     		mov	r1, r0
 390:Core/Src/app_uart_handlers.c ****   }
 2961              		.loc 1 390 11 view .LVU881
ARM GAS  /tmp/cc1v4A75.s 			page 76


 2962 0118 4520     		movs	r0, #69
 2963 011a FFF7FEFF 		bl	APP_ParamDict_SetValueUnsafe
 2964              	.LVL320:
 2965 011e A6E7     		b	.L233
 2966              	.L253:
 394:Core/Src/app_uart_handlers.c ****   }
 2967              		.loc 1 394 5 is_stmt 1 view .LVU882
 394:Core/Src/app_uart_handlers.c ****   }
 2968              		.loc 1 394 71 is_stmt 0 view .LVU883
 2969 0120 05F11300 		add	r0, r5, #19
 2970 0124 FFF7FEFF 		bl	read_le_u32
 2971              	.LVL321:
 2972 0128 0146     		mov	r1, r0
 394:Core/Src/app_uart_handlers.c ****   }
 2973              		.loc 1 394 11 view .LVU884
 2974 012a 4620     		movs	r0, #70
 2975 012c FFF7FEFF 		bl	APP_ParamDict_SetValueUnsafe
 2976              	.LVL322:
 2977 0130 A1E7     		b	.L234
 2978              	.L254:
 398:Core/Src/app_uart_handlers.c ****   }
 2979              		.loc 1 398 5 is_stmt 1 view .LVU885
 398:Core/Src/app_uart_handlers.c ****   }
 2980              		.loc 1 398 71 is_stmt 0 view .LVU886
 2981 0132 05F11700 		add	r0, r5, #23
 2982 0136 FFF7FEFF 		bl	read_le_u32
 2983              	.LVL323:
 2984 013a 0146     		mov	r1, r0
 398:Core/Src/app_uart_handlers.c ****   }
 2985              		.loc 1 398 11 view .LVU887
 2986 013c 4720     		movs	r0, #71
 2987 013e FFF7FEFF 		bl	APP_ParamDict_SetValueUnsafe
 2988              	.LVL324:
 2989 0142 9CE7     		b	.L235
 2990              	.L255:
 402:Core/Src/app_uart_handlers.c ****   }
 2991              		.loc 1 402 5 is_stmt 1 view .LVU888
 402:Core/Src/app_uart_handlers.c ****   }
 2992              		.loc 1 402 11 is_stmt 0 view .LVU889
 2993 0144 E97E     		ldrb	r1, [r5, #27]	@ zero_extendqisi2
 2994 0146 4820     		movs	r0, #72
 2995 0148 FFF7FEFF 		bl	APP_ParamDict_SetValueUnsafe
 2996              	.LVL325:
 2997 014c 99E7     		b	.L236
 2998              	.L256:
 406:Core/Src/app_uart_handlers.c ****   }
 2999              		.loc 1 406 5 is_stmt 1 view .LVU890
 406:Core/Src/app_uart_handlers.c ****   }
 3000              		.loc 1 406 11 is_stmt 0 view .LVU891
 3001 014e 297F     		ldrb	r1, [r5, #28]	@ zero_extendqisi2
 3002 0150 4920     		movs	r0, #73
 3003 0152 FFF7FEFF 		bl	APP_ParamDict_SetValueUnsafe
 3004              	.LVL326:
 3005 0156 96E7     		b	.L237
 3006              	.L257:
 410:Core/Src/app_uart_handlers.c ****   }
 3007              		.loc 1 410 5 is_stmt 1 view .LVU892
ARM GAS  /tmp/cc1v4A75.s 			page 77


 410:Core/Src/app_uart_handlers.c ****   }
 3008              		.loc 1 410 11 is_stmt 0 view .LVU893
 3009 0158 697F     		ldrb	r1, [r5, #29]	@ zero_extendqisi2
 3010 015a 4A20     		movs	r0, #74
 3011 015c FFF7FEFF 		bl	APP_ParamDict_SetValueUnsafe
 3012              	.LVL327:
 3013 0160 93E7     		b	.L238
 3014              	.L258:
 414:Core/Src/app_uart_handlers.c ****   }
 3015              		.loc 1 414 5 is_stmt 1 view .LVU894
 414:Core/Src/app_uart_handlers.c ****   }
 3016              		.loc 1 414 11 is_stmt 0 view .LVU895
 3017 0162 A97F     		ldrb	r1, [r5, #30]	@ zero_extendqisi2
 3018 0164 4B20     		movs	r0, #75
 3019 0166 FFF7FEFF 		bl	APP_ParamDict_SetValueUnsafe
 3020              	.LVL328:
 3021 016a 90E7     		b	.L239
 3022              	.LVL329:
 3023              	.L242:
 3024              	.LCFI28:
 3025              		.cfi_def_cfa_offset 0
 3026              		.cfi_restore 4
 3027              		.cfi_restore 5
 3028              		.cfi_restore 6
 3029              		.cfi_restore 7
 3030              		.cfi_restore 8
 3031              		.cfi_restore 14
 414:Core/Src/app_uart_handlers.c ****   }
 3032              		.loc 1 414 11 view .LVU896
 3033 016c 7047     		bx	lr
 3034              	.L260:
 3035 016e 00BF     		.align	2
 3036              	.L259:
 3037 0170 00000000 		.word	gParamMutexHandle
 3038              		.cfi_endproc
 3039              	.LFE17:
 3041              		.section	.text.APP_UartRx_GetNeighborCountCached,"ax",%progbits
 3042              		.align	1
 3043              		.global	APP_UartRx_GetNeighborCountCached
 3044              		.syntax unified
 3045              		.thumb
 3046              		.thumb_func
 3047              		.fpu softvfp
 3049              	APP_UartRx_GetNeighborCountCached:
 3050              	.LFB5:
  46:Core/Src/app_uart_handlers.c ****   return s_neighborNodeCount;
 3051              		.loc 1 46 1 is_stmt 1 view -0
 3052              		.cfi_startproc
 3053              		@ args = 0, pretend = 0, frame = 0
 3054              		@ frame_needed = 0, uses_anonymous_args = 0
 3055              		@ link register save eliminated.
  47:Core/Src/app_uart_handlers.c **** }
 3056              		.loc 1 47 3 view .LVU898
  48:Core/Src/app_uart_handlers.c **** 
 3057              		.loc 1 48 1 is_stmt 0 view .LVU899
 3058 0000 014B     		ldr	r3, .L262
 3059 0002 1878     		ldrb	r0, [r3]	@ zero_extendqisi2
ARM GAS  /tmp/cc1v4A75.s 			page 78


 3060 0004 7047     		bx	lr
 3061              	.L263:
 3062 0006 00BF     		.align	2
 3063              	.L262:
 3064 0008 00000000 		.word	.LANCHOR1
 3065              		.cfi_endproc
 3066              	.LFE5:
 3068              		.section	.text.APP_UartRx_GetNeighborNodeIdByIndex,"ax",%progbits
 3069              		.align	1
 3070              		.global	APP_UartRx_GetNeighborNodeIdByIndex
 3071              		.syntax unified
 3072              		.thumb
 3073              		.thumb_func
 3074              		.fpu softvfp
 3076              	APP_UartRx_GetNeighborNodeIdByIndex:
 3077              	.LVL330:
 3078              	.LFB6:
  51:Core/Src/app_uart_handlers.c ****   uint8_t idx;
 3079              		.loc 1 51 1 is_stmt 1 view -0
 3080              		.cfi_startproc
 3081              		@ args = 0, pretend = 0, frame = 0
 3082              		@ frame_needed = 0, uses_anonymous_args = 0
 3083              		@ link register save eliminated.
  52:Core/Src/app_uart_handlers.c **** 
 3084              		.loc 1 52 3 view .LVU901
  54:Core/Src/app_uart_handlers.c ****   {
 3085              		.loc 1 54 3 view .LVU902
  54:Core/Src/app_uart_handlers.c ****   {
 3086              		.loc 1 54 6 is_stmt 0 view .LVU903
 3087 0000 70B1     		cbz	r0, .L266
  54:Core/Src/app_uart_handlers.c ****   {
 3088              		.loc 1 54 29 discriminator 1 view .LVU904
 3089 0002 79B1     		cbz	r1, .L267
  59:Core/Src/app_uart_handlers.c ****   if (idx >= s_neighborNodeCount)
 3090              		.loc 1 59 3 is_stmt 1 view .LVU905
  59:Core/Src/app_uart_handlers.c ****   if (idx >= s_neighborNodeCount)
 3091              		.loc 1 59 7 is_stmt 0 view .LVU906
 3092 0004 431E     		subs	r3, r0, #1
 3093 0006 DBB2     		uxtb	r3, r3
 3094              	.LVL331:
  60:Core/Src/app_uart_handlers.c ****   {
 3095              		.loc 1 60 3 is_stmt 1 view .LVU907
  60:Core/Src/app_uart_handlers.c ****   {
 3096              		.loc 1 60 11 is_stmt 0 view .LVU908
 3097 0008 084A     		ldr	r2, .L269
 3098 000a 1278     		ldrb	r2, [r2]	@ zero_extendqisi2
  60:Core/Src/app_uart_handlers.c ****   {
 3099              		.loc 1 60 6 view .LVU909
 3100 000c 9A42     		cmp	r2, r3
 3101 000e 0BD9     		bls	.L268
  65:Core/Src/app_uart_handlers.c ****   return true;
 3102              		.loc 1 65 3 is_stmt 1 view .LVU910
  65:Core/Src/app_uart_handlers.c ****   return true;
 3103              		.loc 1 65 42 is_stmt 0 view .LVU911
 3104 0010 03EB4303 		add	r3, r3, r3, lsl #1
 3105              	.LVL332:
  65:Core/Src/app_uart_handlers.c ****   return true;
ARM GAS  /tmp/cc1v4A75.s 			page 79


 3106              		.loc 1 65 42 view .LVU912
 3107 0014 064A     		ldr	r2, .L269+4
 3108 0016 12F83330 		ldrb	r3, [r2, r3, lsl #3]	@ zero_extendqisi2
  65:Core/Src/app_uart_handlers.c ****   return true;
 3109              		.loc 1 65 16 view .LVU913
 3110 001a 0B70     		strb	r3, [r1]
  66:Core/Src/app_uart_handlers.c **** }
 3111              		.loc 1 66 3 is_stmt 1 view .LVU914
  66:Core/Src/app_uart_handlers.c **** }
 3112              		.loc 1 66 10 is_stmt 0 view .LVU915
 3113 001c 0120     		movs	r0, #1
 3114              	.LVL333:
  66:Core/Src/app_uart_handlers.c **** }
 3115              		.loc 1 66 10 view .LVU916
 3116 001e 7047     		bx	lr
 3117              	.LVL334:
 3118              	.L266:
  56:Core/Src/app_uart_handlers.c ****   }
 3119              		.loc 1 56 12 view .LVU917
 3120 0020 0020     		movs	r0, #0
 3121              	.LVL335:
  56:Core/Src/app_uart_handlers.c ****   }
 3122              		.loc 1 56 12 view .LVU918
 3123 0022 7047     		bx	lr
 3124              	.LVL336:
 3125              	.L267:
  56:Core/Src/app_uart_handlers.c ****   }
 3126              		.loc 1 56 12 view .LVU919
 3127 0024 0020     		movs	r0, #0
 3128              	.LVL337:
  56:Core/Src/app_uart_handlers.c ****   }
 3129              		.loc 1 56 12 view .LVU920
 3130 0026 7047     		bx	lr
 3131              	.LVL338:
 3132              	.L268:
  62:Core/Src/app_uart_handlers.c ****   }
 3133              		.loc 1 62 12 view .LVU921
 3134 0028 0020     		movs	r0, #0
 3135              	.LVL339:
  67:Core/Src/app_uart_handlers.c **** 
 3136              		.loc 1 67 1 view .LVU922
 3137 002a 7047     		bx	lr
 3138              	.L270:
 3139              		.align	2
 3140              	.L269:
 3141 002c 00000000 		.word	.LANCHOR1
 3142 0030 00000000 		.word	.LANCHOR2
 3143              		.cfi_endproc
 3144              	.LFE6:
 3146              		.section	.text.APP_UartRx_LoadNeighborByIndexToParams,"ax",%progbits
 3147              		.align	1
 3148              		.global	APP_UartRx_LoadNeighborByIndexToParams
 3149              		.syntax unified
 3150              		.thumb
 3151              		.thumb_func
 3152              		.fpu softvfp
 3154              	APP_UartRx_LoadNeighborByIndexToParams:
ARM GAS  /tmp/cc1v4A75.s 			page 80


 3155              	.LVL340:
 3156              	.LFB7:
  70:Core/Src/app_uart_handlers.c ****   uint8_t idx;
 3157              		.loc 1 70 1 is_stmt 1 view -0
 3158              		.cfi_startproc
 3159              		@ args = 0, pretend = 0, frame = 0
 3160              		@ frame_needed = 0, uses_anonymous_args = 0
  71:Core/Src/app_uart_handlers.c **** 
 3161              		.loc 1 71 3 view .LVU924
  73:Core/Src/app_uart_handlers.c ****   {
 3162              		.loc 1 73 3 view .LVU925
  73:Core/Src/app_uart_handlers.c ****   {
 3163              		.loc 1 73 6 is_stmt 0 view .LVU926
 3164 0000 D8B1     		cbz	r0, .L274
  70:Core/Src/app_uart_handlers.c ****   uint8_t idx;
 3165              		.loc 1 70 1 view .LVU927
 3166 0002 10B5     		push	{r4, lr}
 3167              	.LCFI29:
 3168              		.cfi_def_cfa_offset 8
 3169              		.cfi_offset 4, -8
 3170              		.cfi_offset 14, -4
  78:Core/Src/app_uart_handlers.c ****   if (idx >= s_neighborNodeCount)
 3171              		.loc 1 78 3 is_stmt 1 view .LVU928
  78:Core/Src/app_uart_handlers.c ****   if (idx >= s_neighborNodeCount)
 3172              		.loc 1 78 7 is_stmt 0 view .LVU929
 3173 0004 441E     		subs	r4, r0, #1
 3174 0006 E4B2     		uxtb	r4, r4
 3175              	.LVL341:
  79:Core/Src/app_uart_handlers.c ****   {
 3176              		.loc 1 79 3 is_stmt 1 view .LVU930
  79:Core/Src/app_uart_handlers.c ****   {
 3177              		.loc 1 79 11 is_stmt 0 view .LVU931
 3178 0008 0F4B     		ldr	r3, .L281
 3179 000a 1B78     		ldrb	r3, [r3]	@ zero_extendqisi2
  79:Core/Src/app_uart_handlers.c ****   {
 3180              		.loc 1 79 6 view .LVU932
 3181 000c A342     		cmp	r3, r4
 3182 000e 16D9     		bls	.L275
  84:Core/Src/app_uart_handlers.c ****   {
 3183              		.loc 1 84 3 is_stmt 1 view .LVU933
  84:Core/Src/app_uart_handlers.c ****   {
 3184              		.loc 1 84 25 is_stmt 0 view .LVU934
 3185 0010 0E4B     		ldr	r3, .L281+4
 3186 0012 1868     		ldr	r0, [r3]
 3187              	.LVL342:
  84:Core/Src/app_uart_handlers.c ****   {
 3188              		.loc 1 84 6 view .LVU935
 3189 0014 18B1     		cbz	r0, .L273
  86:Core/Src/app_uart_handlers.c ****   }
 3190              		.loc 1 86 5 is_stmt 1 view .LVU936
  86:Core/Src/app_uart_handlers.c ****   }
 3191              		.loc 1 86 11 is_stmt 0 view .LVU937
 3192 0016 4FF0FF31 		mov	r1, #-1
 3193 001a FFF7FEFF 		bl	osMutexAcquire
 3194              	.LVL343:
 3195              	.L273:
  89:Core/Src/app_uart_handlers.c **** 
ARM GAS  /tmp/cc1v4A75.s 			page 81


 3196              		.loc 1 89 3 is_stmt 1 view .LVU938
  89:Core/Src/app_uart_handlers.c **** 
 3197              		.loc 1 89 34 is_stmt 0 view .LVU939
 3198 001e 04EB4404 		add	r4, r4, r4, lsl #1
 3199              	.LVL344:
  89:Core/Src/app_uart_handlers.c **** 
 3200              		.loc 1 89 3 view .LVU940
 3201 0022 0B48     		ldr	r0, .L281+8
 3202 0024 00EBC400 		add	r0, r0, r4, lsl #3
 3203 0028 FFF7FEFF 		bl	cache_write_neighbor_to_params
 3204              	.LVL345:
  91:Core/Src/app_uart_handlers.c ****   {
 3205              		.loc 1 91 3 is_stmt 1 view .LVU941
  91:Core/Src/app_uart_handlers.c ****   {
 3206              		.loc 1 91 25 is_stmt 0 view .LVU942
 3207 002c 074B     		ldr	r3, .L281+4
 3208 002e 1868     		ldr	r0, [r3]
  91:Core/Src/app_uart_handlers.c ****   {
 3209              		.loc 1 91 6 view .LVU943
 3210 0030 38B1     		cbz	r0, .L276
  93:Core/Src/app_uart_handlers.c ****   }
 3211              		.loc 1 93 5 is_stmt 1 view .LVU944
  93:Core/Src/app_uart_handlers.c ****   }
 3212              		.loc 1 93 11 is_stmt 0 view .LVU945
 3213 0032 FFF7FEFF 		bl	osMutexRelease
 3214              	.LVL346:
  96:Core/Src/app_uart_handlers.c **** }
 3215              		.loc 1 96 10 view .LVU946
 3216 0036 0120     		movs	r0, #1
 3217              	.L272:
  97:Core/Src/app_uart_handlers.c **** 
 3218              		.loc 1 97 1 view .LVU947
 3219 0038 10BD     		pop	{r4, pc}
 3220              	.LVL347:
 3221              	.L274:
 3222              	.LCFI30:
 3223              		.cfi_def_cfa_offset 0
 3224              		.cfi_restore 4
 3225              		.cfi_restore 14
  75:Core/Src/app_uart_handlers.c ****   }
 3226              		.loc 1 75 12 view .LVU948
 3227 003a 0020     		movs	r0, #0
 3228              	.LVL348:
  97:Core/Src/app_uart_handlers.c **** 
 3229              		.loc 1 97 1 view .LVU949
 3230 003c 7047     		bx	lr
 3231              	.LVL349:
 3232              	.L275:
 3233              	.LCFI31:
 3234              		.cfi_def_cfa_offset 8
 3235              		.cfi_offset 4, -8
 3236              		.cfi_offset 14, -4
  81:Core/Src/app_uart_handlers.c ****   }
 3237              		.loc 1 81 12 view .LVU950
 3238 003e 0020     		movs	r0, #0
 3239              	.LVL350:
  81:Core/Src/app_uart_handlers.c ****   }
ARM GAS  /tmp/cc1v4A75.s 			page 82


 3240              		.loc 1 81 12 view .LVU951
 3241 0040 FAE7     		b	.L272
 3242              	.LVL351:
 3243              	.L276:
  96:Core/Src/app_uart_handlers.c **** }
 3244              		.loc 1 96 10 view .LVU952
 3245 0042 0120     		movs	r0, #1
 3246 0044 F8E7     		b	.L272
 3247              	.L282:
 3248 0046 00BF     		.align	2
 3249              	.L281:
 3250 0048 00000000 		.word	.LANCHOR1
 3251 004c 00000000 		.word	gParamMutexHandle
 3252 0050 00000000 		.word	.LANCHOR2
 3253              		.cfi_endproc
 3254              	.LFE7:
 3256              		.section	.text.APP_UartRx_OnFrame,"ax",%progbits
 3257              		.align	1
 3258              		.global	APP_UartRx_OnFrame
 3259              		.syntax unified
 3260              		.thumb
 3261              		.thumb_func
 3262              		.fpu softvfp
 3264              	APP_UartRx_OnFrame:
 3265              	.LVL352:
 3266              	.LFB24:
 931:Core/Src/app_uart_handlers.c **** 
 932:Core/Src/app_uart_handlers.c **** void APP_UartRx_OnFrame(uint8_t cmd,
 933:Core/Src/app_uart_handlers.c ****                         uint8_t msgType,
 934:Core/Src/app_uart_handlers.c ****                         const uint8_t *payload,
 935:Core/Src/app_uart_handlers.c ****                         uint16_t payloadLen)
 936:Core/Src/app_uart_handlers.c **** {
 3267              		.loc 1 936 1 is_stmt 1 view -0
 3268              		.cfi_startproc
 3269              		@ args = 0, pretend = 0, frame = 0
 3270              		@ frame_needed = 0, uses_anonymous_args = 0
 3271              		.loc 1 936 1 is_stmt 0 view .LVU954
 3272 0000 08B5     		push	{r3, lr}
 3273              	.LCFI32:
 3274              		.cfi_def_cfa_offset 8
 3275              		.cfi_offset 3, -8
 3276              		.cfi_offset 14, -4
 3277 0002 8446     		mov	ip, r0
 3278 0004 8E46     		mov	lr, r1
 3279 0006 1046     		mov	r0, r2
 3280              	.LVL353:
 3281              		.loc 1 936 1 view .LVU955
 3282 0008 1946     		mov	r1, r3
 3283              	.LVL354:
 937:Core/Src/app_uart_handlers.c ****   (void)msgType;
 3284              		.loc 1 937 3 is_stmt 1 view .LVU956
 938:Core/Src/app_uart_handlers.c **** 
 939:Core/Src/app_uart_handlers.c ****   switch (cmd)
 3285              		.loc 1 939 3 view .LVU957
 3286 000a ACF1020C 		sub	ip, ip, #2
 3287 000e BCF1080F 		cmp	ip, #8
 3288 0012 0BD8     		bhi	.L283
ARM GAS  /tmp/cc1v4A75.s 			page 83


 3289 0014 DFE80CF0 		tbb	[pc, ip]
 3290              	.LVL355:
 3291              	.L286:
 3292 0018 05       		.byte	(.L293-.L286)/2
 3293 0019 0A       		.byte	(.L283-.L286)/2
 3294 001a 0B       		.byte	(.L292-.L286)/2
 3295 001b 0E       		.byte	(.L291-.L286)/2
 3296 001c 11       		.byte	(.L290-.L286)/2
 3297 001d 14       		.byte	(.L289-.L286)/2
 3298 001e 17       		.byte	(.L288-.L286)/2
 3299 001f 1A       		.byte	(.L287-.L286)/2
 3300 0020 1D       		.byte	(.L285-.L286)/2
 3301 0021 00       		.p2align 1
 3302              	.L293:
 940:Core/Src/app_uart_handlers.c ****   {
 941:Core/Src/app_uart_handlers.c ****     case 0x02u:
 942:Core/Src/app_uart_handlers.c ****       handle_cmd_0x02(msgType, payload, payloadLen);
 3303              		.loc 1 942 7 view .LVU958
 3304 0022 0A46     		mov	r2, r1
 3305              	.LVL356:
 3306              		.loc 1 942 7 is_stmt 0 view .LVU959
 3307 0024 0146     		mov	r1, r0
 3308 0026 7046     		mov	r0, lr
 3309              	.LVL357:
 3310              		.loc 1 942 7 view .LVU960
 3311 0028 FFF7FEFF 		bl	handle_cmd_0x02
 3312              	.LVL358:
 943:Core/Src/app_uart_handlers.c ****       break;
 3313              		.loc 1 943 7 is_stmt 1 view .LVU961
 3314              	.L283:
 944:Core/Src/app_uart_handlers.c **** 
 945:Core/Src/app_uart_handlers.c ****     case 0x04u:
 946:Core/Src/app_uart_handlers.c ****       handle_cmd_0x04(payload, payloadLen);
 947:Core/Src/app_uart_handlers.c ****       break;
 948:Core/Src/app_uart_handlers.c **** 
 949:Core/Src/app_uart_handlers.c ****     case 0x05u:
 950:Core/Src/app_uart_handlers.c ****       handle_cmd_0x05(payload, payloadLen);
 951:Core/Src/app_uart_handlers.c ****       break;
 952:Core/Src/app_uart_handlers.c **** 
 953:Core/Src/app_uart_handlers.c ****     case 0x06u:
 954:Core/Src/app_uart_handlers.c ****       handle_cmd_0x06(payload, payloadLen);
 955:Core/Src/app_uart_handlers.c ****       break;
 956:Core/Src/app_uart_handlers.c **** 
 957:Core/Src/app_uart_handlers.c ****     case 0x07u:
 958:Core/Src/app_uart_handlers.c ****       handle_cmd_0x07(payload, payloadLen);
 959:Core/Src/app_uart_handlers.c ****       break;
 960:Core/Src/app_uart_handlers.c **** 
 961:Core/Src/app_uart_handlers.c ****     case 0x08u:
 962:Core/Src/app_uart_handlers.c ****       handle_cmd_0x08(payload, payloadLen);
 963:Core/Src/app_uart_handlers.c ****       break;
 964:Core/Src/app_uart_handlers.c **** 
 965:Core/Src/app_uart_handlers.c ****     case 0x09u:
 966:Core/Src/app_uart_handlers.c ****       handle_cmd_0x09(payload, payloadLen);
 967:Core/Src/app_uart_handlers.c ****       break;
 968:Core/Src/app_uart_handlers.c **** 
 969:Core/Src/app_uart_handlers.c ****     case 0x0Au:
 970:Core/Src/app_uart_handlers.c ****       handle_cmd_0x0A(payload, payloadLen);
ARM GAS  /tmp/cc1v4A75.s 			page 84


 971:Core/Src/app_uart_handlers.c ****       break;
 972:Core/Src/app_uart_handlers.c **** 
 973:Core/Src/app_uart_handlers.c ****     default:
 974:Core/Src/app_uart_handlers.c ****       /* 其他命令暂不处理，后续可按协议文档逐步扩展解析逻辑 */
 975:Core/Src/app_uart_handlers.c ****       break;
 976:Core/Src/app_uart_handlers.c ****   }
 977:Core/Src/app_uart_handlers.c **** }
 3315              		.loc 1 977 1 is_stmt 0 view .LVU962
 3316 002c 08BD     		pop	{r3, pc}
 3317              	.LVL359:
 3318              	.L292:
 946:Core/Src/app_uart_handlers.c ****       break;
 3319              		.loc 1 946 7 is_stmt 1 view .LVU963
 3320 002e FFF7FEFF 		bl	handle_cmd_0x04
 3321              	.LVL360:
 947:Core/Src/app_uart_handlers.c **** 
 3322              		.loc 1 947 7 view .LVU964
 3323 0032 FBE7     		b	.L283
 3324              	.LVL361:
 3325              	.L291:
 950:Core/Src/app_uart_handlers.c ****       break;
 3326              		.loc 1 950 7 view .LVU965
 3327 0034 FFF7FEFF 		bl	handle_cmd_0x05
 3328              	.LVL362:
 951:Core/Src/app_uart_handlers.c **** 
 3329              		.loc 1 951 7 view .LVU966
 3330 0038 F8E7     		b	.L283
 3331              	.LVL363:
 3332              	.L290:
 954:Core/Src/app_uart_handlers.c ****       break;
 3333              		.loc 1 954 7 view .LVU967
 3334 003a FFF7FEFF 		bl	handle_cmd_0x06
 3335              	.LVL364:
 955:Core/Src/app_uart_handlers.c **** 
 3336              		.loc 1 955 7 view .LVU968
 3337 003e F5E7     		b	.L283
 3338              	.LVL365:
 3339              	.L289:
 958:Core/Src/app_uart_handlers.c ****       break;
 3340              		.loc 1 958 7 view .LVU969
 3341 0040 FFF7FEFF 		bl	handle_cmd_0x07
 3342              	.LVL366:
 959:Core/Src/app_uart_handlers.c **** 
 3343              		.loc 1 959 7 view .LVU970
 3344 0044 F2E7     		b	.L283
 3345              	.LVL367:
 3346              	.L288:
 962:Core/Src/app_uart_handlers.c ****       break;
 3347              		.loc 1 962 7 view .LVU971
 3348 0046 FFF7FEFF 		bl	handle_cmd_0x08
 3349              	.LVL368:
 963:Core/Src/app_uart_handlers.c **** 
 3350              		.loc 1 963 7 view .LVU972
 3351 004a EFE7     		b	.L283
 3352              	.LVL369:
 3353              	.L287:
 966:Core/Src/app_uart_handlers.c ****       break;
ARM GAS  /tmp/cc1v4A75.s 			page 85


 3354              		.loc 1 966 7 view .LVU973
 3355 004c FFF7FEFF 		bl	handle_cmd_0x09
 3356              	.LVL370:
 967:Core/Src/app_uart_handlers.c **** 
 3357              		.loc 1 967 7 view .LVU974
 3358 0050 ECE7     		b	.L283
 3359              	.LVL371:
 3360              	.L285:
 970:Core/Src/app_uart_handlers.c ****       break;
 3361              		.loc 1 970 7 view .LVU975
 3362 0052 FFF7FEFF 		bl	handle_cmd_0x0A
 3363              	.LVL372:
 971:Core/Src/app_uart_handlers.c **** 
 3364              		.loc 1 971 7 view .LVU976
 3365              		.loc 1 977 1 is_stmt 0 view .LVU977
 3366 0056 E9E7     		b	.L283
 3367              		.cfi_endproc
 3368              	.LFE24:
 3370              		.section	.bss.s_neighborNodeCache,"aw",%nobits
 3371              		.align	2
 3372              		.set	.LANCHOR2,. + 0
 3375              	s_neighborNodeCache:
 3376 0000 00000000 		.space	1536
 3376      00000000 
 3376      00000000 
 3376      00000000 
 3376      00000000 
 3377              		.section	.bss.s_neighborNodeCount,"aw",%nobits
 3378              		.set	.LANCHOR1,. + 0
 3381              	s_neighborNodeCount:
 3382 0000 00       		.space	1
 3383              		.section	.rodata.baudMap.0,"a"
 3384              		.align	2
 3385              		.set	.LANCHOR0,. + 0
 3388              	baudMap.0:
 3389 0000 80250000 		.word	9600
 3390 0004 004B0000 		.word	19200
 3391 0008 00960000 		.word	38400
 3392 000c 00E10000 		.word	57600
 3393 0010 00C20100 		.word	115200
 3394 0014 00E80300 		.word	256000
 3395 0018 00080700 		.word	460800
 3396 001c 00100E00 		.word	921600
 3397              		.text
 3398              	.Letext0:
 3399              		.file 2 "/usr/lib/gcc/arm-none-eabi/10.3.1/include/stdint.h"
 3400              		.file 3 "Middlewares/Third_Party/FreeRTOS/Source/CMSIS_RTOS_V2/cmsis_os2.h"
 3401              		.file 4 "Core/Inc/app_param_dict.h"
 3402              		.file 5 "Core/Inc/app_menu.h"
ARM GAS  /tmp/cc1v4A75.s 			page 86


DEFINED SYMBOLS
                            *ABS*:0000000000000000 app_uart_handlers.c
     /tmp/cc1v4A75.s:16     .text.read_be_u32:0000000000000000 $t
     /tmp/cc1v4A75.s:23     .text.read_be_u32:0000000000000000 read_be_u32
     /tmp/cc1v4A75.s:55     .text.read_le_u32:0000000000000000 $t
     /tmp/cc1v4A75.s:61     .text.read_le_u32:0000000000000000 read_le_u32
     /tmp/cc1v4A75.s:90     .text.read_be_i16:0000000000000000 $t
     /tmp/cc1v4A75.s:96     .text.read_be_i16:0000000000000000 read_be_i16
     /tmp/cc1v4A75.s:119    .text.read_le_u16:0000000000000000 $t
     /tmp/cc1v4A75.s:125    .text.read_le_u16:0000000000000000 read_le_u16
     /tmp/cc1v4A75.s:146    .text.read_be_i32:0000000000000000 $t
     /tmp/cc1v4A75.s:152    .text.read_be_i32:0000000000000000 read_be_i32
     /tmp/cc1v4A75.s:175    .text.parse_ascii_coord_1e6:0000000000000000 $t
     /tmp/cc1v4A75.s:181    .text.parse_ascii_coord_1e6:0000000000000000 parse_ascii_coord_1e6
     /tmp/cc1v4A75.s:593    .text.uart_baud_from_idx:0000000000000000 $t
     /tmp/cc1v4A75.s:599    .text.uart_baud_from_idx:0000000000000000 uart_baud_from_idx
     /tmp/cc1v4A75.s:629    .text.uart_baud_from_idx:0000000000000014 $d
     /tmp/cc1v4A75.s:634    .text.parse_name_token:0000000000000000 $t
     /tmp/cc1v4A75.s:640    .text.parse_name_token:0000000000000000 parse_name_token
     /tmp/cc1v4A75.s:763    .text.cache_write_neighbor_to_params:0000000000000000 $t
     /tmp/cc1v4A75.s:769    .text.cache_write_neighbor_to_params:0000000000000000 cache_write_neighbor_to_params
     /tmp/cc1v4A75.s:850    .text.handle_cmd_0x02:0000000000000000 $t
     /tmp/cc1v4A75.s:856    .text.handle_cmd_0x02:0000000000000000 handle_cmd_0x02
     /tmp/cc1v4A75.s:962    .text.handle_cmd_0x02:0000000000000050 $d
     /tmp/cc1v4A75.s:967    .text.handle_cmd_0x05:0000000000000000 $t
     /tmp/cc1v4A75.s:973    .text.handle_cmd_0x05:0000000000000000 handle_cmd_0x05
     /tmp/cc1v4A75.s:1386   .text.handle_cmd_0x05:00000000000001f4 $d
     /tmp/cc1v4A75.s:1391   .text.handle_cmd_0x06:0000000000000000 $t
     /tmp/cc1v4A75.s:1397   .text.handle_cmd_0x06:0000000000000000 handle_cmd_0x06
     /tmp/cc1v4A75.s:1571   .text.handle_cmd_0x06:00000000000000c0 $d
     /tmp/cc1v4A75.s:1576   .text.handle_cmd_0x07:0000000000000000 $t
     /tmp/cc1v4A75.s:1582   .text.handle_cmd_0x07:0000000000000000 handle_cmd_0x07
     /tmp/cc1v4A75.s:1769   .text.handle_cmd_0x07:00000000000000c4 $d
     /tmp/cc1v4A75.s:1774   .text.handle_cmd_0x09:0000000000000000 $t
     /tmp/cc1v4A75.s:1780   .text.handle_cmd_0x09:0000000000000000 handle_cmd_0x09
     /tmp/cc1v4A75.s:2093   .text.handle_cmd_0x09:0000000000000144 $d
     /tmp/cc1v4A75.s:2102   .text.handle_cmd_0x0A:0000000000000000 $t
     /tmp/cc1v4A75.s:2108   .text.handle_cmd_0x0A:0000000000000000 handle_cmd_0x0A
     /tmp/cc1v4A75.s:2359   .text.handle_cmd_0x0A:00000000000000e4 $d
     /tmp/cc1v4A75.s:2366   .text.handle_cmd_0x04:0000000000000000 $t
     /tmp/cc1v4A75.s:2372   .text.handle_cmd_0x04:0000000000000000 handle_cmd_0x04
     /tmp/cc1v4A75.s:2674   .text.handle_cmd_0x04:0000000000000140 $d
     /tmp/cc1v4A75.s:2679   .text.handle_cmd_0x08:0000000000000000 $t
     /tmp/cc1v4A75.s:2685   .text.handle_cmd_0x08:0000000000000000 handle_cmd_0x08
     /tmp/cc1v4A75.s:3037   .text.handle_cmd_0x08:0000000000000170 $d
     /tmp/cc1v4A75.s:3042   .text.APP_UartRx_GetNeighborCountCached:0000000000000000 $t
     /tmp/cc1v4A75.s:3049   .text.APP_UartRx_GetNeighborCountCached:0000000000000000 APP_UartRx_GetNeighborCountCached
     /tmp/cc1v4A75.s:3064   .text.APP_UartRx_GetNeighborCountCached:0000000000000008 $d
     /tmp/cc1v4A75.s:3069   .text.APP_UartRx_GetNeighborNodeIdByIndex:0000000000000000 $t
     /tmp/cc1v4A75.s:3076   .text.APP_UartRx_GetNeighborNodeIdByIndex:0000000000000000 APP_UartRx_GetNeighborNodeIdByIndex
     /tmp/cc1v4A75.s:3141   .text.APP_UartRx_GetNeighborNodeIdByIndex:000000000000002c $d
     /tmp/cc1v4A75.s:3147   .text.APP_UartRx_LoadNeighborByIndexToParams:0000000000000000 $t
     /tmp/cc1v4A75.s:3154   .text.APP_UartRx_LoadNeighborByIndexToParams:0000000000000000 APP_UartRx_LoadNeighborByIndexToParams
     /tmp/cc1v4A75.s:3250   .text.APP_UartRx_LoadNeighborByIndexToParams:0000000000000048 $d
     /tmp/cc1v4A75.s:3257   .text.APP_UartRx_OnFrame:0000000000000000 $t
     /tmp/cc1v4A75.s:3264   .text.APP_UartRx_OnFrame:0000000000000000 APP_UartRx_OnFrame
     /tmp/cc1v4A75.s:3292   .text.APP_UartRx_OnFrame:0000000000000018 $d
ARM GAS  /tmp/cc1v4A75.s 			page 87


     /tmp/cc1v4A75.s:3371   .bss.s_neighborNodeCache:0000000000000000 $d
     /tmp/cc1v4A75.s:3375   .bss.s_neighborNodeCache:0000000000000000 s_neighborNodeCache
     /tmp/cc1v4A75.s:3381   .bss.s_neighborNodeCount:0000000000000000 s_neighborNodeCount
     /tmp/cc1v4A75.s:3382   .bss.s_neighborNodeCount:0000000000000000 $d
     /tmp/cc1v4A75.s:3384   .rodata.baudMap.0:0000000000000000 $d
     /tmp/cc1v4A75.s:3388   .rodata.baudMap.0:0000000000000000 baudMap.0
     /tmp/cc1v4A75.s:3301   .text.APP_UartRx_OnFrame:0000000000000021 $d
     /tmp/cc1v4A75.s:3301   .text.APP_UartRx_OnFrame:0000000000000022 $t

UNDEFINED SYMBOLS
APP_ParamDict_SetValueUnsafe
osMutexAcquire
osMutexRelease
APP_Menu_RefreshCurrent
gParamMutexHandle
APP_Menu_IsAdaptHopProtectActive
APP_Menu_ClearAdaptHopProtect
