ARM GAS  /tmp/ccabCexi.s 			page 1


   1              		.cpu cortex-m3
   2              		.eabi_attribute 20, 1
   3              		.eabi_attribute 21, 1
   4              		.eabi_attribute 23, 3
   5              		.eabi_attribute 24, 1
   6              		.eabi_attribute 25, 1
   7              		.eabi_attribute 26, 1
   8              		.eabi_attribute 30, 1
   9              		.eabi_attribute 34, 1
  10              		.eabi_attribute 18, 4
  11              		.file	"app_param_uart_map.c"
  12              		.text
  13              	.Ltext0:
  14              		.cfi_sections	.debug_frame
  15              		.section	.text.map_find,"ax",%progbits
  16              		.align	1
  17              		.arch armv7-m
  18              		.syntax unified
  19              		.thumb
  20              		.thumb_func
  21              		.fpu softvfp
  23              	map_find:
  24              	.LVL0:
  25              	.LFB0:
  26              		.file 1 "Core/Src/app_param_uart_map.c"
   1:Core/Src/app_param_uart_map.c **** #include "app_param_uart_map.h"
   2:Core/Src/app_param_uart_map.c **** 
   3:Core/Src/app_param_uart_map.c **** #include <stddef.h>
   4:Core/Src/app_param_uart_map.c **** 
   5:Core/Src/app_param_uart_map.c **** typedef struct
   6:Core/Src/app_param_uart_map.c **** {
   7:Core/Src/app_param_uart_map.c ****   ParamId_t id;
   8:Core/Src/app_param_uart_map.c ****   uint32_t  addr;
   9:Core/Src/app_param_uart_map.c ****   uint8_t   valueLen;
  10:Core/Src/app_param_uart_map.c **** } ParamUartWriteMap_t;
  11:Core/Src/app_param_uart_map.c **** 
  12:Core/Src/app_param_uart_map.c **** /*
  13:Core/Src/app_param_uart_map.c ****  * Centralized write-address configuration for UART cmd 0x01.
  14:Core/Src/app_param_uart_map.c ****  * If an address is not confirmed yet, keep it as 0x00000000 and it will be ignored.
  15:Core/Src/app_param_uart_map.c ****  */
  16:Core/Src/app_param_uart_map.c **** #define PARAM_ADDR_ROUTING_PROTOCOL 0x12310000u
  17:Core/Src/app_param_uart_map.c **** #define PARAM_ADDR_FREQ_HOP_MODE    0x12340000u
  18:Core/Src/app_param_uart_map.c **** #define PARAM_ADDR_FIXED_FREQ       0x12351000u
  19:Core/Src/app_param_uart_map.c **** #define PARAM_ADDR_ADAPT_FREQ1      0x12352000u
  20:Core/Src/app_param_uart_map.c **** #define PARAM_ADDR_ADAPT_FREQ2      0x12353000u
  21:Core/Src/app_param_uart_map.c **** #define PARAM_ADDR_ADAPT_FREQ3      0x12354000u
  22:Core/Src/app_param_uart_map.c **** #define PARAM_ADDR_ADAPT_FREQ4      0x12355000u
  23:Core/Src/app_param_uart_map.c **** #define PARAM_ADDR_SIGNAL_BW        0x12370000u
  24:Core/Src/app_param_uart_map.c **** #define PARAM_ADDR_WAVEFORM_GEAR    0x12382000u
  25:Core/Src/app_param_uart_map.c **** 
  26:Core/Src/app_param_uart_map.c **** /* TODO: confirm addresses from Linux-side enum before enabling these fields. */
  27:Core/Src/app_param_uart_map.c **** #define PARAM_ADDR_SPATIAL_FILTER   0x00000000u
  28:Core/Src/app_param_uart_map.c **** #define PARAM_ADDR_SYNC_MODE        0x00000000u
  29:Core/Src/app_param_uart_map.c **** #define PARAM_ADDR_TX_POWER         0x00000000u
  30:Core/Src/app_param_uart_map.c **** #define PARAM_ADDR_TX_POWER_ATTEN   0x00000000u
  31:Core/Src/app_param_uart_map.c **** 
  32:Core/Src/app_param_uart_map.c **** static const ParamUartWriteMap_t s_writeMap[] =
ARM GAS  /tmp/ccabCexi.s 			page 2


  33:Core/Src/app_param_uart_map.c **** {
  34:Core/Src/app_param_uart_map.c ****   { PARAM_ID_WORK_MODE,         PARAM_ADDR_FREQ_HOP_MODE, 1u },
  35:Core/Src/app_param_uart_map.c ****   { PARAM_ID_FREQ_HOP_MODE,     PARAM_ADDR_FREQ_HOP_MODE, 1u },
  36:Core/Src/app_param_uart_map.c ****   { PARAM_ID_ROUTING_PROTOCOL,  PARAM_ADDR_ROUTING_PROTOCOL, 1u },
  37:Core/Src/app_param_uart_map.c ****   { PARAM_ID_SIGNAL_BANDWIDTH,  PARAM_ADDR_SIGNAL_BW, 1u },
  38:Core/Src/app_param_uart_map.c ****   { PARAM_ID_WAVEFORM_GEAR,     PARAM_ADDR_WAVEFORM_GEAR, 1u },
  39:Core/Src/app_param_uart_map.c ****   { PARAM_ID_FIXED_FREQ,        PARAM_ADDR_FIXED_FREQ, 4u },
  40:Core/Src/app_param_uart_map.c ****   { PARAM_ID_ADAPT_FREQ1,       PARAM_ADDR_ADAPT_FREQ1, 4u },
  41:Core/Src/app_param_uart_map.c ****   { PARAM_ID_ADAPT_FREQ2,       PARAM_ADDR_ADAPT_FREQ2, 4u },
  42:Core/Src/app_param_uart_map.c ****   { PARAM_ID_ADAPT_FREQ3,       PARAM_ADDR_ADAPT_FREQ3, 4u },
  43:Core/Src/app_param_uart_map.c ****   { PARAM_ID_ADAPT_FREQ4,       PARAM_ADDR_ADAPT_FREQ4, 4u },
  44:Core/Src/app_param_uart_map.c **** 
  45:Core/Src/app_param_uart_map.c ****   /* Placeholder items: currently disabled by addr=0. */
  46:Core/Src/app_param_uart_map.c ****   { PARAM_ID_SPATIAL_FILTER,    PARAM_ADDR_SPATIAL_FILTER, 1u },
  47:Core/Src/app_param_uart_map.c ****   { PARAM_ID_SYNC_MODE,         PARAM_ADDR_SYNC_MODE, 1u },
  48:Core/Src/app_param_uart_map.c ****   { PARAM_ID_TX_POWER,          PARAM_ADDR_TX_POWER, 1u },
  49:Core/Src/app_param_uart_map.c ****   { PARAM_ID_TX_POWER_ATTEN,    PARAM_ADDR_TX_POWER_ATTEN, 1u }
  50:Core/Src/app_param_uart_map.c **** };
  51:Core/Src/app_param_uart_map.c **** 
  52:Core/Src/app_param_uart_map.c **** static bool map_find(ParamId_t id, uint32_t *outAddr, uint8_t *outValueLen)
  53:Core/Src/app_param_uart_map.c **** {
  27              		.loc 1 53 1 view -0
  28              		.cfi_startproc
  29              		@ args = 0, pretend = 0, frame = 0
  30              		@ frame_needed = 0, uses_anonymous_args = 0
  31              		@ link register save eliminated.
  54:Core/Src/app_param_uart_map.c ****   for (uint32_t i = 0u; i < (sizeof(s_writeMap) / sizeof(s_writeMap[0])); ++i)
  32              		.loc 1 54 3 view .LVU1
  33              	.LBB2:
  34              		.loc 1 54 8 view .LVU2
  35              		.loc 1 54 17 is_stmt 0 view .LVU3
  36 0000 0023     		movs	r3, #0
  37              	.LVL1:
  38              		.loc 1 54 25 is_stmt 1 view .LVU4
  39              		.loc 1 54 3 is_stmt 0 view .LVU5
  40 0002 0D2B     		cmp	r3, #13
  41 0004 26D8     		bhi	.L13
  42              	.LBE2:
  53:Core/Src/app_param_uart_map.c ****   for (uint32_t i = 0u; i < (sizeof(s_writeMap) / sizeof(s_writeMap[0])); ++i)
  43              		.loc 1 53 1 view .LVU6
  44 0006 10B4     		push	{r4}
  45              	.LCFI0:
  46              		.cfi_def_cfa_offset 4
  47              		.cfi_offset 4, -4
  48              	.L5:
  49              	.LBB3:
  55:Core/Src/app_param_uart_map.c ****   {
  56:Core/Src/app_param_uart_map.c ****     if (s_writeMap[i].id == id)
  50              		.loc 1 56 5 is_stmt 1 view .LVU7
  51              		.loc 1 56 22 is_stmt 0 view .LVU8
  52 0008 03EB430C 		add	ip, r3, r3, lsl #1
  53 000c 124C     		ldr	r4, .L15
  54 000e 34F82CC0 		ldrh	ip, [r4, ip, lsl #2]
  55              		.loc 1 56 8 view .LVU9
  56 0012 8445     		cmp	ip, r0
  57 0014 05D0     		beq	.L14
  54:Core/Src/app_param_uart_map.c ****   {
ARM GAS  /tmp/ccabCexi.s 			page 3


  58              		.loc 1 54 75 is_stmt 1 discriminator 2 view .LVU10
  59 0016 0133     		adds	r3, r3, #1
  60              	.LVL2:
  54:Core/Src/app_param_uart_map.c ****   {
  61              		.loc 1 54 25 discriminator 2 view .LVU11
  54:Core/Src/app_param_uart_map.c ****   {
  62              		.loc 1 54 3 is_stmt 0 discriminator 2 view .LVU12
  63 0018 0D2B     		cmp	r3, #13
  64 001a F5D9     		bls	.L5
  65              	.LBE3:
  57:Core/Src/app_param_uart_map.c ****     {
  58:Core/Src/app_param_uart_map.c ****       if ((s_writeMap[i].addr == 0u) ||
  59:Core/Src/app_param_uart_map.c ****           (s_writeMap[i].valueLen == 0u) ||
  60:Core/Src/app_param_uart_map.c ****           (s_writeMap[i].valueLen > 4u))
  61:Core/Src/app_param_uart_map.c ****       {
  62:Core/Src/app_param_uart_map.c ****         return false;
  63:Core/Src/app_param_uart_map.c ****       }
  64:Core/Src/app_param_uart_map.c **** 
  65:Core/Src/app_param_uart_map.c ****       *outAddr = s_writeMap[i].addr;
  66:Core/Src/app_param_uart_map.c ****       *outValueLen = s_writeMap[i].valueLen;
  67:Core/Src/app_param_uart_map.c ****       return true;
  68:Core/Src/app_param_uart_map.c ****     }
  69:Core/Src/app_param_uart_map.c ****   }
  70:Core/Src/app_param_uart_map.c **** 
  71:Core/Src/app_param_uart_map.c ****   return false;
  66              		.loc 1 71 10 view .LVU13
  67 001c 0020     		movs	r0, #0
  68              	.LVL3:
  69              	.L4:
  72:Core/Src/app_param_uart_map.c **** }
  70              		.loc 1 72 1 view .LVU14
  71 001e 10BC     		pop	{r4}
  72              	.LCFI1:
  73              		.cfi_remember_state
  74              		.cfi_restore 4
  75              		.cfi_def_cfa_offset 0
  76 0020 7047     		bx	lr
  77              	.LVL4:
  78              	.L14:
  79              	.LCFI2:
  80              		.cfi_restore_state
  81              	.LBB4:
  58:Core/Src/app_param_uart_map.c ****           (s_writeMap[i].valueLen == 0u) ||
  82              		.loc 1 58 7 is_stmt 1 view .LVU15
  58:Core/Src/app_param_uart_map.c ****           (s_writeMap[i].valueLen == 0u) ||
  83              		.loc 1 58 25 is_stmt 0 view .LVU16
  84 0022 03EB4300 		add	r0, r3, r3, lsl #1
  85              	.LVL5:
  58:Core/Src/app_param_uart_map.c ****           (s_writeMap[i].valueLen == 0u) ||
  86              		.loc 1 58 25 view .LVU17
  87 0026 04EB8000 		add	r0, r4, r0, lsl #2
  88 002a 4468     		ldr	r4, [r0, #4]
  58:Core/Src/app_param_uart_map.c ****           (s_writeMap[i].valueLen == 0u) ||
  89              		.loc 1 58 10 view .LVU18
  90 002c 64B1     		cbz	r4, .L6
  59:Core/Src/app_param_uart_map.c ****           (s_writeMap[i].valueLen > 4u))
  91              		.loc 1 59 25 discriminator 1 view .LVU19
ARM GAS  /tmp/ccabCexi.s 			page 4


  92 002e 03EB4303 		add	r3, r3, r3, lsl #1
  93              	.LVL6:
  59:Core/Src/app_param_uart_map.c ****           (s_writeMap[i].valueLen > 4u))
  94              		.loc 1 59 25 discriminator 1 view .LVU20
  95 0032 0948     		ldr	r0, .L15
  96 0034 00EB8303 		add	r3, r0, r3, lsl #2
  97 0038 1B7A     		ldrb	r3, [r3, #8]	@ zero_extendqisi2
  58:Core/Src/app_param_uart_map.c ****           (s_writeMap[i].valueLen == 0u) ||
  98              		.loc 1 58 38 discriminator 1 view .LVU21
  99 003a 3BB1     		cbz	r3, .L7
  59:Core/Src/app_param_uart_map.c ****           (s_writeMap[i].valueLen > 4u))
 100              		.loc 1 59 42 view .LVU22
 101 003c 042B     		cmp	r3, #4
 102 003e 07D8     		bhi	.L8
  65:Core/Src/app_param_uart_map.c ****       *outValueLen = s_writeMap[i].valueLen;
 103              		.loc 1 65 7 is_stmt 1 view .LVU23
  65:Core/Src/app_param_uart_map.c ****       *outValueLen = s_writeMap[i].valueLen;
 104              		.loc 1 65 16 is_stmt 0 view .LVU24
 105 0040 0C60     		str	r4, [r1]
  66:Core/Src/app_param_uart_map.c ****       return true;
 106              		.loc 1 66 7 is_stmt 1 view .LVU25
  66:Core/Src/app_param_uart_map.c ****       return true;
 107              		.loc 1 66 20 is_stmt 0 view .LVU26
 108 0042 1370     		strb	r3, [r2]
  67:Core/Src/app_param_uart_map.c ****     }
 109              		.loc 1 67 7 is_stmt 1 view .LVU27
  67:Core/Src/app_param_uart_map.c ****     }
 110              		.loc 1 67 14 is_stmt 0 view .LVU28
 111 0044 0120     		movs	r0, #1
 112 0046 EAE7     		b	.L4
 113              	.LVL7:
 114              	.L6:
  62:Core/Src/app_param_uart_map.c ****       }
 115              		.loc 1 62 16 view .LVU29
 116 0048 0020     		movs	r0, #0
 117 004a E8E7     		b	.L4
 118              	.LVL8:
 119              	.L7:
  62:Core/Src/app_param_uart_map.c ****       }
 120              		.loc 1 62 16 view .LVU30
 121 004c 0020     		movs	r0, #0
 122 004e E6E7     		b	.L4
 123              	.L8:
 124 0050 0020     		movs	r0, #0
 125 0052 E4E7     		b	.L4
 126              	.LVL9:
 127              	.L13:
 128              	.LCFI3:
 129              		.cfi_def_cfa_offset 0
 130              		.cfi_restore 4
  62:Core/Src/app_param_uart_map.c ****       }
 131              		.loc 1 62 16 view .LVU31
 132              	.LBE4:
  71:Core/Src/app_param_uart_map.c **** }
 133              		.loc 1 71 10 view .LVU32
 134 0054 0020     		movs	r0, #0
 135              	.LVL10:
ARM GAS  /tmp/ccabCexi.s 			page 5


 136              		.loc 1 72 1 view .LVU33
 137 0056 7047     		bx	lr
 138              	.L16:
 139              		.align	2
 140              	.L15:
 141 0058 00000000 		.word	.LANCHOR0
 142              		.cfi_endproc
 143              	.LFE0:
 145              		.section	.text.APP_ParamUartMap_BuildWrite,"ax",%progbits
 146              		.align	1
 147              		.global	APP_ParamUartMap_BuildWrite
 148              		.syntax unified
 149              		.thumb
 150              		.thumb_func
 151              		.fpu softvfp
 153              	APP_ParamUartMap_BuildWrite:
 154              	.LVL11:
 155              	.LFB1:
  73:Core/Src/app_param_uart_map.c **** 
  74:Core/Src/app_param_uart_map.c **** bool APP_ParamUartMap_BuildWrite(ParamId_t id,
  75:Core/Src/app_param_uart_map.c ****                                  int32_t value,
  76:Core/Src/app_param_uart_map.c ****                                  uint32_t *outAddr,
  77:Core/Src/app_param_uart_map.c ****                                  uint8_t outValueBytes[4],
  78:Core/Src/app_param_uart_map.c ****                                  uint8_t *outValueLen)
  79:Core/Src/app_param_uart_map.c **** {
 156              		.loc 1 79 1 is_stmt 1 view -0
 157              		.cfi_startproc
 158              		@ args = 4, pretend = 0, frame = 8
 159              		@ frame_needed = 0, uses_anonymous_args = 0
 160              		.loc 1 79 1 is_stmt 0 view .LVU35
 161 0000 70B5     		push	{r4, r5, r6, lr}
 162              	.LCFI4:
 163              		.cfi_def_cfa_offset 16
 164              		.cfi_offset 4, -16
 165              		.cfi_offset 5, -12
 166              		.cfi_offset 6, -8
 167              		.cfi_offset 14, -4
 168 0002 82B0     		sub	sp, sp, #8
 169              	.LCFI5:
 170              		.cfi_def_cfa_offset 24
 171 0004 1C46     		mov	r4, r3
  80:Core/Src/app_param_uart_map.c ****   uint32_t addr = 0u;
 172              		.loc 1 80 3 is_stmt 1 view .LVU36
 173              		.loc 1 80 12 is_stmt 0 view .LVU37
 174 0006 0023     		movs	r3, #0
 175              	.LVL12:
 176              		.loc 1 80 12 view .LVU38
 177 0008 0193     		str	r3, [sp, #4]
  81:Core/Src/app_param_uart_map.c ****   uint8_t valueLen = 0u;
 178              		.loc 1 81 3 is_stmt 1 view .LVU39
 179              		.loc 1 81 11 is_stmt 0 view .LVU40
 180 000a 8DF80330 		strb	r3, [sp, #3]
  82:Core/Src/app_param_uart_map.c ****   uint32_t uval;
 181              		.loc 1 82 3 is_stmt 1 view .LVU41
  83:Core/Src/app_param_uart_map.c **** 
  84:Core/Src/app_param_uart_map.c ****   if ((outAddr == NULL) || (outValueBytes == NULL) || (outValueLen == NULL))
 182              		.loc 1 84 3 view .LVU42
ARM GAS  /tmp/ccabCexi.s 			page 6


 183              		.loc 1 84 6 is_stmt 0 view .LVU43
 184 000e 6AB3     		cbz	r2, .L22
 185 0010 0D46     		mov	r5, r1
 186 0012 1646     		mov	r6, r2
 187              		.loc 1 84 25 discriminator 1 view .LVU44
 188 0014 64B3     		cbz	r4, .L23
 189              		.loc 1 84 52 discriminator 2 view .LVU45
 190 0016 069B     		ldr	r3, [sp, #24]
 191 0018 63B3     		cbz	r3, .L24
  85:Core/Src/app_param_uart_map.c ****   {
  86:Core/Src/app_param_uart_map.c ****     return false;
  87:Core/Src/app_param_uart_map.c ****   }
  88:Core/Src/app_param_uart_map.c **** 
  89:Core/Src/app_param_uart_map.c ****   if (!map_find(id, &addr, &valueLen))
 192              		.loc 1 89 3 is_stmt 1 view .LVU46
 193              		.loc 1 89 8 is_stmt 0 view .LVU47
 194 001a 0DF10302 		add	r2, sp, #3
 195              	.LVL13:
 196              		.loc 1 89 8 view .LVU48
 197 001e 01A9     		add	r1, sp, #4
 198              	.LVL14:
 199              		.loc 1 89 8 view .LVU49
 200 0020 FFF7FEFF 		bl	map_find
 201              	.LVL15:
 202              		.loc 1 89 6 view .LVU50
 203 0024 C8B1     		cbz	r0, .L18
  90:Core/Src/app_param_uart_map.c ****   {
  91:Core/Src/app_param_uart_map.c ****     return false;
  92:Core/Src/app_param_uart_map.c ****   }
  93:Core/Src/app_param_uart_map.c **** 
  94:Core/Src/app_param_uart_map.c ****   uval = (uint32_t)value;
 204              		.loc 1 94 3 is_stmt 1 view .LVU51
 205              	.LVL16:
  95:Core/Src/app_param_uart_map.c **** 
  96:Core/Src/app_param_uart_map.c ****   outValueBytes[0] = 0u;
 206              		.loc 1 96 3 view .LVU52
 207              		.loc 1 96 20 is_stmt 0 view .LVU53
 208 0026 0023     		movs	r3, #0
 209 0028 2370     		strb	r3, [r4]
  97:Core/Src/app_param_uart_map.c ****   outValueBytes[1] = 0u;
 210              		.loc 1 97 3 is_stmt 1 view .LVU54
 211              		.loc 1 97 20 is_stmt 0 view .LVU55
 212 002a 6370     		strb	r3, [r4, #1]
  98:Core/Src/app_param_uart_map.c ****   outValueBytes[2] = 0u;
 213              		.loc 1 98 3 is_stmt 1 view .LVU56
 214              		.loc 1 98 20 is_stmt 0 view .LVU57
 215 002c A370     		strb	r3, [r4, #2]
  99:Core/Src/app_param_uart_map.c ****   outValueBytes[3] = 0u;
 216              		.loc 1 99 3 is_stmt 1 view .LVU58
 217              		.loc 1 99 20 is_stmt 0 view .LVU59
 218 002e E370     		strb	r3, [r4, #3]
 100:Core/Src/app_param_uart_map.c **** 
 101:Core/Src/app_param_uart_map.c ****   if (valueLen == 1u)
 219              		.loc 1 101 3 is_stmt 1 view .LVU60
 220              		.loc 1 101 16 is_stmt 0 view .LVU61
 221 0030 9DF80330 		ldrb	r3, [sp, #3]	@ zero_extendqisi2
 222              		.loc 1 101 6 view .LVU62
ARM GAS  /tmp/ccabCexi.s 			page 7


 223 0034 012B     		cmp	r3, #1
 224 0036 12D0     		beq	.L26
 102:Core/Src/app_param_uart_map.c ****   {
 103:Core/Src/app_param_uart_map.c ****     outValueBytes[0] = (uint8_t)(uval & 0xFFu);
 104:Core/Src/app_param_uart_map.c ****   }
 105:Core/Src/app_param_uart_map.c ****   else if (valueLen == 2u)
 225              		.loc 1 105 8 is_stmt 1 view .LVU63
 226              		.loc 1 105 11 is_stmt 0 view .LVU64
 227 0038 022B     		cmp	r3, #2
 228 003a 12D0     		beq	.L27
 106:Core/Src/app_param_uart_map.c ****   {
 107:Core/Src/app_param_uart_map.c ****     outValueBytes[0] = (uint8_t)((uval >> 8) & 0xFFu);
 108:Core/Src/app_param_uart_map.c ****     outValueBytes[1] = (uint8_t)(uval & 0xFFu);
 109:Core/Src/app_param_uart_map.c ****   }
 110:Core/Src/app_param_uart_map.c ****   else
 111:Core/Src/app_param_uart_map.c ****   {
 112:Core/Src/app_param_uart_map.c ****     outValueBytes[0] = (uint8_t)((uval >> 24) & 0xFFu);
 229              		.loc 1 112 5 is_stmt 1 view .LVU65
 230              		.loc 1 112 24 is_stmt 0 view .LVU66
 231 003c 2B0E     		lsrs	r3, r5, #24
 232              		.loc 1 112 22 view .LVU67
 233 003e 2370     		strb	r3, [r4]
 113:Core/Src/app_param_uart_map.c ****     outValueBytes[1] = (uint8_t)((uval >> 16) & 0xFFu);
 234              		.loc 1 113 5 is_stmt 1 view .LVU68
 235              		.loc 1 113 24 is_stmt 0 view .LVU69
 236 0040 C5F30743 		ubfx	r3, r5, #16, #8
 237              		.loc 1 113 22 view .LVU70
 238 0044 6370     		strb	r3, [r4, #1]
 114:Core/Src/app_param_uart_map.c ****     outValueBytes[2] = (uint8_t)((uval >> 8) & 0xFFu);
 239              		.loc 1 114 5 is_stmt 1 view .LVU71
 240              		.loc 1 114 24 is_stmt 0 view .LVU72
 241 0046 C5F30723 		ubfx	r3, r5, #8, #8
 242              		.loc 1 114 22 view .LVU73
 243 004a A370     		strb	r3, [r4, #2]
 115:Core/Src/app_param_uart_map.c ****     outValueBytes[3] = (uint8_t)(uval & 0xFFu);
 244              		.loc 1 115 5 is_stmt 1 view .LVU74
 245              		.loc 1 115 22 is_stmt 0 view .LVU75
 246 004c E570     		strb	r5, [r4, #3]
 247              	.L20:
 116:Core/Src/app_param_uart_map.c ****   }
 117:Core/Src/app_param_uart_map.c **** 
 118:Core/Src/app_param_uart_map.c ****   *outAddr = addr;
 248              		.loc 1 118 3 is_stmt 1 view .LVU76
 249              		.loc 1 118 12 is_stmt 0 view .LVU77
 250 004e 019B     		ldr	r3, [sp, #4]
 251 0050 3360     		str	r3, [r6]
 119:Core/Src/app_param_uart_map.c ****   *outValueLen = valueLen;
 252              		.loc 1 119 3 is_stmt 1 view .LVU78
 253              		.loc 1 119 16 is_stmt 0 view .LVU79
 254 0052 9DF80330 		ldrb	r3, [sp, #3]	@ zero_extendqisi2
 255 0056 069A     		ldr	r2, [sp, #24]
 256 0058 1370     		strb	r3, [r2]
 120:Core/Src/app_param_uart_map.c ****   return true;
 257              		.loc 1 120 3 is_stmt 1 view .LVU80
 258              	.LVL17:
 259              	.L18:
 121:Core/Src/app_param_uart_map.c **** }
ARM GAS  /tmp/ccabCexi.s 			page 8


 260              		.loc 1 121 1 is_stmt 0 view .LVU81
 261 005a 02B0     		add	sp, sp, #8
 262              	.LCFI6:
 263              		.cfi_remember_state
 264              		.cfi_def_cfa_offset 16
 265              		@ sp needed
 266 005c 70BD     		pop	{r4, r5, r6, pc}
 267              	.LVL18:
 268              	.L26:
 269              	.LCFI7:
 270              		.cfi_restore_state
 103:Core/Src/app_param_uart_map.c ****   }
 271              		.loc 1 103 5 is_stmt 1 view .LVU82
 103:Core/Src/app_param_uart_map.c ****   }
 272              		.loc 1 103 22 is_stmt 0 view .LVU83
 273 005e 2570     		strb	r5, [r4]
 274 0060 F5E7     		b	.L20
 275              	.L27:
 107:Core/Src/app_param_uart_map.c ****     outValueBytes[1] = (uint8_t)(uval & 0xFFu);
 276              		.loc 1 107 5 is_stmt 1 view .LVU84
 107:Core/Src/app_param_uart_map.c ****     outValueBytes[1] = (uint8_t)(uval & 0xFFu);
 277              		.loc 1 107 24 is_stmt 0 view .LVU85
 278 0062 C5F30723 		ubfx	r3, r5, #8, #8
 107:Core/Src/app_param_uart_map.c ****     outValueBytes[1] = (uint8_t)(uval & 0xFFu);
 279              		.loc 1 107 22 view .LVU86
 280 0066 2370     		strb	r3, [r4]
 108:Core/Src/app_param_uart_map.c ****   }
 281              		.loc 1 108 5 is_stmt 1 view .LVU87
 108:Core/Src/app_param_uart_map.c ****   }
 282              		.loc 1 108 22 is_stmt 0 view .LVU88
 283 0068 6570     		strb	r5, [r4, #1]
 284 006a F0E7     		b	.L20
 285              	.LVL19:
 286              	.L22:
  86:Core/Src/app_param_uart_map.c ****   }
 287              		.loc 1 86 12 view .LVU89
 288 006c 0020     		movs	r0, #0
 289              	.LVL20:
  86:Core/Src/app_param_uart_map.c ****   }
 290              		.loc 1 86 12 view .LVU90
 291 006e F4E7     		b	.L18
 292              	.LVL21:
 293              	.L23:
  86:Core/Src/app_param_uart_map.c ****   }
 294              		.loc 1 86 12 view .LVU91
 295 0070 0020     		movs	r0, #0
 296              	.LVL22:
  86:Core/Src/app_param_uart_map.c ****   }
 297              		.loc 1 86 12 view .LVU92
 298 0072 F2E7     		b	.L18
 299              	.LVL23:
 300              	.L24:
  86:Core/Src/app_param_uart_map.c ****   }
 301              		.loc 1 86 12 view .LVU93
 302 0074 0020     		movs	r0, #0
 303              	.LVL24:
  86:Core/Src/app_param_uart_map.c ****   }
ARM GAS  /tmp/ccabCexi.s 			page 9


 304              		.loc 1 86 12 view .LVU94
 305 0076 F0E7     		b	.L18
 306              		.cfi_endproc
 307              	.LFE1:
 309              		.section	.rodata.s_writeMap,"a"
 310              		.align	2
 311              		.set	.LANCHOR0,. + 0
 314              	s_writeMap:
 315 0000 0100     		.short	1
 316 0002 0000     		.space	2
 317 0004 00003412 		.word	305397760
 318 0008 01       		.byte	1
 319 0009 000000   		.space	3
 320 000c 4200     		.short	66
 321 000e 0000     		.space	2
 322 0010 00003412 		.word	305397760
 323 0014 01       		.byte	1
 324 0015 000000   		.space	3
 325 0018 0A00     		.short	10
 326 001a 0000     		.space	2
 327 001c 00003112 		.word	305201152
 328 0020 01       		.byte	1
 329 0021 000000   		.space	3
 330 0024 4100     		.short	65
 331 0026 0000     		.space	2
 332 0028 00003712 		.word	305594368
 333 002c 01       		.byte	1
 334 002d 000000   		.space	3
 335 0030 4000     		.short	64
 336 0032 0000     		.space	2
 337 0034 00203812 		.word	305668096
 338 0038 01       		.byte	1
 339 0039 000000   		.space	3
 340 003c 4300     		.short	67
 341 003e 0000     		.space	2
 342 0040 00103512 		.word	305467392
 343 0044 04       		.byte	4
 344 0045 000000   		.space	3
 345 0048 4400     		.short	68
 346 004a 0000     		.space	2
 347 004c 00203512 		.word	305471488
 348 0050 04       		.byte	4
 349 0051 000000   		.space	3
 350 0054 4500     		.short	69
 351 0056 0000     		.space	2
 352 0058 00303512 		.word	305475584
 353 005c 04       		.byte	4
 354 005d 000000   		.space	3
 355 0060 4600     		.short	70
 356 0062 0000     		.space	2
 357 0064 00403512 		.word	305479680
 358 0068 04       		.byte	4
 359 0069 000000   		.space	3
 360 006c 4700     		.short	71
 361 006e 0000     		.space	2
 362 0070 00503512 		.word	305483776
 363 0074 04       		.byte	4
ARM GAS  /tmp/ccabCexi.s 			page 10


 364 0075 000000   		.space	3
 365 0078 4800     		.short	72
 366 007a 0000     		.space	2
 367 007c 00000000 		.word	0
 368 0080 01       		.byte	1
 369 0081 000000   		.space	3
 370 0084 4900     		.short	73
 371 0086 0000     		.space	2
 372 0088 00000000 		.word	0
 373 008c 01       		.byte	1
 374 008d 000000   		.space	3
 375 0090 4A00     		.short	74
 376 0092 0000     		.space	2
 377 0094 00000000 		.word	0
 378 0098 01       		.byte	1
 379 0099 000000   		.space	3
 380 009c 4B00     		.short	75
 381 009e 0000     		.space	2
 382 00a0 00000000 		.word	0
 383 00a4 01       		.byte	1
 384 00a5 000000   		.space	3
 385              		.text
 386              	.Letext0:
 387              		.file 2 "/usr/lib/gcc/arm-none-eabi/10.3.1/include/stdint.h"
 388              		.file 3 "Core/Inc/app_param_dict.h"
ARM GAS  /tmp/ccabCexi.s 			page 11


DEFINED SYMBOLS
                            *ABS*:0000000000000000 app_param_uart_map.c
     /tmp/ccabCexi.s:16     .text.map_find:0000000000000000 $t
     /tmp/ccabCexi.s:23     .text.map_find:0000000000000000 map_find
     /tmp/ccabCexi.s:141    .text.map_find:0000000000000058 $d
     /tmp/ccabCexi.s:146    .text.APP_ParamUartMap_BuildWrite:0000000000000000 $t
     /tmp/ccabCexi.s:153    .text.APP_ParamUartMap_BuildWrite:0000000000000000 APP_ParamUartMap_BuildWrite
     /tmp/ccabCexi.s:310    .rodata.s_writeMap:0000000000000000 $d
     /tmp/ccabCexi.s:314    .rodata.s_writeMap:0000000000000000 s_writeMap

NO UNDEFINED SYMBOLS
