ARM GAS  /tmp/ccRx83LU.s 			page 1


   1              		.cpu cortex-m3
   2              		.eabi_attribute 20, 1
   3              		.eabi_attribute 21, 1
   4              		.eabi_attribute 23, 3
   5              		.eabi_attribute 24, 1
   6              		.eabi_attribute 25, 1
   7              		.eabi_attribute 26, 1
   8              		.eabi_attribute 30, 1
   9              		.eabi_attribute 34, 1
  10              		.eabi_attribute 18, 4
  11              		.file	"bsp_stm32.c"
  12              		.text
  13              	.Ltext0:
  14              		.cfi_sections	.debug_frame
  15              		.section	.text.BSP_Init,"ax",%progbits
  16              		.align	1
  17              		.global	BSP_Init
  18              		.arch armv7-m
  19              		.syntax unified
  20              		.thumb
  21              		.thumb_func
  22              		.fpu softvfp
  24              	BSP_Init:
  25              	.LFB65:
  26              		.file 1 "Core/Src/bsp_stm32.c"
   1:Core/Src/bsp_stm32.c **** #include "bsp.h"
   2:Core/Src/bsp_stm32.c **** 
   3:Core/Src/bsp_stm32.c **** #include "gpio.h"
   4:Core/Src/bsp_stm32.c **** #include "usart.h"
   5:Core/Src/bsp_stm32.c **** #include "bsp_oled.h"
   6:Core/Src/bsp_stm32.c **** #include "bsp_keys.h"
   7:Core/Src/bsp_stm32.c **** #include "main.h"
   8:Core/Src/bsp_stm32.c **** 
   9:Core/Src/bsp_stm32.c **** void BSP_Init(void)
  10:Core/Src/bsp_stm32.c **** {
  27              		.loc 1 10 1 view -0
  28              		.cfi_startproc
  29              		@ args = 0, pretend = 0, frame = 0
  30              		@ frame_needed = 0, uses_anonymous_args = 0
  31              		@ link register save eliminated.
  11:Core/Src/bsp_stm32.c ****   /* GPIO/USART clocks and modes are configured by CubeMX init functions. */
  12:Core/Src/bsp_stm32.c **** }
  32              		.loc 1 12 1 view .LVU1
  33 0000 7047     		bx	lr
  34              		.cfi_endproc
  35              	.LFE65:
  37              		.section	.text.BSP_Led_Set,"ax",%progbits
  38              		.align	1
  39              		.global	BSP_Led_Set
  40              		.syntax unified
  41              		.thumb
  42              		.thumb_func
  43              		.fpu softvfp
  45              	BSP_Led_Set:
  46              	.LVL0:
  47              	.LFB66:
  13:Core/Src/bsp_stm32.c **** 
ARM GAS  /tmp/ccRx83LU.s 			page 2


  14:Core/Src/bsp_stm32.c **** void BSP_Led_Set(BspLedId led, bool on)
  15:Core/Src/bsp_stm32.c **** {
  48              		.loc 1 15 1 view -0
  49              		.cfi_startproc
  50              		@ args = 0, pretend = 0, frame = 0
  51              		@ frame_needed = 0, uses_anonymous_args = 0
  52              		.loc 1 15 1 is_stmt 0 view .LVU3
  53 0000 08B5     		push	{r3, lr}
  54              	.LCFI0:
  55              		.cfi_def_cfa_offset 8
  56              		.cfi_offset 3, -8
  57              		.cfi_offset 14, -4
  16:Core/Src/bsp_stm32.c ****   (void)led;
  58              		.loc 1 16 3 is_stmt 1 view .LVU4
  17:Core/Src/bsp_stm32.c ****   HAL_GPIO_WritePin(LED_HEARTBEAT_GPIO_Port, LED_HEARTBEAT_Pin,
  59              		.loc 1 17 3 view .LVU5
  60 0002 81F00102 		eor	r2, r1, #1
  61 0006 4FF40051 		mov	r1, #8192
  62              	.LVL1:
  63              		.loc 1 17 3 is_stmt 0 view .LVU6
  64 000a 0248     		ldr	r0, .L4
  65              	.LVL2:
  66              		.loc 1 17 3 view .LVU7
  67 000c FFF7FEFF 		bl	HAL_GPIO_WritePin
  68              	.LVL3:
  18:Core/Src/bsp_stm32.c ****                     on ? GPIO_PIN_RESET : GPIO_PIN_SET);
  19:Core/Src/bsp_stm32.c **** }
  69              		.loc 1 19 1 view .LVU8
  70 0010 08BD     		pop	{r3, pc}
  71              	.L5:
  72 0012 00BF     		.align	2
  73              	.L4:
  74 0014 00100140 		.word	1073811456
  75              		.cfi_endproc
  76              	.LFE66:
  78              		.section	.text.BSP_Lcd_Init,"ax",%progbits
  79              		.align	1
  80              		.global	BSP_Lcd_Init
  81              		.syntax unified
  82              		.thumb
  83              		.thumb_func
  84              		.fpu softvfp
  86              	BSP_Lcd_Init:
  87              	.LFB67:
  20:Core/Src/bsp_stm32.c **** 
  21:Core/Src/bsp_stm32.c **** void BSP_Lcd_Init(void)
  22:Core/Src/bsp_stm32.c **** {
  88              		.loc 1 22 1 is_stmt 1 view -0
  89              		.cfi_startproc
  90              		@ args = 0, pretend = 0, frame = 0
  91              		@ frame_needed = 0, uses_anonymous_args = 0
  92 0000 08B5     		push	{r3, lr}
  93              	.LCFI1:
  94              		.cfi_def_cfa_offset 8
  95              		.cfi_offset 3, -8
  96              		.cfi_offset 14, -4
  23:Core/Src/bsp_stm32.c ****   BSP_Oled_Init();
ARM GAS  /tmp/ccRx83LU.s 			page 3


  97              		.loc 1 23 3 view .LVU10
  98 0002 FFF7FEFF 		bl	BSP_Oled_Init
  99              	.LVL4:
  24:Core/Src/bsp_stm32.c **** }
 100              		.loc 1 24 1 is_stmt 0 view .LVU11
 101 0006 08BD     		pop	{r3, pc}
 102              		.cfi_endproc
 103              	.LFE67:
 105              		.section	.text.BSP_Lcd_PrintLine,"ax",%progbits
 106              		.align	1
 107              		.global	BSP_Lcd_PrintLine
 108              		.syntax unified
 109              		.thumb
 110              		.thumb_func
 111              		.fpu softvfp
 113              	BSP_Lcd_PrintLine:
 114              	.LVL5:
 115              	.LFB68:
  25:Core/Src/bsp_stm32.c **** 
  26:Core/Src/bsp_stm32.c **** void BSP_Lcd_PrintLine(uint8_t row, const char *text)
  27:Core/Src/bsp_stm32.c **** {
 116              		.loc 1 27 1 is_stmt 1 view -0
 117              		.cfi_startproc
 118              		@ args = 0, pretend = 0, frame = 0
 119              		@ frame_needed = 0, uses_anonymous_args = 0
 120              		.loc 1 27 1 is_stmt 0 view .LVU13
 121 0000 08B5     		push	{r3, lr}
 122              	.LCFI2:
 123              		.cfi_def_cfa_offset 8
 124              		.cfi_offset 3, -8
 125              		.cfi_offset 14, -4
  28:Core/Src/bsp_stm32.c ****   BSP_Oled_PrintLine(row, text);
 126              		.loc 1 28 3 is_stmt 1 view .LVU14
 127 0002 FFF7FEFF 		bl	BSP_Oled_PrintLine
 128              	.LVL6:
  29:Core/Src/bsp_stm32.c **** }
 129              		.loc 1 29 1 is_stmt 0 view .LVU15
 130 0006 08BD     		pop	{r3, pc}
 131              		.cfi_endproc
 132              	.LFE68:
 134              		.section	.text.BSP_Keys_Init,"ax",%progbits
 135              		.align	1
 136              		.global	BSP_Keys_Init
 137              		.syntax unified
 138              		.thumb
 139              		.thumb_func
 140              		.fpu softvfp
 142              	BSP_Keys_Init:
 143              	.LFB69:
  30:Core/Src/bsp_stm32.c **** 
  31:Core/Src/bsp_stm32.c **** void BSP_Keys_Init(void)
  32:Core/Src/bsp_stm32.c **** {
 144              		.loc 1 32 1 is_stmt 1 view -0
 145              		.cfi_startproc
 146              		@ args = 0, pretend = 0, frame = 0
 147              		@ frame_needed = 0, uses_anonymous_args = 0
 148 0000 08B5     		push	{r3, lr}
ARM GAS  /tmp/ccRx83LU.s 			page 4


 149              	.LCFI3:
 150              		.cfi_def_cfa_offset 8
 151              		.cfi_offset 3, -8
 152              		.cfi_offset 14, -4
  33:Core/Src/bsp_stm32.c ****   BSP_KeysDrv_Init();
 153              		.loc 1 33 3 view .LVU17
 154 0002 FFF7FEFF 		bl	BSP_KeysDrv_Init
 155              	.LVL7:
  34:Core/Src/bsp_stm32.c **** }
 156              		.loc 1 34 1 is_stmt 0 view .LVU18
 157 0006 08BD     		pop	{r3, pc}
 158              		.cfi_endproc
 159              	.LFE69:
 161              		.section	.text.BSP_Keys_GetEvent,"ax",%progbits
 162              		.align	1
 163              		.global	BSP_Keys_GetEvent
 164              		.syntax unified
 165              		.thumb
 166              		.thumb_func
 167              		.fpu softvfp
 169              	BSP_Keys_GetEvent:
 170              	.LVL8:
 171              	.LFB70:
  35:Core/Src/bsp_stm32.c **** 
  36:Core/Src/bsp_stm32.c **** bool BSP_Keys_GetEvent(KeyEvent *out_event)
  37:Core/Src/bsp_stm32.c **** {
 172              		.loc 1 37 1 is_stmt 1 view -0
 173              		.cfi_startproc
 174              		@ args = 0, pretend = 0, frame = 0
 175              		@ frame_needed = 0, uses_anonymous_args = 0
 176              		.loc 1 37 1 is_stmt 0 view .LVU20
 177 0000 08B5     		push	{r3, lr}
 178              	.LCFI4:
 179              		.cfi_def_cfa_offset 8
 180              		.cfi_offset 3, -8
 181              		.cfi_offset 14, -4
  38:Core/Src/bsp_stm32.c ****   return BSP_KeysDrv_GetEvent(out_event);
 182              		.loc 1 38 3 is_stmt 1 view .LVU21
 183              		.loc 1 38 10 is_stmt 0 view .LVU22
 184 0002 FFF7FEFF 		bl	BSP_KeysDrv_GetEvent
 185              	.LVL9:
  39:Core/Src/bsp_stm32.c **** }
 186              		.loc 1 39 1 view .LVU23
 187 0006 08BD     		pop	{r3, pc}
 188              		.cfi_endproc
 189              	.LFE70:
 191              		.section	.text.BSP_Uart_Init,"ax",%progbits
 192              		.align	1
 193              		.global	BSP_Uart_Init
 194              		.syntax unified
 195              		.thumb
 196              		.thumb_func
 197              		.fpu softvfp
 199              	BSP_Uart_Init:
 200              	.LVL10:
 201              	.LFB71:
  40:Core/Src/bsp_stm32.c **** 
ARM GAS  /tmp/ccRx83LU.s 			page 5


  41:Core/Src/bsp_stm32.c **** void BSP_Uart_Init(uint32_t baudrate)
  42:Core/Src/bsp_stm32.c **** {
 202              		.loc 1 42 1 is_stmt 1 view -0
 203              		.cfi_startproc
 204              		@ args = 0, pretend = 0, frame = 0
 205              		@ frame_needed = 0, uses_anonymous_args = 0
  43:Core/Src/bsp_stm32.c ****   if (huart1.Init.BaudRate != baudrate)
 206              		.loc 1 43 3 view .LVU25
 207              		.loc 1 43 18 is_stmt 0 view .LVU26
 208 0000 054A     		ldr	r2, .L21
 209 0002 5268     		ldr	r2, [r2, #4]
 210              		.loc 1 43 6 view .LVU27
 211 0004 8242     		cmp	r2, r0
 212 0006 00D1     		bne	.L20
 213 0008 7047     		bx	lr
 214              	.L20:
  42:Core/Src/bsp_stm32.c ****   if (huart1.Init.BaudRate != baudrate)
 215              		.loc 1 42 1 view .LVU28
 216 000a 08B5     		push	{r3, lr}
 217              	.LCFI5:
 218              		.cfi_def_cfa_offset 8
 219              		.cfi_offset 3, -8
 220              		.cfi_offset 14, -4
 221 000c 0346     		mov	r3, r0
  44:Core/Src/bsp_stm32.c ****   {
  45:Core/Src/bsp_stm32.c ****     huart1.Init.BaudRate = baudrate;
 222              		.loc 1 45 5 is_stmt 1 view .LVU29
 223              		.loc 1 45 26 is_stmt 0 view .LVU30
 224 000e 0248     		ldr	r0, .L21
 225              	.LVL11:
 226              		.loc 1 45 26 view .LVU31
 227 0010 4360     		str	r3, [r0, #4]
  46:Core/Src/bsp_stm32.c ****     (void)HAL_UART_Init(&huart1);
 228              		.loc 1 46 5 is_stmt 1 view .LVU32
 229              		.loc 1 46 11 is_stmt 0 view .LVU33
 230 0012 FFF7FEFF 		bl	HAL_UART_Init
 231              	.LVL12:
  47:Core/Src/bsp_stm32.c ****   }
  48:Core/Src/bsp_stm32.c **** }
 232              		.loc 1 48 1 view .LVU34
 233 0016 08BD     		pop	{r3, pc}
 234              	.L22:
 235              		.align	2
 236              	.L21:
 237 0018 00000000 		.word	huart1
 238              		.cfi_endproc
 239              	.LFE71:
 241              		.section	.text.BSP_Uart_Send,"ax",%progbits
 242              		.align	1
 243              		.global	BSP_Uart_Send
 244              		.syntax unified
 245              		.thumb
 246              		.thumb_func
 247              		.fpu softvfp
 249              	BSP_Uart_Send:
 250              	.LVL13:
 251              	.LFB72:
ARM GAS  /tmp/ccRx83LU.s 			page 6


  49:Core/Src/bsp_stm32.c **** 
  50:Core/Src/bsp_stm32.c **** size_t BSP_Uart_Send(const uint8_t *data, size_t len)
  51:Core/Src/bsp_stm32.c **** {
 252              		.loc 1 51 1 is_stmt 1 view -0
 253              		.cfi_startproc
 254              		@ args = 0, pretend = 0, frame = 0
 255              		@ frame_needed = 0, uses_anonymous_args = 0
  52:Core/Src/bsp_stm32.c ****   if ((data == NULL) || (len == 0u))
 256              		.loc 1 52 3 view .LVU36
 257              		.loc 1 52 6 is_stmt 0 view .LVU37
 258 0000 A8B1     		cbz	r0, .L27
  51:Core/Src/bsp_stm32.c ****   if ((data == NULL) || (len == 0u))
 259              		.loc 1 51 1 discriminator 1 view .LVU38
 260 0002 70B5     		push	{r4, r5, r6, lr}
 261              	.LCFI6:
 262              		.cfi_def_cfa_offset 16
 263              		.cfi_offset 4, -16
 264              		.cfi_offset 5, -12
 265              		.cfi_offset 6, -8
 266              		.cfi_offset 14, -4
 267 0004 0D46     		mov	r5, r1
 268 0006 0646     		mov	r6, r0
 269              		.loc 1 52 22 discriminator 1 view .LVU39
 270 0008 99B1     		cbz	r1, .L28
 271              	.LBB2:
  53:Core/Src/bsp_stm32.c ****   {
  54:Core/Src/bsp_stm32.c ****     return 0u;
  55:Core/Src/bsp_stm32.c ****   }
  56:Core/Src/bsp_stm32.c **** 
  57:Core/Src/bsp_stm32.c ****   /* 有并发发送时 HAL 可能短暂返回 BUSY，重试可避免丢包。 */
  58:Core/Src/bsp_stm32.c ****   for (uint8_t retry = 0u; retry < 3u; ++retry)
 272              		.loc 1 58 16 view .LVU40
 273 000a 0024     		movs	r4, #0
 274 000c 01E0     		b	.L25
 275              	.LVL14:
 276              	.L35:
 277              		.loc 1 58 40 is_stmt 1 discriminator 2 view .LVU41
 278 000e 0134     		adds	r4, r4, #1
 279              	.LVL15:
 280              		.loc 1 58 40 is_stmt 0 discriminator 2 view .LVU42
 281 0010 E4B2     		uxtb	r4, r4
 282              	.LVL16:
 283              	.L25:
 284              		.loc 1 58 28 is_stmt 1 discriminator 1 view .LVU43
 285              		.loc 1 58 3 is_stmt 0 discriminator 1 view .LVU44
 286 0012 022C     		cmp	r4, #2
 287 0014 09D8     		bhi	.L34
 288              	.LBB3:
  59:Core/Src/bsp_stm32.c ****   {
  60:Core/Src/bsp_stm32.c ****     HAL_StatusTypeDef st = HAL_UART_Transmit(&huart1, (uint8_t *)data, (uint16_t)len, 200u);
 289              		.loc 1 60 5 is_stmt 1 view .LVU45
 290              		.loc 1 60 28 is_stmt 0 view .LVU46
 291 0016 C823     		movs	r3, #200
 292 0018 AAB2     		uxth	r2, r5
 293 001a 3146     		mov	r1, r6
 294 001c 0648     		ldr	r0, .L36
 295 001e FFF7FEFF 		bl	HAL_UART_Transmit
ARM GAS  /tmp/ccRx83LU.s 			page 7


 296              	.LVL17:
  61:Core/Src/bsp_stm32.c ****     if (st == HAL_OK)
 297              		.loc 1 61 5 is_stmt 1 view .LVU47
 298              		.loc 1 61 8 is_stmt 0 view .LVU48
 299 0022 0028     		cmp	r0, #0
 300 0024 F3D1     		bne	.L35
  62:Core/Src/bsp_stm32.c ****     {
  63:Core/Src/bsp_stm32.c ****       return len;
 301              		.loc 1 63 14 view .LVU49
 302 0026 2846     		mov	r0, r5
 303              	.LVL18:
 304              		.loc 1 63 14 view .LVU50
 305 0028 00E0     		b	.L23
 306              	.L34:
 307              		.loc 1 63 14 view .LVU51
 308              	.LBE3:
 309              	.LBE2:
  64:Core/Src/bsp_stm32.c ****     }
  65:Core/Src/bsp_stm32.c ****   }
  66:Core/Src/bsp_stm32.c **** 
  67:Core/Src/bsp_stm32.c ****   return 0u;
 310              		.loc 1 67 10 view .LVU52
 311 002a 0020     		movs	r0, #0
 312              	.LVL19:
 313              	.L23:
  68:Core/Src/bsp_stm32.c **** }
 314              		.loc 1 68 1 view .LVU53
 315 002c 70BD     		pop	{r4, r5, r6, pc}
 316              	.LVL20:
 317              	.L27:
 318              	.LCFI7:
 319              		.cfi_def_cfa_offset 0
 320              		.cfi_restore 4
 321              		.cfi_restore 5
 322              		.cfi_restore 6
 323              		.cfi_restore 14
  54:Core/Src/bsp_stm32.c ****   }
 324              		.loc 1 54 12 view .LVU54
 325 002e 0020     		movs	r0, #0
 326              	.LVL21:
 327              		.loc 1 68 1 view .LVU55
 328 0030 7047     		bx	lr
 329              	.LVL22:
 330              	.L28:
 331              	.LCFI8:
 332              		.cfi_def_cfa_offset 16
 333              		.cfi_offset 4, -16
 334              		.cfi_offset 5, -12
 335              		.cfi_offset 6, -8
 336              		.cfi_offset 14, -4
  54:Core/Src/bsp_stm32.c ****   }
 337              		.loc 1 54 12 view .LVU56
 338 0032 0846     		mov	r0, r1
 339              	.LVL23:
  54:Core/Src/bsp_stm32.c ****   }
 340              		.loc 1 54 12 view .LVU57
 341 0034 FAE7     		b	.L23
ARM GAS  /tmp/ccRx83LU.s 			page 8


 342              	.L37:
 343 0036 00BF     		.align	2
 344              	.L36:
 345 0038 00000000 		.word	huart1
 346              		.cfi_endproc
 347              	.LFE72:
 349              		.text
 350              	.Letext0:
 351              		.file 2 "/usr/lib/gcc/arm-none-eabi/10.3.1/include/stddef.h"
 352              		.file 3 "/usr/lib/gcc/arm-none-eabi/10.3.1/include/stdint.h"
 353              		.file 4 "Core/Inc/bsp.h"
 354              		.file 5 "Drivers/CMSIS/Device/ST/STM32F1xx/Include/stm32f103xb.h"
 355              		.file 6 "Drivers/STM32F1xx_HAL_Driver/Inc/stm32f1xx_hal_def.h"
 356              		.file 7 "Drivers/STM32F1xx_HAL_Driver/Inc/stm32f1xx_hal_gpio.h"
 357              		.file 8 "Drivers/STM32F1xx_HAL_Driver/Inc/stm32f1xx_hal_dma.h"
 358              		.file 9 "Drivers/STM32F1xx_HAL_Driver/Inc/stm32f1xx_hal_uart.h"
 359              		.file 10 "Core/Inc/usart.h"
 360              		.file 11 "Core/Inc/bsp_keys.h"
 361              		.file 12 "Core/Inc/bsp_oled.h"
ARM GAS  /tmp/ccRx83LU.s 			page 9


DEFINED SYMBOLS
                            *ABS*:0000000000000000 bsp_stm32.c
     /tmp/ccRx83LU.s:16     .text.BSP_Init:0000000000000000 $t
     /tmp/ccRx83LU.s:24     .text.BSP_Init:0000000000000000 BSP_Init
     /tmp/ccRx83LU.s:38     .text.BSP_Led_Set:0000000000000000 $t
     /tmp/ccRx83LU.s:45     .text.BSP_Led_Set:0000000000000000 BSP_Led_Set
     /tmp/ccRx83LU.s:74     .text.BSP_Led_Set:0000000000000014 $d
     /tmp/ccRx83LU.s:79     .text.BSP_Lcd_Init:0000000000000000 $t
     /tmp/ccRx83LU.s:86     .text.BSP_Lcd_Init:0000000000000000 BSP_Lcd_Init
     /tmp/ccRx83LU.s:106    .text.BSP_Lcd_PrintLine:0000000000000000 $t
     /tmp/ccRx83LU.s:113    .text.BSP_Lcd_PrintLine:0000000000000000 BSP_Lcd_PrintLine
     /tmp/ccRx83LU.s:135    .text.BSP_Keys_Init:0000000000000000 $t
     /tmp/ccRx83LU.s:142    .text.BSP_Keys_Init:0000000000000000 BSP_Keys_Init
     /tmp/ccRx83LU.s:162    .text.BSP_Keys_GetEvent:0000000000000000 $t
     /tmp/ccRx83LU.s:169    .text.BSP_Keys_GetEvent:0000000000000000 BSP_Keys_GetEvent
     /tmp/ccRx83LU.s:192    .text.BSP_Uart_Init:0000000000000000 $t
     /tmp/ccRx83LU.s:199    .text.BSP_Uart_Init:0000000000000000 BSP_Uart_Init
     /tmp/ccRx83LU.s:237    .text.BSP_Uart_Init:0000000000000018 $d
     /tmp/ccRx83LU.s:242    .text.BSP_Uart_Send:0000000000000000 $t
     /tmp/ccRx83LU.s:249    .text.BSP_Uart_Send:0000000000000000 BSP_Uart_Send
     /tmp/ccRx83LU.s:345    .text.BSP_Uart_Send:0000000000000038 $d

UNDEFINED SYMBOLS
HAL_GPIO_WritePin
BSP_Oled_Init
BSP_Oled_PrintLine
BSP_KeysDrv_Init
BSP_KeysDrv_GetEvent
HAL_UART_Init
huart1
HAL_UART_Transmit
