ARM GAS  /tmp/ccOe3ASI.s 			page 1


   1              		.cpu cortex-m3
   2              		.eabi_attribute 20, 1
   3              		.eabi_attribute 21, 1
   4              		.eabi_attribute 23, 3
   5              		.eabi_attribute 24, 1
   6              		.eabi_attribute 25, 1
   7              		.eabi_attribute 26, 1
   8              		.eabi_attribute 30, 1
   9              		.eabi_attribute 34, 1
  10              		.eabi_attribute 18, 4
  11              		.file	"usart.c"
  12              		.text
  13              	.Ltext0:
  14              		.cfi_sections	.debug_frame
  15              		.section	.text.APP_USART1_RxCheckIdle,"ax",%progbits
  16              		.align	1
  17              		.global	APP_USART1_RxCheckIdle
  18              		.arch armv7-m
  19              		.syntax unified
  20              		.thumb
  21              		.thumb_func
  22              		.fpu softvfp
  24              	APP_USART1_RxCheckIdle:
  25              	.LFB65:
  26              		.file 1 "Core/Src/usart.c"
   1:Core/Src/usart.c **** /* USER CODE BEGIN Header */
   2:Core/Src/usart.c **** /**
   3:Core/Src/usart.c ****   ******************************************************************************
   4:Core/Src/usart.c ****   * @file    usart.c
   5:Core/Src/usart.c ****   * @brief   This file provides code for the configuration
   6:Core/Src/usart.c ****   *          of the USART instances.
   7:Core/Src/usart.c ****   ******************************************************************************
   8:Core/Src/usart.c ****   * @attention
   9:Core/Src/usart.c ****   *
  10:Core/Src/usart.c ****   * Copyright (c) 2026 STMicroelectronics.
  11:Core/Src/usart.c ****   * All rights reserved.
  12:Core/Src/usart.c ****   *
  13:Core/Src/usart.c ****   * This software is licensed under terms that can be found in the LICENSE file
  14:Core/Src/usart.c ****   * in the root directory of this software component.
  15:Core/Src/usart.c ****   * If no LICENSE file comes with this software, it is provided AS-IS.
  16:Core/Src/usart.c ****   *
  17:Core/Src/usart.c ****   ******************************************************************************
  18:Core/Src/usart.c ****   */
  19:Core/Src/usart.c **** /* USER CODE END Header */
  20:Core/Src/usart.c **** /* Includes ------------------------------------------------------------------*/
  21:Core/Src/usart.c **** #include "usart.h"
  22:Core/Src/usart.c **** 
  23:Core/Src/usart.c **** /* USER CODE BEGIN 0 */
  24:Core/Src/usart.c **** #include "app_uart_rx.h"
  25:Core/Src/usart.c **** 
  26:Core/Src/usart.c **** #define UART1_DMA_RX_BUF_SIZE 256u
  27:Core/Src/usart.c **** 
  28:Core/Src/usart.c **** static uint8_t s_uart1DmaRxBuf[UART1_DMA_RX_BUF_SIZE];
  29:Core/Src/usart.c **** static uint16_t s_uart1LastPos = 0u;
  30:Core/Src/usart.c **** 
  31:Core/Src/usart.c **** void APP_USART1_RxCheckIdle(void)
  32:Core/Src/usart.c **** {
ARM GAS  /tmp/ccOe3ASI.s 			page 2


  27              		.loc 1 32 1 view -0
  28              		.cfi_startproc
  29              		@ args = 0, pretend = 0, frame = 0
  30              		@ frame_needed = 0, uses_anonymous_args = 0
  31 0000 10B5     		push	{r4, lr}
  32              	.LCFI0:
  33              		.cfi_def_cfa_offset 8
  34              		.cfi_offset 4, -8
  35              		.cfi_offset 14, -4
  33:Core/Src/usart.c ****   uint16_t pos = (uint16_t)(UART1_DMA_RX_BUF_SIZE - __HAL_DMA_GET_COUNTER(&hdma_usart1_rx));
  36              		.loc 1 33 3 view .LVU1
  37              		.loc 1 33 53 is_stmt 0 view .LVU2
  38 0002 104B     		ldr	r3, .L6
  39 0004 1B68     		ldr	r3, [r3]
  40 0006 5C68     		ldr	r4, [r3, #4]
  41              		.loc 1 33 18 view .LVU3
  42 0008 A4B2     		uxth	r4, r4
  43              		.loc 1 33 12 view .LVU4
  44 000a C4F58074 		rsb	r4, r4, #256
  45 000e A4B2     		uxth	r4, r4
  46              	.LVL0:
  34:Core/Src/usart.c **** 
  35:Core/Src/usart.c ****   if (pos == s_uart1LastPos)
  47              		.loc 1 35 3 is_stmt 1 view .LVU5
  48              		.loc 1 35 11 is_stmt 0 view .LVU6
  49 0010 0D4B     		ldr	r3, .L6+4
  50 0012 1B88     		ldrh	r3, [r3]
  51              		.loc 1 35 6 view .LVU7
  52 0014 A342     		cmp	r3, r4
  53 0016 07D0     		beq	.L1
  36:Core/Src/usart.c ****   {
  37:Core/Src/usart.c ****     return;
  38:Core/Src/usart.c ****   }
  39:Core/Src/usart.c **** 
  40:Core/Src/usart.c ****   if (pos > s_uart1LastPos)
  54              		.loc 1 40 3 is_stmt 1 view .LVU8
  55              		.loc 1 40 6 is_stmt 0 view .LVU9
  56 0018 07D2     		bcs	.L3
  41:Core/Src/usart.c ****   {
  42:Core/Src/usart.c ****     APP_UartRx_PushFromISR(&s_uart1DmaRxBuf[s_uart1LastPos], (size_t)(pos - s_uart1LastPos));
  57              		.loc 1 42 5 is_stmt 1 view .LVU10
  58 001a E11A     		subs	r1, r4, r3
  59 001c 0B48     		ldr	r0, .L6+8
  60 001e 1844     		add	r0, r0, r3
  61 0020 FFF7FEFF 		bl	APP_UartRx_PushFromISR
  62              	.LVL1:
  63              	.L4:
  43:Core/Src/usart.c ****   }
  44:Core/Src/usart.c ****   else
  45:Core/Src/usart.c ****   {
  46:Core/Src/usart.c ****     APP_UartRx_PushFromISR(&s_uart1DmaRxBuf[s_uart1LastPos], (size_t)(UART1_DMA_RX_BUF_SIZE - s_uar
  47:Core/Src/usart.c ****     if (pos > 0u)
  48:Core/Src/usart.c ****     {
  49:Core/Src/usart.c ****       APP_UartRx_PushFromISR(&s_uart1DmaRxBuf[0], pos);
  50:Core/Src/usart.c ****     }
  51:Core/Src/usart.c ****   }
  52:Core/Src/usart.c **** 
ARM GAS  /tmp/ccOe3ASI.s 			page 3


  53:Core/Src/usart.c ****   s_uart1LastPos = pos;
  64              		.loc 1 53 3 view .LVU11
  65              		.loc 1 53 18 is_stmt 0 view .LVU12
  66 0024 084B     		ldr	r3, .L6+4
  67 0026 1C80     		strh	r4, [r3]	@ movhi
  68              	.L1:
  54:Core/Src/usart.c **** }
  69              		.loc 1 54 1 view .LVU13
  70 0028 10BD     		pop	{r4, pc}
  71              	.LVL2:
  72              	.L3:
  46:Core/Src/usart.c ****     if (pos > 0u)
  73              		.loc 1 46 5 is_stmt 1 view .LVU14
  74 002a C3F58071 		rsb	r1, r3, #256
  75 002e 0748     		ldr	r0, .L6+8
  76 0030 1844     		add	r0, r0, r3
  77 0032 FFF7FEFF 		bl	APP_UartRx_PushFromISR
  78              	.LVL3:
  47:Core/Src/usart.c ****     {
  79              		.loc 1 47 5 view .LVU15
  47:Core/Src/usart.c ****     {
  80              		.loc 1 47 8 is_stmt 0 view .LVU16
  81 0036 002C     		cmp	r4, #0
  82 0038 F4D0     		beq	.L4
  49:Core/Src/usart.c ****     }
  83              		.loc 1 49 7 is_stmt 1 view .LVU17
  84 003a 2146     		mov	r1, r4
  85 003c 0348     		ldr	r0, .L6+8
  86 003e FFF7FEFF 		bl	APP_UartRx_PushFromISR
  87              	.LVL4:
  88 0042 EFE7     		b	.L4
  89              	.L7:
  90              		.align	2
  91              	.L6:
  92 0044 00000000 		.word	.LANCHOR0
  93 0048 00000000 		.word	.LANCHOR1
  94 004c 00000000 		.word	.LANCHOR2
  95              		.cfi_endproc
  96              	.LFE65:
  98              		.section	.text.MX_USART1_UART_Init,"ax",%progbits
  99              		.align	1
 100              		.global	MX_USART1_UART_Init
 101              		.syntax unified
 102              		.thumb
 103              		.thumb_func
 104              		.fpu softvfp
 106              	MX_USART1_UART_Init:
 107              	.LFB66:
  55:Core/Src/usart.c **** 
  56:Core/Src/usart.c **** /* USER CODE END 0 */
  57:Core/Src/usart.c **** 
  58:Core/Src/usart.c **** UART_HandleTypeDef huart1;
  59:Core/Src/usart.c **** DMA_HandleTypeDef hdma_usart1_rx;
  60:Core/Src/usart.c **** 
  61:Core/Src/usart.c **** /* USART1 init function */
  62:Core/Src/usart.c **** 
  63:Core/Src/usart.c **** void MX_USART1_UART_Init(void)
ARM GAS  /tmp/ccOe3ASI.s 			page 4


  64:Core/Src/usart.c **** {
 108              		.loc 1 64 1 view -0
 109              		.cfi_startproc
 110              		@ args = 0, pretend = 0, frame = 0
 111              		@ frame_needed = 0, uses_anonymous_args = 0
 112 0000 08B5     		push	{r3, lr}
 113              	.LCFI1:
 114              		.cfi_def_cfa_offset 8
 115              		.cfi_offset 3, -8
 116              		.cfi_offset 14, -4
  65:Core/Src/usart.c **** 
  66:Core/Src/usart.c ****   /* USER CODE BEGIN USART1_Init 0 */
  67:Core/Src/usart.c **** 
  68:Core/Src/usart.c ****   /* USER CODE END USART1_Init 0 */
  69:Core/Src/usart.c **** 
  70:Core/Src/usart.c ****   /* USER CODE BEGIN USART1_Init 1 */
  71:Core/Src/usart.c **** 
  72:Core/Src/usart.c ****   /* USER CODE END USART1_Init 1 */
  73:Core/Src/usart.c ****   huart1.Instance = USART1;
 117              		.loc 1 73 3 view .LVU19
 118              		.loc 1 73 19 is_stmt 0 view .LVU20
 119 0002 1548     		ldr	r0, .L14
 120 0004 154B     		ldr	r3, .L14+4
 121 0006 0360     		str	r3, [r0]
  74:Core/Src/usart.c ****   huart1.Init.BaudRate = 9600;
 122              		.loc 1 74 3 is_stmt 1 view .LVU21
 123              		.loc 1 74 24 is_stmt 0 view .LVU22
 124 0008 4FF41653 		mov	r3, #9600
 125 000c 4360     		str	r3, [r0, #4]
  75:Core/Src/usart.c ****   huart1.Init.WordLength = UART_WORDLENGTH_8B;
 126              		.loc 1 75 3 is_stmt 1 view .LVU23
 127              		.loc 1 75 26 is_stmt 0 view .LVU24
 128 000e 0023     		movs	r3, #0
 129 0010 8360     		str	r3, [r0, #8]
  76:Core/Src/usart.c ****   huart1.Init.StopBits = UART_STOPBITS_1;
 130              		.loc 1 76 3 is_stmt 1 view .LVU25
 131              		.loc 1 76 24 is_stmt 0 view .LVU26
 132 0012 C360     		str	r3, [r0, #12]
  77:Core/Src/usart.c ****   huart1.Init.Parity = UART_PARITY_NONE;
 133              		.loc 1 77 3 is_stmt 1 view .LVU27
 134              		.loc 1 77 22 is_stmt 0 view .LVU28
 135 0014 0361     		str	r3, [r0, #16]
  78:Core/Src/usart.c ****   huart1.Init.Mode = UART_MODE_TX_RX;
 136              		.loc 1 78 3 is_stmt 1 view .LVU29
 137              		.loc 1 78 20 is_stmt 0 view .LVU30
 138 0016 0C22     		movs	r2, #12
 139 0018 4261     		str	r2, [r0, #20]
  79:Core/Src/usart.c ****   huart1.Init.HwFlowCtl = UART_HWCONTROL_NONE;
 140              		.loc 1 79 3 is_stmt 1 view .LVU31
 141              		.loc 1 79 25 is_stmt 0 view .LVU32
 142 001a 8361     		str	r3, [r0, #24]
  80:Core/Src/usart.c ****   huart1.Init.OverSampling = UART_OVERSAMPLING_16;
 143              		.loc 1 80 3 is_stmt 1 view .LVU33
 144              		.loc 1 80 28 is_stmt 0 view .LVU34
 145 001c C361     		str	r3, [r0, #28]
  81:Core/Src/usart.c ****   if (HAL_UART_Init(&huart1) != HAL_OK)
 146              		.loc 1 81 3 is_stmt 1 view .LVU35
ARM GAS  /tmp/ccOe3ASI.s 			page 5


 147              		.loc 1 81 7 is_stmt 0 view .LVU36
 148 001e FFF7FEFF 		bl	HAL_UART_Init
 149              	.LVL5:
 150              		.loc 1 81 6 view .LVU37
 151 0022 90B9     		cbnz	r0, .L12
 152              	.L9:
  82:Core/Src/usart.c ****   {
  83:Core/Src/usart.c ****     Error_Handler();
  84:Core/Src/usart.c ****   }
  85:Core/Src/usart.c ****   /* USER CODE BEGIN USART1_Init 2 */
  86:Core/Src/usart.c **** 
  87:Core/Src/usart.c ****   APP_UartRx_Init();
 153              		.loc 1 87 3 is_stmt 1 view .LVU38
 154 0024 FFF7FEFF 		bl	APP_UartRx_Init
 155              	.LVL6:
  88:Core/Src/usart.c ****   s_uart1LastPos = 0u;
 156              		.loc 1 88 3 view .LVU39
 157              		.loc 1 88 18 is_stmt 0 view .LVU40
 158 0028 0D4B     		ldr	r3, .L14+8
 159 002a 0022     		movs	r2, #0
 160 002c 1A80     		strh	r2, [r3]	@ movhi
  89:Core/Src/usart.c **** 
  90:Core/Src/usart.c ****   if (HAL_UART_Receive_DMA(&huart1, s_uart1DmaRxBuf, UART1_DMA_RX_BUF_SIZE) != HAL_OK)
 161              		.loc 1 90 3 is_stmt 1 view .LVU41
 162              		.loc 1 90 7 is_stmt 0 view .LVU42
 163 002e 4FF48072 		mov	r2, #256
 164 0032 0C49     		ldr	r1, .L14+12
 165 0034 0848     		ldr	r0, .L14
 166 0036 FFF7FEFF 		bl	HAL_UART_Receive_DMA
 167              	.LVL7:
 168              		.loc 1 90 6 view .LVU43
 169 003a 48B9     		cbnz	r0, .L13
 170              	.L10:
  91:Core/Src/usart.c ****   {
  92:Core/Src/usart.c ****     Error_Handler();
  93:Core/Src/usart.c ****   }
  94:Core/Src/usart.c **** 
  95:Core/Src/usart.c ****   __HAL_UART_ENABLE_IT(&huart1, UART_IT_IDLE);
 171              		.loc 1 95 3 is_stmt 1 view .LVU44
 172 003c 064B     		ldr	r3, .L14
 173 003e 1A68     		ldr	r2, [r3]
 174 0040 D368     		ldr	r3, [r2, #12]
 175 0042 43F01003 		orr	r3, r3, #16
 176 0046 D360     		str	r3, [r2, #12]
  96:Core/Src/usart.c **** 
  97:Core/Src/usart.c ****   /* USER CODE END USART1_Init 2 */
  98:Core/Src/usart.c **** 
  99:Core/Src/usart.c **** }
 177              		.loc 1 99 1 is_stmt 0 view .LVU45
 178 0048 08BD     		pop	{r3, pc}
 179              	.L12:
  83:Core/Src/usart.c ****   }
 180              		.loc 1 83 5 is_stmt 1 view .LVU46
 181 004a FFF7FEFF 		bl	Error_Handler
 182              	.LVL8:
 183 004e E9E7     		b	.L9
 184              	.L13:
ARM GAS  /tmp/ccOe3ASI.s 			page 6


  92:Core/Src/usart.c ****   }
 185              		.loc 1 92 5 view .LVU47
 186 0050 FFF7FEFF 		bl	Error_Handler
 187              	.LVL9:
 188 0054 F2E7     		b	.L10
 189              	.L15:
 190 0056 00BF     		.align	2
 191              	.L14:
 192 0058 00000000 		.word	.LANCHOR3
 193 005c 00380140 		.word	1073821696
 194 0060 00000000 		.word	.LANCHOR1
 195 0064 00000000 		.word	.LANCHOR2
 196              		.cfi_endproc
 197              	.LFE66:
 199              		.section	.text.HAL_UART_MspInit,"ax",%progbits
 200              		.align	1
 201              		.global	HAL_UART_MspInit
 202              		.syntax unified
 203              		.thumb
 204              		.thumb_func
 205              		.fpu softvfp
 207              	HAL_UART_MspInit:
 208              	.LVL10:
 209              	.LFB67:
 100:Core/Src/usart.c **** 
 101:Core/Src/usart.c **** void HAL_UART_MspInit(UART_HandleTypeDef* uartHandle)
 102:Core/Src/usart.c **** {
 210              		.loc 1 102 1 view -0
 211              		.cfi_startproc
 212              		@ args = 0, pretend = 0, frame = 24
 213              		@ frame_needed = 0, uses_anonymous_args = 0
 214              		.loc 1 102 1 is_stmt 0 view .LVU49
 215 0000 70B5     		push	{r4, r5, r6, lr}
 216              	.LCFI2:
 217              		.cfi_def_cfa_offset 16
 218              		.cfi_offset 4, -16
 219              		.cfi_offset 5, -12
 220              		.cfi_offset 6, -8
 221              		.cfi_offset 14, -4
 222 0002 86B0     		sub	sp, sp, #24
 223              	.LCFI3:
 224              		.cfi_def_cfa_offset 40
 103:Core/Src/usart.c **** 
 104:Core/Src/usart.c ****   GPIO_InitTypeDef GPIO_InitStruct = {0};
 225              		.loc 1 104 3 is_stmt 1 view .LVU50
 226              		.loc 1 104 20 is_stmt 0 view .LVU51
 227 0004 0023     		movs	r3, #0
 228 0006 0293     		str	r3, [sp, #8]
 229 0008 0393     		str	r3, [sp, #12]
 230 000a 0493     		str	r3, [sp, #16]
 231 000c 0593     		str	r3, [sp, #20]
 105:Core/Src/usart.c ****   if(uartHandle->Instance==USART1)
 232              		.loc 1 105 3 is_stmt 1 view .LVU52
 233              		.loc 1 105 16 is_stmt 0 view .LVU53
 234 000e 0268     		ldr	r2, [r0]
 235              		.loc 1 105 5 view .LVU54
 236 0010 264B     		ldr	r3, .L22
ARM GAS  /tmp/ccOe3ASI.s 			page 7


 237 0012 9A42     		cmp	r2, r3
 238 0014 01D0     		beq	.L20
 239              	.LVL11:
 240              	.L16:
 106:Core/Src/usart.c ****   {
 107:Core/Src/usart.c ****   /* USER CODE BEGIN USART1_MspInit 0 */
 108:Core/Src/usart.c **** 
 109:Core/Src/usart.c ****   /* USER CODE END USART1_MspInit 0 */
 110:Core/Src/usart.c ****     /* USART1 clock enable */
 111:Core/Src/usart.c ****     __HAL_RCC_USART1_CLK_ENABLE();
 112:Core/Src/usart.c **** 
 113:Core/Src/usart.c ****     __HAL_RCC_GPIOA_CLK_ENABLE();
 114:Core/Src/usart.c ****     /**USART1 GPIO Configuration
 115:Core/Src/usart.c ****     PA9     ------> USART1_TX
 116:Core/Src/usart.c ****     PA10     ------> USART1_RX
 117:Core/Src/usart.c ****     */
 118:Core/Src/usart.c ****     GPIO_InitStruct.Pin = GPIO_PIN_9;
 119:Core/Src/usart.c ****     GPIO_InitStruct.Mode = GPIO_MODE_AF_PP;
 120:Core/Src/usart.c ****     GPIO_InitStruct.Speed = GPIO_SPEED_FREQ_HIGH;
 121:Core/Src/usart.c ****     HAL_GPIO_Init(GPIOA, &GPIO_InitStruct);
 122:Core/Src/usart.c **** 
 123:Core/Src/usart.c ****     GPIO_InitStruct.Pin = GPIO_PIN_10;
 124:Core/Src/usart.c ****     GPIO_InitStruct.Mode = GPIO_MODE_INPUT;
 125:Core/Src/usart.c ****     GPIO_InitStruct.Pull = GPIO_NOPULL;
 126:Core/Src/usart.c ****     HAL_GPIO_Init(GPIOA, &GPIO_InitStruct);
 127:Core/Src/usart.c **** 
 128:Core/Src/usart.c ****     /* USART1 DMA Init */
 129:Core/Src/usart.c ****     /* USART1_RX Init */
 130:Core/Src/usart.c ****     hdma_usart1_rx.Instance = DMA1_Channel5;
 131:Core/Src/usart.c ****     hdma_usart1_rx.Init.Direction = DMA_PERIPH_TO_MEMORY;
 132:Core/Src/usart.c ****     hdma_usart1_rx.Init.PeriphInc = DMA_PINC_DISABLE;
 133:Core/Src/usart.c ****     hdma_usart1_rx.Init.MemInc = DMA_MINC_ENABLE;
 134:Core/Src/usart.c ****     hdma_usart1_rx.Init.PeriphDataAlignment = DMA_PDATAALIGN_BYTE;
 135:Core/Src/usart.c ****     hdma_usart1_rx.Init.MemDataAlignment = DMA_MDATAALIGN_BYTE;
 136:Core/Src/usart.c ****     hdma_usart1_rx.Init.Mode = DMA_CIRCULAR;
 137:Core/Src/usart.c ****     hdma_usart1_rx.Init.Priority = DMA_PRIORITY_LOW;
 138:Core/Src/usart.c ****     if (HAL_DMA_Init(&hdma_usart1_rx) != HAL_OK)
 139:Core/Src/usart.c ****     {
 140:Core/Src/usart.c ****       Error_Handler();
 141:Core/Src/usart.c ****     }
 142:Core/Src/usart.c **** 
 143:Core/Src/usart.c ****     __HAL_LINKDMA(uartHandle,hdmarx,hdma_usart1_rx);
 144:Core/Src/usart.c **** 
 145:Core/Src/usart.c ****     /* USART1 interrupt Init */
 146:Core/Src/usart.c ****     HAL_NVIC_SetPriority(USART1_IRQn, 5, 0);
 147:Core/Src/usart.c ****     HAL_NVIC_EnableIRQ(USART1_IRQn);
 148:Core/Src/usart.c ****   /* USER CODE BEGIN USART1_MspInit 1 */
 149:Core/Src/usart.c **** 
 150:Core/Src/usart.c ****   /* USER CODE END USART1_MspInit 1 */
 151:Core/Src/usart.c ****   }
 152:Core/Src/usart.c **** }
 241              		.loc 1 152 1 view .LVU55
 242 0016 06B0     		add	sp, sp, #24
 243              	.LCFI4:
 244              		.cfi_remember_state
 245              		.cfi_def_cfa_offset 16
 246              		@ sp needed
ARM GAS  /tmp/ccOe3ASI.s 			page 8


 247 0018 70BD     		pop	{r4, r5, r6, pc}
 248              	.LVL12:
 249              	.L20:
 250              	.LCFI5:
 251              		.cfi_restore_state
 252              		.loc 1 152 1 view .LVU56
 253 001a 0446     		mov	r4, r0
 111:Core/Src/usart.c **** 
 254              		.loc 1 111 5 is_stmt 1 view .LVU57
 255              	.LBB2:
 111:Core/Src/usart.c **** 
 256              		.loc 1 111 5 view .LVU58
 111:Core/Src/usart.c **** 
 257              		.loc 1 111 5 view .LVU59
 258 001c 03F55843 		add	r3, r3, #55296
 259 0020 9A69     		ldr	r2, [r3, #24]
 260 0022 42F48042 		orr	r2, r2, #16384
 261 0026 9A61     		str	r2, [r3, #24]
 111:Core/Src/usart.c **** 
 262              		.loc 1 111 5 view .LVU60
 263 0028 9A69     		ldr	r2, [r3, #24]
 264 002a 02F48042 		and	r2, r2, #16384
 265 002e 0092     		str	r2, [sp]
 111:Core/Src/usart.c **** 
 266              		.loc 1 111 5 view .LVU61
 267 0030 009A     		ldr	r2, [sp]
 268              	.LBE2:
 111:Core/Src/usart.c **** 
 269              		.loc 1 111 5 view .LVU62
 113:Core/Src/usart.c ****     /**USART1 GPIO Configuration
 270              		.loc 1 113 5 view .LVU63
 271              	.LBB3:
 113:Core/Src/usart.c ****     /**USART1 GPIO Configuration
 272              		.loc 1 113 5 view .LVU64
 113:Core/Src/usart.c ****     /**USART1 GPIO Configuration
 273              		.loc 1 113 5 view .LVU65
 274 0032 9A69     		ldr	r2, [r3, #24]
 275 0034 42F00402 		orr	r2, r2, #4
 276 0038 9A61     		str	r2, [r3, #24]
 113:Core/Src/usart.c ****     /**USART1 GPIO Configuration
 277              		.loc 1 113 5 view .LVU66
 278 003a 9B69     		ldr	r3, [r3, #24]
 279 003c 03F00403 		and	r3, r3, #4
 280 0040 0193     		str	r3, [sp, #4]
 113:Core/Src/usart.c ****     /**USART1 GPIO Configuration
 281              		.loc 1 113 5 view .LVU67
 282 0042 019B     		ldr	r3, [sp, #4]
 283              	.LBE3:
 113:Core/Src/usart.c ****     /**USART1 GPIO Configuration
 284              		.loc 1 113 5 view .LVU68
 118:Core/Src/usart.c ****     GPIO_InitStruct.Mode = GPIO_MODE_AF_PP;
 285              		.loc 1 118 5 view .LVU69
 118:Core/Src/usart.c ****     GPIO_InitStruct.Mode = GPIO_MODE_AF_PP;
 286              		.loc 1 118 25 is_stmt 0 view .LVU70
 287 0044 4FF40073 		mov	r3, #512
 288 0048 0293     		str	r3, [sp, #8]
 119:Core/Src/usart.c ****     GPIO_InitStruct.Speed = GPIO_SPEED_FREQ_HIGH;
ARM GAS  /tmp/ccOe3ASI.s 			page 9


 289              		.loc 1 119 5 is_stmt 1 view .LVU71
 119:Core/Src/usart.c ****     GPIO_InitStruct.Speed = GPIO_SPEED_FREQ_HIGH;
 290              		.loc 1 119 26 is_stmt 0 view .LVU72
 291 004a 0223     		movs	r3, #2
 292 004c 0393     		str	r3, [sp, #12]
 120:Core/Src/usart.c ****     HAL_GPIO_Init(GPIOA, &GPIO_InitStruct);
 293              		.loc 1 120 5 is_stmt 1 view .LVU73
 120:Core/Src/usart.c ****     HAL_GPIO_Init(GPIOA, &GPIO_InitStruct);
 294              		.loc 1 120 27 is_stmt 0 view .LVU74
 295 004e 0323     		movs	r3, #3
 296 0050 0593     		str	r3, [sp, #20]
 121:Core/Src/usart.c **** 
 297              		.loc 1 121 5 is_stmt 1 view .LVU75
 298 0052 174E     		ldr	r6, .L22+4
 299 0054 02A9     		add	r1, sp, #8
 300 0056 3046     		mov	r0, r6
 301              	.LVL13:
 121:Core/Src/usart.c **** 
 302              		.loc 1 121 5 is_stmt 0 view .LVU76
 303 0058 FFF7FEFF 		bl	HAL_GPIO_Init
 304              	.LVL14:
 123:Core/Src/usart.c ****     GPIO_InitStruct.Mode = GPIO_MODE_INPUT;
 305              		.loc 1 123 5 is_stmt 1 view .LVU77
 123:Core/Src/usart.c ****     GPIO_InitStruct.Mode = GPIO_MODE_INPUT;
 306              		.loc 1 123 25 is_stmt 0 view .LVU78
 307 005c 4FF48063 		mov	r3, #1024
 308 0060 0293     		str	r3, [sp, #8]
 124:Core/Src/usart.c ****     GPIO_InitStruct.Pull = GPIO_NOPULL;
 309              		.loc 1 124 5 is_stmt 1 view .LVU79
 124:Core/Src/usart.c ****     GPIO_InitStruct.Pull = GPIO_NOPULL;
 310              		.loc 1 124 26 is_stmt 0 view .LVU80
 311 0062 0025     		movs	r5, #0
 312 0064 0395     		str	r5, [sp, #12]
 125:Core/Src/usart.c ****     HAL_GPIO_Init(GPIOA, &GPIO_InitStruct);
 313              		.loc 1 125 5 is_stmt 1 view .LVU81
 125:Core/Src/usart.c ****     HAL_GPIO_Init(GPIOA, &GPIO_InitStruct);
 314              		.loc 1 125 26 is_stmt 0 view .LVU82
 315 0066 0495     		str	r5, [sp, #16]
 126:Core/Src/usart.c **** 
 316              		.loc 1 126 5 is_stmt 1 view .LVU83
 317 0068 02A9     		add	r1, sp, #8
 318 006a 3046     		mov	r0, r6
 319 006c FFF7FEFF 		bl	HAL_GPIO_Init
 320              	.LVL15:
 130:Core/Src/usart.c ****     hdma_usart1_rx.Init.Direction = DMA_PERIPH_TO_MEMORY;
 321              		.loc 1 130 5 view .LVU84
 130:Core/Src/usart.c ****     hdma_usart1_rx.Init.Direction = DMA_PERIPH_TO_MEMORY;
 322              		.loc 1 130 29 is_stmt 0 view .LVU85
 323 0070 1048     		ldr	r0, .L22+8
 324 0072 114B     		ldr	r3, .L22+12
 325 0074 0360     		str	r3, [r0]
 131:Core/Src/usart.c ****     hdma_usart1_rx.Init.PeriphInc = DMA_PINC_DISABLE;
 326              		.loc 1 131 5 is_stmt 1 view .LVU86
 131:Core/Src/usart.c ****     hdma_usart1_rx.Init.PeriphInc = DMA_PINC_DISABLE;
 327              		.loc 1 131 35 is_stmt 0 view .LVU87
 328 0076 4560     		str	r5, [r0, #4]
 132:Core/Src/usart.c ****     hdma_usart1_rx.Init.MemInc = DMA_MINC_ENABLE;
ARM GAS  /tmp/ccOe3ASI.s 			page 10


 329              		.loc 1 132 5 is_stmt 1 view .LVU88
 132:Core/Src/usart.c ****     hdma_usart1_rx.Init.MemInc = DMA_MINC_ENABLE;
 330              		.loc 1 132 35 is_stmt 0 view .LVU89
 331 0078 8560     		str	r5, [r0, #8]
 133:Core/Src/usart.c ****     hdma_usart1_rx.Init.PeriphDataAlignment = DMA_PDATAALIGN_BYTE;
 332              		.loc 1 133 5 is_stmt 1 view .LVU90
 133:Core/Src/usart.c ****     hdma_usart1_rx.Init.PeriphDataAlignment = DMA_PDATAALIGN_BYTE;
 333              		.loc 1 133 32 is_stmt 0 view .LVU91
 334 007a 8023     		movs	r3, #128
 335 007c C360     		str	r3, [r0, #12]
 134:Core/Src/usart.c ****     hdma_usart1_rx.Init.MemDataAlignment = DMA_MDATAALIGN_BYTE;
 336              		.loc 1 134 5 is_stmt 1 view .LVU92
 134:Core/Src/usart.c ****     hdma_usart1_rx.Init.MemDataAlignment = DMA_MDATAALIGN_BYTE;
 337              		.loc 1 134 45 is_stmt 0 view .LVU93
 338 007e 0561     		str	r5, [r0, #16]
 135:Core/Src/usart.c ****     hdma_usart1_rx.Init.Mode = DMA_CIRCULAR;
 339              		.loc 1 135 5 is_stmt 1 view .LVU94
 135:Core/Src/usart.c ****     hdma_usart1_rx.Init.Mode = DMA_CIRCULAR;
 340              		.loc 1 135 42 is_stmt 0 view .LVU95
 341 0080 4561     		str	r5, [r0, #20]
 136:Core/Src/usart.c ****     hdma_usart1_rx.Init.Priority = DMA_PRIORITY_LOW;
 342              		.loc 1 136 5 is_stmt 1 view .LVU96
 136:Core/Src/usart.c ****     hdma_usart1_rx.Init.Priority = DMA_PRIORITY_LOW;
 343              		.loc 1 136 30 is_stmt 0 view .LVU97
 344 0082 2023     		movs	r3, #32
 345 0084 8361     		str	r3, [r0, #24]
 137:Core/Src/usart.c ****     if (HAL_DMA_Init(&hdma_usart1_rx) != HAL_OK)
 346              		.loc 1 137 5 is_stmt 1 view .LVU98
 137:Core/Src/usart.c ****     if (HAL_DMA_Init(&hdma_usart1_rx) != HAL_OK)
 347              		.loc 1 137 34 is_stmt 0 view .LVU99
 348 0086 C561     		str	r5, [r0, #28]
 138:Core/Src/usart.c ****     {
 349              		.loc 1 138 5 is_stmt 1 view .LVU100
 138:Core/Src/usart.c ****     {
 350              		.loc 1 138 9 is_stmt 0 view .LVU101
 351 0088 FFF7FEFF 		bl	HAL_DMA_Init
 352              	.LVL16:
 138:Core/Src/usart.c ****     {
 353              		.loc 1 138 8 view .LVU102
 354 008c 58B9     		cbnz	r0, .L21
 355              	.L18:
 143:Core/Src/usart.c **** 
 356              		.loc 1 143 5 is_stmt 1 view .LVU103
 143:Core/Src/usart.c **** 
 357              		.loc 1 143 5 view .LVU104
 358 008e 094B     		ldr	r3, .L22+8
 359 0090 E363     		str	r3, [r4, #60]
 143:Core/Src/usart.c **** 
 360              		.loc 1 143 5 view .LVU105
 361 0092 5C62     		str	r4, [r3, #36]
 143:Core/Src/usart.c **** 
 362              		.loc 1 143 5 view .LVU106
 146:Core/Src/usart.c ****     HAL_NVIC_EnableIRQ(USART1_IRQn);
 363              		.loc 1 146 5 view .LVU107
 364 0094 0022     		movs	r2, #0
 365 0096 0521     		movs	r1, #5
 366 0098 2520     		movs	r0, #37
ARM GAS  /tmp/ccOe3ASI.s 			page 11


 367 009a FFF7FEFF 		bl	HAL_NVIC_SetPriority
 368              	.LVL17:
 147:Core/Src/usart.c ****   /* USER CODE BEGIN USART1_MspInit 1 */
 369              		.loc 1 147 5 view .LVU108
 370 009e 2520     		movs	r0, #37
 371 00a0 FFF7FEFF 		bl	HAL_NVIC_EnableIRQ
 372              	.LVL18:
 373              		.loc 1 152 1 is_stmt 0 view .LVU109
 374 00a4 B7E7     		b	.L16
 375              	.L21:
 140:Core/Src/usart.c ****     }
 376              		.loc 1 140 7 is_stmt 1 view .LVU110
 377 00a6 FFF7FEFF 		bl	Error_Handler
 378              	.LVL19:
 379 00aa F0E7     		b	.L18
 380              	.L23:
 381              		.align	2
 382              	.L22:
 383 00ac 00380140 		.word	1073821696
 384 00b0 00080140 		.word	1073809408
 385 00b4 00000000 		.word	.LANCHOR0
 386 00b8 58000240 		.word	1073872984
 387              		.cfi_endproc
 388              	.LFE67:
 390              		.section	.text.HAL_UART_MspDeInit,"ax",%progbits
 391              		.align	1
 392              		.global	HAL_UART_MspDeInit
 393              		.syntax unified
 394              		.thumb
 395              		.thumb_func
 396              		.fpu softvfp
 398              	HAL_UART_MspDeInit:
 399              	.LVL20:
 400              	.LFB68:
 153:Core/Src/usart.c **** 
 154:Core/Src/usart.c **** void HAL_UART_MspDeInit(UART_HandleTypeDef* uartHandle)
 155:Core/Src/usart.c **** {
 401              		.loc 1 155 1 view -0
 402              		.cfi_startproc
 403              		@ args = 0, pretend = 0, frame = 0
 404              		@ frame_needed = 0, uses_anonymous_args = 0
 156:Core/Src/usart.c **** 
 157:Core/Src/usart.c ****   if(uartHandle->Instance==USART1)
 405              		.loc 1 157 3 view .LVU112
 406              		.loc 1 157 16 is_stmt 0 view .LVU113
 407 0000 0268     		ldr	r2, [r0]
 408              		.loc 1 157 5 view .LVU114
 409 0002 0B4B     		ldr	r3, .L31
 410 0004 9A42     		cmp	r2, r3
 411 0006 00D0     		beq	.L30
 412 0008 7047     		bx	lr
 413              	.L30:
 155:Core/Src/usart.c **** 
 414              		.loc 1 155 1 view .LVU115
 415 000a 10B5     		push	{r4, lr}
 416              	.LCFI6:
 417              		.cfi_def_cfa_offset 8
ARM GAS  /tmp/ccOe3ASI.s 			page 12


 418              		.cfi_offset 4, -8
 419              		.cfi_offset 14, -4
 420 000c 0446     		mov	r4, r0
 158:Core/Src/usart.c ****   {
 159:Core/Src/usart.c ****   /* USER CODE BEGIN USART1_MspDeInit 0 */
 160:Core/Src/usart.c **** 
 161:Core/Src/usart.c ****   /* USER CODE END USART1_MspDeInit 0 */
 162:Core/Src/usart.c ****     /* Peripheral clock disable */
 163:Core/Src/usart.c ****     __HAL_RCC_USART1_CLK_DISABLE();
 421              		.loc 1 163 5 is_stmt 1 view .LVU116
 422 000e 094A     		ldr	r2, .L31+4
 423 0010 9369     		ldr	r3, [r2, #24]
 424 0012 23F48043 		bic	r3, r3, #16384
 425 0016 9361     		str	r3, [r2, #24]
 164:Core/Src/usart.c **** 
 165:Core/Src/usart.c ****     /**USART1 GPIO Configuration
 166:Core/Src/usart.c ****     PA9     ------> USART1_TX
 167:Core/Src/usart.c ****     PA10     ------> USART1_RX
 168:Core/Src/usart.c ****     */
 169:Core/Src/usart.c ****     HAL_GPIO_DeInit(GPIOA, GPIO_PIN_9|GPIO_PIN_10);
 426              		.loc 1 169 5 view .LVU117
 427 0018 4FF4C061 		mov	r1, #1536
 428 001c 0648     		ldr	r0, .L31+8
 429              	.LVL21:
 430              		.loc 1 169 5 is_stmt 0 view .LVU118
 431 001e FFF7FEFF 		bl	HAL_GPIO_DeInit
 432              	.LVL22:
 170:Core/Src/usart.c **** 
 171:Core/Src/usart.c ****     /* USART1 DMA DeInit */
 172:Core/Src/usart.c ****     HAL_DMA_DeInit(uartHandle->hdmarx);
 433              		.loc 1 172 5 is_stmt 1 view .LVU119
 434 0022 E06B     		ldr	r0, [r4, #60]
 435 0024 FFF7FEFF 		bl	HAL_DMA_DeInit
 436              	.LVL23:
 173:Core/Src/usart.c **** 
 174:Core/Src/usart.c ****     /* USART1 interrupt Deinit */
 175:Core/Src/usart.c ****     HAL_NVIC_DisableIRQ(USART1_IRQn);
 437              		.loc 1 175 5 view .LVU120
 438 0028 2520     		movs	r0, #37
 439 002a FFF7FEFF 		bl	HAL_NVIC_DisableIRQ
 440              	.LVL24:
 176:Core/Src/usart.c ****   /* USER CODE BEGIN USART1_MspDeInit 1 */
 177:Core/Src/usart.c **** 
 178:Core/Src/usart.c ****   /* USER CODE END USART1_MspDeInit 1 */
 179:Core/Src/usart.c ****   }
 180:Core/Src/usart.c **** }
 441              		.loc 1 180 1 is_stmt 0 view .LVU121
 442 002e 10BD     		pop	{r4, pc}
 443              	.LVL25:
 444              	.L32:
 445              		.loc 1 180 1 view .LVU122
 446              		.align	2
 447              	.L31:
 448 0030 00380140 		.word	1073821696
 449 0034 00100240 		.word	1073876992
 450 0038 00080140 		.word	1073809408
 451              		.cfi_endproc
ARM GAS  /tmp/ccOe3ASI.s 			page 13


 452              	.LFE68:
 454              		.global	hdma_usart1_rx
 455              		.global	huart1
 456              		.section	.bss.hdma_usart1_rx,"aw",%nobits
 457              		.align	2
 458              		.set	.LANCHOR0,. + 0
 461              	hdma_usart1_rx:
 462 0000 00000000 		.space	68
 462      00000000 
 462      00000000 
 462      00000000 
 462      00000000 
 463              		.section	.bss.huart1,"aw",%nobits
 464              		.align	2
 465              		.set	.LANCHOR3,. + 0
 468              	huart1:
 469 0000 00000000 		.space	72
 469      00000000 
 469      00000000 
 469      00000000 
 469      00000000 
 470              		.section	.bss.s_uart1DmaRxBuf,"aw",%nobits
 471              		.align	2
 472              		.set	.LANCHOR2,. + 0
 475              	s_uart1DmaRxBuf:
 476 0000 00000000 		.space	256
 476      00000000 
 476      00000000 
 476      00000000 
 476      00000000 
 477              		.section	.bss.s_uart1LastPos,"aw",%nobits
 478              		.align	1
 479              		.set	.LANCHOR1,. + 0
 482              	s_uart1LastPos:
 483 0000 0000     		.space	2
 484              		.text
 485              	.Letext0:
 486              		.file 2 "/usr/lib/gcc/arm-none-eabi/10.3.1/include/stdint.h"
 487              		.file 3 "Drivers/CMSIS/Device/ST/STM32F1xx/Include/stm32f103xb.h"
 488              		.file 4 "/usr/lib/gcc/arm-none-eabi/10.3.1/include/stddef.h"
 489              		.file 5 "Drivers/STM32F1xx_HAL_Driver/Inc/stm32f1xx_hal_def.h"
 490              		.file 6 "Drivers/STM32F1xx_HAL_Driver/Inc/stm32f1xx_hal_gpio.h"
 491              		.file 7 "Drivers/STM32F1xx_HAL_Driver/Inc/stm32f1xx_hal_dma.h"
 492              		.file 8 "Drivers/STM32F1xx_HAL_Driver/Inc/stm32f1xx_hal_uart.h"
 493              		.file 9 "Core/Inc/usart.h"
 494              		.file 10 "Drivers/STM32F1xx_HAL_Driver/Inc/stm32f1xx_hal_cortex.h"
 495              		.file 11 "Core/Inc/main.h"
 496              		.file 12 "Core/Inc/app_uart_rx.h"
ARM GAS  /tmp/ccOe3ASI.s 			page 14

